--- 6502 Emulation Trace Log ---

Initialized 64KB RAM to zeros.
Loaded main program (20404 bytes) from './a.out.hex' to 0x8000.
Loaded IRQ handler (5 bytes) to 0x0700.
Set Reset Vector (0xFFFC/D) to 0x8000.
Set IRQ/BRK Vector (0xFFFE/F) to 0x0700.

CPU Reset. Program Counter (PC) is now at 0x8000 (from Reset Vector).

--- Starting 6502 Emulation with Cycle-Based IRQs ---
8000: A9 7F       LDA #$7F
CPU State: PC:8002 A:7F X:00 Y:00 SP:FD Status:24 (NV-B DIZC)
RAM State: $00:00 $01:00 $02:00
Timing: Current Emulated Cycle: 2, Last IRQ Trigger Cycle: 0, Cycles Since Last IRQ: 2
Emulated Cycles: 2

8002: 8D 10 BB    STA $BB10
CPU State: PC:8005 A:7F X:00 Y:00 SP:FD Status:24 (NV-B DIZC)
RAM State: $00:00 $01:00 $02:00
Timing: Current Emulated Cycle: 6, Last IRQ Trigger Cycle: 0, Cycles Since Last IRQ: 6
Emulated Cycles: 6

8005: A9 3F       LDA #$3F
CPU State: PC:8007 A:3F X:00 Y:00 SP:FD Status:24 (NV-B DIZC)
RAM State: $00:00 $01:00 $02:00
Timing: Current Emulated Cycle: 8, Last IRQ Trigger Cycle: 0, Cycles Since Last IRQ: 8
Emulated Cycles: 8

8007: 8D 00 BB    STA $BB00
CPU State: PC:800A A:3F X:00 Y:00 SP:FD Status:24 (NV-B DIZC)
RAM State: $00:00 $01:00 $02:00
Timing: Current Emulated Cycle: 12, Last IRQ Trigger Cycle: 0, Cycles Since Last IRQ: 12
Emulated Cycles: 12

800A: A9 11       LDA #$11
CPU State: PC:800C A:11 X:00 Y:00 SP:FD Status:24 (NV-B DIZC)
RAM State: $00:00 $01:00 $02:00
Timing: Current Emulated Cycle: 14, Last IRQ Trigger Cycle: 0, Cycles Since Last IRQ: 14
Emulated Cycles: 14

800C: 8D 00 BC    STA $BC00
CPU State: PC:800F A:11 X:00 Y:00 SP:FD Status:24 (NV-B DIZC)
RAM State: $00:00 $01:00 $02:00
Timing: Current Emulated Cycle: 18, Last IRQ Trigger Cycle: 0, Cycles Since Last IRQ: 18
Emulated Cycles: 18

800F: A9 00       LDA #$00
CPU State: PC:8011 A:00 X:00 Y:00 SP:FD Status:26 (NV-B DIZC)
RAM State: $00:00 $01:00 $02:00
Timing: Current Emulated Cycle: 20, Last IRQ Trigger Cycle: 0, Cycles Since Last IRQ: 20
Emulated Cycles: 20

8011: 8D 01 BC    STA $BC01
CPU State: PC:8014 A:00 X:00 Y:00 SP:FD Status:26 (NV-B DIZC)
RAM State: $00:00 $01:00 $02:00
Timing: Current Emulated Cycle: 24, Last IRQ Trigger Cycle: 0, Cycles Since Last IRQ: 24
Emulated Cycles: 24

8014: A9 30       LDA #$30
CPU State: PC:8016 A:30 X:00 Y:00 SP:FD Status:24 (NV-B DIZC)
RAM State: $00:00 $01:00 $02:00
Timing: Current Emulated Cycle: 26, Last IRQ Trigger Cycle: 0, Cycles Since Last IRQ: 26
Emulated Cycles: 26

8016: 8D 02 BC    STA $BC02
CPU State: PC:8019 A:30 X:00 Y:00 SP:FD Status:24 (NV-B DIZC)
RAM State: $00:00 $01:00 $02:00
Timing: Current Emulated Cycle: 30, Last IRQ Trigger Cycle: 0, Cycles Since Last IRQ: 30
Emulated Cycles: 30

8019: A9 00       LDA #$00
CPU State: PC:801B A:00 X:00 Y:00 SP:FD Status:26 (NV-B DIZC)
RAM State: $00:00 $01:00 $02:00
Timing: Current Emulated Cycle: 32, Last IRQ Trigger Cycle: 0, Cycles Since Last IRQ: 32
Emulated Cycles: 32

801B: 8D 03 BC    STA $BC03
CPU State: PC:801E A:00 X:00 Y:00 SP:FD Status:26 (NV-B DIZC)
RAM State: $00:00 $01:00 $02:00
Timing: Current Emulated Cycle: 36, Last IRQ Trigger Cycle: 0, Cycles Since Last IRQ: 36
Emulated Cycles: 36

801E: 8D 04 BC    STA $BC04
CPU State: PC:8021 A:00 X:00 Y:00 SP:FD Status:26 (NV-B DIZC)
RAM State: $00:00 $01:00 $02:00
Timing: Current Emulated Cycle: 40, Last IRQ Trigger Cycle: 0, Cycles Since Last IRQ: 40
Emulated Cycles: 40

8021: 8D 05 BC    STA $BC05
CPU State: PC:8024 A:00 X:00 Y:00 SP:FD Status:26 (NV-B DIZC)
RAM State: $00:00 $01:00 $02:00
Timing: Current Emulated Cycle: 44, Last IRQ Trigger Cycle: 0, Cycles Since Last IRQ: 44
Emulated Cycles: 44

8024: A9 00       LDA #$00
CPU State: PC:8026 A:00 X:00 Y:00 SP:FD Status:26 (NV-B DIZC)
RAM State: $00:00 $01:00 $02:00
Timing: Current Emulated Cycle: 46, Last IRQ Trigger Cycle: 0, Cycles Since Last IRQ: 46
Emulated Cycles: 46

8026: 8D 06 BC    STA $BC06
CPU State: PC:8029 A:00 X:00 Y:00 SP:FD Status:26 (NV-B DIZC)
RAM State: $00:00 $01:00 $02:00
Timing: Current Emulated Cycle: 50, Last IRQ Trigger Cycle: 0, Cycles Since Last IRQ: 50
Emulated Cycles: 50

8029: 8D 07 BC    STA $BC07
CPU State: PC:802C A:00 X:00 Y:00 SP:FD Status:26 (NV-B DIZC)
RAM State: $00:00 $01:00 $02:00
Timing: Current Emulated Cycle: 54, Last IRQ Trigger Cycle: 0, Cycles Since Last IRQ: 54
Emulated Cycles: 54

802C: 8D 08 BC    STA $BC08
CPU State: PC:802F A:00 X:00 Y:00 SP:FD Status:26 (NV-B DIZC)
RAM State: $00:00 $01:00 $02:00
Timing: Current Emulated Cycle: 58, Last IRQ Trigger Cycle: 0, Cycles Since Last IRQ: 58
Emulated Cycles: 58

802F: A9 01       LDA #$01
CPU State: PC:8031 A:01 X:00 Y:00 SP:FD Status:24 (NV-B DIZC)
RAM State: $00:00 $01:00 $02:00
Timing: Current Emulated Cycle: 60, Last IRQ Trigger Cycle: 0, Cycles Since Last IRQ: 60
Emulated Cycles: 60

8031: 8D 10 BC    STA $BC10
CPU State: PC:8034 A:01 X:00 Y:00 SP:FD Status:24 (NV-B DIZC)
RAM State: $00:00 $01:00 $02:00
Timing: Current Emulated Cycle: 64, Last IRQ Trigger Cycle: 0, Cycles Since Last IRQ: 64
Emulated Cycles: 64

8034: 8D 11 BC    STA $BC11
CPU State: PC:8037 A:01 X:00 Y:00 SP:FD Status:24 (NV-B DIZC)
RAM State: $00:00 $01:00 $02:00
Timing: Current Emulated Cycle: 68, Last IRQ Trigger Cycle: 0, Cycles Since Last IRQ: 68
Emulated Cycles: 68

8037: A9 00       LDA #$00
CPU State: PC:8039 A:00 X:00 Y:00 SP:FD Status:26 (NV-B DIZC)
RAM State: $00:00 $01:00 $02:00
Timing: Current Emulated Cycle: 70, Last IRQ Trigger Cycle: 0, Cycles Since Last IRQ: 70
Emulated Cycles: 70

8039: 8D 12 BC    STA $BC12
CPU State: PC:803C A:00 X:00 Y:00 SP:FD Status:26 (NV-B DIZC)
RAM State: $00:00 $01:00 $02:00
Timing: Current Emulated Cycle: 74, Last IRQ Trigger Cycle: 0, Cycles Since Last IRQ: 74
Emulated Cycles: 74

803C: A9 04       LDA #$04
CPU State: PC:803E A:04 X:00 Y:00 SP:FD Status:24 (NV-B DIZC)
RAM State: $00:00 $01:00 $02:00
Timing: Current Emulated Cycle: 76, Last IRQ Trigger Cycle: 0, Cycles Since Last IRQ: 76
Emulated Cycles: 76

803E: 8D 13 BC    STA $BC13
CPU State: PC:8041 A:04 X:00 Y:00 SP:FD Status:24 (NV-B DIZC)
RAM State: $00:00 $01:00 $02:00
Timing: Current Emulated Cycle: 80, Last IRQ Trigger Cycle: 0, Cycles Since Last IRQ: 80
Emulated Cycles: 80

8041: 8D 14 BC    STA $BC14
CPU State: PC:8044 A:04 X:00 Y:00 SP:FD Status:24 (NV-B DIZC)
RAM State: $00:00 $01:00 $02:00
Timing: Current Emulated Cycle: 84, Last IRQ Trigger Cycle: 0, Cycles Since Last IRQ: 84
Emulated Cycles: 84

8044: 8D 15 BC    STA $BC15
CPU State: PC:8047 A:04 X:00 Y:00 SP:FD Status:24 (NV-B DIZC)
RAM State: $00:00 $01:00 $02:00
Timing: Current Emulated Cycle: 88, Last IRQ Trigger Cycle: 0, Cycles Since Last IRQ: 88
Emulated Cycles: 88

8047: A9 01       LDA #$01
CPU State: PC:8049 A:01 X:00 Y:00 SP:FD Status:24 (NV-B DIZC)
RAM State: $00:00 $01:00 $02:00
Timing: Current Emulated Cycle: 90, Last IRQ Trigger Cycle: 0, Cycles Since Last IRQ: 90
Emulated Cycles: 90

8049: 8D 16 BC    STA $BC16
CPU State: PC:804C A:01 X:00 Y:00 SP:FD Status:24 (NV-B DIZC)
RAM State: $00:00 $01:00 $02:00
Timing: Current Emulated Cycle: 94, Last IRQ Trigger Cycle: 0, Cycles Since Last IRQ: 94
Emulated Cycles: 94

804C: A9 02       LDA #$02
CPU State: PC:804E A:02 X:00 Y:00 SP:FD Status:24 (NV-B DIZC)
RAM State: $00:00 $01:00 $02:00
Timing: Current Emulated Cycle: 96, Last IRQ Trigger Cycle: 0, Cycles Since Last IRQ: 96
Emulated Cycles: 96

804E: 8D 17 BC    STA $BC17
CPU State: PC:8051 A:02 X:00 Y:00 SP:FD Status:24 (NV-B DIZC)
RAM State: $00:00 $01:00 $02:00
Timing: Current Emulated Cycle: 100, Last IRQ Trigger Cycle: 0, Cycles Since Last IRQ: 100
Emulated Cycles: 100

8051: A9 06       LDA #$06
CPU State: PC:8053 A:06 X:00 Y:00 SP:FD Status:24 (NV-B DIZC)
RAM State: $00:00 $01:00 $02:00
Timing: Current Emulated Cycle: 102, Last IRQ Trigger Cycle: 0, Cycles Since Last IRQ: 102
Emulated Cycles: 102

8053: 8D 18 BC    STA $BC18
CPU State: PC:8056 A:06 X:00 Y:00 SP:FD Status:24 (NV-B DIZC)
RAM State: $00:00 $01:00 $02:00
Timing: Current Emulated Cycle: 106, Last IRQ Trigger Cycle: 0, Cycles Since Last IRQ: 106
Emulated Cycles: 106

8056: A9 11       LDA #$11
CPU State: PC:8058 A:11 X:00 Y:00 SP:FD Status:24 (NV-B DIZC)
RAM State: $00:00 $01:00 $02:00
Timing: Current Emulated Cycle: 108, Last IRQ Trigger Cycle: 0, Cycles Since Last IRQ: 108
Emulated Cycles: 108

8058: 8D 20 BC    STA $BC20
CPU State: PC:805B A:11 X:00 Y:00 SP:FD Status:24 (NV-B DIZC)
RAM State: $00:00 $01:00 $02:00
Timing: Current Emulated Cycle: 112, Last IRQ Trigger Cycle: 0, Cycles Since Last IRQ: 112
Emulated Cycles: 112

805B: 8D 21 BC    STA $BC21
CPU State: PC:805E A:11 X:00 Y:00 SP:FD Status:24 (NV-B DIZC)
RAM State: $00:00 $01:00 $02:00
Timing: Current Emulated Cycle: 116, Last IRQ Trigger Cycle: 0, Cycles Since Last IRQ: 116
Emulated Cycles: 116

805E: 8D 22 BC    STA $BC22
CPU State: PC:8061 A:11 X:00 Y:00 SP:FD Status:24 (NV-B DIZC)
RAM State: $00:00 $01:00 $02:00
Timing: Current Emulated Cycle: 120, Last IRQ Trigger Cycle: 0, Cycles Since Last IRQ: 120
Emulated Cycles: 120

8061: 8D 23 BC    STA $BC23
CPU State: PC:8064 A:11 X:00 Y:00 SP:FD Status:24 (NV-B DIZC)
RAM State: $00:00 $01:00 $02:00
Timing: Current Emulated Cycle: 124, Last IRQ Trigger Cycle: 0, Cycles Since Last IRQ: 124
Emulated Cycles: 124

8064: 8D 24 BC    STA $BC24
CPU State: PC:8067 A:11 X:00 Y:00 SP:FD Status:24 (NV-B DIZC)
RAM State: $00:00 $01:00 $02:00
Timing: Current Emulated Cycle: 128, Last IRQ Trigger Cycle: 0, Cycles Since Last IRQ: 128
Emulated Cycles: 128

8067: 8D 25 BC    STA $BC25
CPU State: PC:806A A:11 X:00 Y:00 SP:FD Status:24 (NV-B DIZC)
RAM State: $00:00 $01:00 $02:00
Timing: Current Emulated Cycle: 132, Last IRQ Trigger Cycle: 0, Cycles Since Last IRQ: 132
Emulated Cycles: 132

806A: A9 05       LDA #$05
CPU State: PC:806C A:05 X:00 Y:00 SP:FD Status:24 (NV-B DIZC)
RAM State: $00:00 $01:00 $02:00
Timing: Current Emulated Cycle: 134, Last IRQ Trigger Cycle: 0, Cycles Since Last IRQ: 134
Emulated Cycles: 134

806C: 8D 26 BC    STA $BC26
CPU State: PC:806F A:05 X:00 Y:00 SP:FD Status:24 (NV-B DIZC)
RAM State: $00:00 $01:00 $02:00
Timing: Current Emulated Cycle: 138, Last IRQ Trigger Cycle: 0, Cycles Since Last IRQ: 138
Emulated Cycles: 138

806F: 8D 27 BC    STA $BC27
CPU State: PC:8072 A:05 X:00 Y:00 SP:FD Status:24 (NV-B DIZC)
RAM State: $00:00 $01:00 $02:00
Timing: Current Emulated Cycle: 142, Last IRQ Trigger Cycle: 0, Cycles Since Last IRQ: 142
Emulated Cycles: 142

8072: 8D 28 BC    STA $BC28
CPU State: PC:8075 A:05 X:00 Y:00 SP:FD Status:24 (NV-B DIZC)
RAM State: $00:00 $01:00 $02:00
Timing: Current Emulated Cycle: 146, Last IRQ Trigger Cycle: 0, Cycles Since Last IRQ: 146
Emulated Cycles: 146

8075: A9 11       LDA #$11
CPU State: PC:8077 A:11 X:00 Y:00 SP:FD Status:24 (NV-B DIZC)
RAM State: $00:00 $01:00 $02:00
Timing: Current Emulated Cycle: 148, Last IRQ Trigger Cycle: 0, Cycles Since Last IRQ: 148
Emulated Cycles: 148

8077: 8D 30 BC    STA $BC30
CPU State: PC:807A A:11 X:00 Y:00 SP:FD Status:24 (NV-B DIZC)
RAM State: $00:00 $01:00 $02:00
Timing: Current Emulated Cycle: 152, Last IRQ Trigger Cycle: 0, Cycles Since Last IRQ: 152
Emulated Cycles: 152

807A: 8D 31 BC    STA $BC31
CPU State: PC:807D A:11 X:00 Y:00 SP:FD Status:24 (NV-B DIZC)
RAM State: $00:00 $01:00 $02:00
Timing: Current Emulated Cycle: 156, Last IRQ Trigger Cycle: 0, Cycles Since Last IRQ: 156
Emulated Cycles: 156

807D: A9 20       LDA #$20
CPU State: PC:807F A:20 X:00 Y:00 SP:FD Status:24 (NV-B DIZC)
RAM State: $00:00 $01:00 $02:00
Timing: Current Emulated Cycle: 158, Last IRQ Trigger Cycle: 0, Cycles Since Last IRQ: 158
Emulated Cycles: 158

807F: 8D 32 BC    STA $BC32
CPU State: PC:8082 A:20 X:00 Y:00 SP:FD Status:24 (NV-B DIZC)
RAM State: $00:00 $01:00 $02:00
Timing: Current Emulated Cycle: 162, Last IRQ Trigger Cycle: 0, Cycles Since Last IRQ: 162
Emulated Cycles: 162

8082: 8D 33 BC    STA $BC33
CPU State: PC:8085 A:20 X:00 Y:00 SP:FD Status:24 (NV-B DIZC)
RAM State: $00:00 $01:00 $02:00
Timing: Current Emulated Cycle: 166, Last IRQ Trigger Cycle: 0, Cycles Since Last IRQ: 166
Emulated Cycles: 166

8085: 8D 34 BC    STA $BC34
CPU State: PC:8088 A:20 X:00 Y:00 SP:FD Status:24 (NV-B DIZC)
RAM State: $00:00 $01:00 $02:00
Timing: Current Emulated Cycle: 170, Last IRQ Trigger Cycle: 0, Cycles Since Last IRQ: 170
Emulated Cycles: 170

8088: 8D 35 BC    STA $BC35
CPU State: PC:808B A:20 X:00 Y:00 SP:FD Status:24 (NV-B DIZC)
RAM State: $00:00 $01:00 $02:00
Timing: Current Emulated Cycle: 174, Last IRQ Trigger Cycle: 0, Cycles Since Last IRQ: 174
Emulated Cycles: 174

808B: A9 03       LDA #$03
CPU State: PC:808D A:03 X:00 Y:00 SP:FD Status:24 (NV-B DIZC)
RAM State: $00:00 $01:00 $02:00
Timing: Current Emulated Cycle: 176, Last IRQ Trigger Cycle: 0, Cycles Since Last IRQ: 176
Emulated Cycles: 176

808D: 8D 36 BC    STA $BC36
CPU State: PC:8090 A:03 X:00 Y:00 SP:FD Status:24 (NV-B DIZC)
RAM State: $00:00 $01:00 $02:00
Timing: Current Emulated Cycle: 180, Last IRQ Trigger Cycle: 0, Cycles Since Last IRQ: 180
Emulated Cycles: 180

8090: 8D 37 BC    STA $BC37
CPU State: PC:8093 A:03 X:00 Y:00 SP:FD Status:24 (NV-B DIZC)
RAM State: $00:00 $01:00 $02:00
Timing: Current Emulated Cycle: 184, Last IRQ Trigger Cycle: 0, Cycles Since Last IRQ: 184
Emulated Cycles: 184

8093: 8D 38 BC    STA $BC38
CPU State: PC:8096 A:03 X:00 Y:00 SP:FD Status:24 (NV-B DIZC)
RAM State: $00:00 $01:00 $02:00
Timing: Current Emulated Cycle: 188, Last IRQ Trigger Cycle: 0, Cycles Since Last IRQ: 188
Emulated Cycles: 188

8096: A9 01       LDA #$01
CPU State: PC:8098 A:01 X:00 Y:00 SP:FD Status:24 (NV-B DIZC)
RAM State: $00:00 $01:00 $02:00
Timing: Current Emulated Cycle: 190, Last IRQ Trigger Cycle: 0, Cycles Since Last IRQ: 190
Emulated Cycles: 190

8098: 8D 40 BC    STA $BC40
CPU State: PC:809B A:01 X:00 Y:00 SP:FD Status:24 (NV-B DIZC)
RAM State: $00:00 $01:00 $02:00
Timing: Current Emulated Cycle: 194, Last IRQ Trigger Cycle: 0, Cycles Since Last IRQ: 194
Emulated Cycles: 194

809B: 8D 41 BC    STA $BC41
CPU State: PC:809E A:01 X:00 Y:00 SP:FD Status:24 (NV-B DIZC)
RAM State: $00:00 $01:00 $02:00
Timing: Current Emulated Cycle: 198, Last IRQ Trigger Cycle: 0, Cycles Since Last IRQ: 198
Emulated Cycles: 198

809E: 8D 42 BC    STA $BC42
CPU State: PC:80A1 A:01 X:00 Y:00 SP:FD Status:24 (NV-B DIZC)
RAM State: $00:00 $01:00 $02:00
Timing: Current Emulated Cycle: 202, Last IRQ Trigger Cycle: 0, Cycles Since Last IRQ: 202
Emulated Cycles: 202

80A1: 8D 43 BC    STA $BC43
CPU State: PC:80A4 A:01 X:00 Y:00 SP:FD Status:24 (NV-B DIZC)
RAM State: $00:00 $01:00 $02:00
Timing: Current Emulated Cycle: 206, Last IRQ Trigger Cycle: 0, Cycles Since Last IRQ: 206
Emulated Cycles: 206

80A4: 8D 44 BC    STA $BC44
CPU State: PC:80A7 A:01 X:00 Y:00 SP:FD Status:24 (NV-B DIZC)
RAM State: $00:00 $01:00 $02:00
Timing: Current Emulated Cycle: 210, Last IRQ Trigger Cycle: 0, Cycles Since Last IRQ: 210
Emulated Cycles: 210

80A7: 8D 45 BC    STA $BC45
CPU State: PC:80AA A:01 X:00 Y:00 SP:FD Status:24 (NV-B DIZC)
RAM State: $00:00 $01:00 $02:00
Timing: Current Emulated Cycle: 214, Last IRQ Trigger Cycle: 0, Cycles Since Last IRQ: 214
Emulated Cycles: 214

80AA: A9 04       LDA #$04
CPU State: PC:80AC A:04 X:00 Y:00 SP:FD Status:24 (NV-B DIZC)
RAM State: $00:00 $01:00 $02:00
Timing: Current Emulated Cycle: 216, Last IRQ Trigger Cycle: 0, Cycles Since Last IRQ: 216
Emulated Cycles: 216

80AC: 8D 46 BC    STA $BC46
CPU State: PC:80AF A:04 X:00 Y:00 SP:FD Status:24 (NV-B DIZC)
RAM State: $00:00 $01:00 $02:00
Timing: Current Emulated Cycle: 220, Last IRQ Trigger Cycle: 0, Cycles Since Last IRQ: 220
Emulated Cycles: 220

80AF: 8D 47 BC    STA $BC47
CPU State: PC:80B2 A:04 X:00 Y:00 SP:FD Status:24 (NV-B DIZC)
RAM State: $00:00 $01:00 $02:00
Timing: Current Emulated Cycle: 224, Last IRQ Trigger Cycle: 0, Cycles Since Last IRQ: 224
Emulated Cycles: 224

80B2: 8D 48 BC    STA $BC48
CPU State: PC:80B5 A:04 X:00 Y:00 SP:FD Status:24 (NV-B DIZC)
RAM State: $00:00 $01:00 $02:00
Timing: Current Emulated Cycle: 228, Last IRQ Trigger Cycle: 0, Cycles Since Last IRQ: 228
Emulated Cycles: 228

80B5: A9 11       LDA #$11
CPU State: PC:80B7 A:11 X:00 Y:00 SP:FD Status:24 (NV-B DIZC)
RAM State: $00:00 $01:00 $02:00
Timing: Current Emulated Cycle: 230, Last IRQ Trigger Cycle: 0, Cycles Since Last IRQ: 230
Emulated Cycles: 230

80B7: 8D 50 BC    STA $BC50
CPU State: PC:80BA A:11 X:00 Y:00 SP:FD Status:24 (NV-B DIZC)
RAM State: $00:00 $01:00 $02:00
Timing: Current Emulated Cycle: 234, Last IRQ Trigger Cycle: 0, Cycles Since Last IRQ: 234
Emulated Cycles: 234

80BA: 8D 51 BC    STA $BC51
CPU State: PC:80BD A:11 X:00 Y:00 SP:FD Status:24 (NV-B DIZC)
RAM State: $00:00 $01:00 $02:00
Timing: Current Emulated Cycle: 238, Last IRQ Trigger Cycle: 0, Cycles Since Last IRQ: 238
Emulated Cycles: 238

80BD: 8D 52 BC    STA $BC52
CPU State: PC:80C0 A:11 X:00 Y:00 SP:FD Status:24 (NV-B DIZC)
RAM State: $00:00 $01:00 $02:00
Timing: Current Emulated Cycle: 242, Last IRQ Trigger Cycle: 0, Cycles Since Last IRQ: 242
Emulated Cycles: 242

80C0: 8D 53 BC    STA $BC53
CPU State: PC:80C3 A:11 X:00 Y:00 SP:FD Status:24 (NV-B DIZC)
RAM State: $00:00 $01:00 $02:00
Timing: Current Emulated Cycle: 246, Last IRQ Trigger Cycle: 0, Cycles Since Last IRQ: 246
Emulated Cycles: 246

80C3: 8D 54 BC    STA $BC54
CPU State: PC:80C6 A:11 X:00 Y:00 SP:FD Status:24 (NV-B DIZC)
RAM State: $00:00 $01:00 $02:00
Timing: Current Emulated Cycle: 250, Last IRQ Trigger Cycle: 0, Cycles Since Last IRQ: 250
Emulated Cycles: 250

80C6: 8D 55 BC    STA $BC55
CPU State: PC:80C9 A:11 X:00 Y:00 SP:FD Status:24 (NV-B DIZC)
RAM State: $00:00 $01:00 $02:00
Timing: Current Emulated Cycle: 254, Last IRQ Trigger Cycle: 0, Cycles Since Last IRQ: 254
Emulated Cycles: 254

80C9: A9 04       LDA #$04
CPU State: PC:80CB A:04 X:00 Y:00 SP:FD Status:24 (NV-B DIZC)
RAM State: $00:00 $01:00 $02:00
Timing: Current Emulated Cycle: 256, Last IRQ Trigger Cycle: 0, Cycles Since Last IRQ: 256
Emulated Cycles: 256

80CB: 8D 56 BC    STA $BC56
CPU State: PC:80CE A:04 X:00 Y:00 SP:FD Status:24 (NV-B DIZC)
RAM State: $00:00 $01:00 $02:00
Timing: Current Emulated Cycle: 260, Last IRQ Trigger Cycle: 0, Cycles Since Last IRQ: 260
Emulated Cycles: 260

80CE: 8D 57 BC    STA $BC57
CPU State: PC:80D1 A:04 X:00 Y:00 SP:FD Status:24 (NV-B DIZC)
RAM State: $00:00 $01:00 $02:00
Timing: Current Emulated Cycle: 264, Last IRQ Trigger Cycle: 0, Cycles Since Last IRQ: 264
Emulated Cycles: 264

80D1: 8D 58 BC    STA $BC58
CPU State: PC:80D4 A:04 X:00 Y:00 SP:FD Status:24 (NV-B DIZC)
RAM State: $00:00 $01:00 $02:00
Timing: Current Emulated Cycle: 268, Last IRQ Trigger Cycle: 0, Cycles Since Last IRQ: 268
Emulated Cycles: 268

80D4: A9 01       LDA #$01
CPU State: PC:80D6 A:01 X:00 Y:00 SP:FD Status:24 (NV-B DIZC)
RAM State: $00:00 $01:00 $02:00
Timing: Current Emulated Cycle: 270, Last IRQ Trigger Cycle: 0, Cycles Since Last IRQ: 270
Emulated Cycles: 270

80D6: 8D 00 C0    STA $C000
CPU State: PC:80D9 A:01 X:00 Y:00 SP:FD Status:24 (NV-B DIZC)
RAM State: $00:00 $01:00 $02:00
Timing: Current Emulated Cycle: 274, Last IRQ Trigger Cycle: 0, Cycles Since Last IRQ: 274
Emulated Cycles: 274

80D9: A9 00       LDA #$00
CPU State: PC:80DB A:00 X:00 Y:00 SP:FD Status:26 (NV-B DIZC)
RAM State: $00:00 $01:00 $02:00
Timing: Current Emulated Cycle: 276, Last IRQ Trigger Cycle: 0, Cycles Since Last IRQ: 276
Emulated Cycles: 276

80DB: 8D 01 C0    STA $C001
CPU State: PC:80DE A:00 X:00 Y:00 SP:FD Status:26 (NV-B DIZC)
RAM State: $00:00 $01:00 $02:00
Timing: Current Emulated Cycle: 280, Last IRQ Trigger Cycle: 0, Cycles Since Last IRQ: 280
Emulated Cycles: 280

80DE: A2 00       LDX #$00
CPU State: PC:80E0 A:00 X:00 Y:00 SP:FD Status:26 (NV-B DIZC)
RAM State: $00:00 $01:00 $02:00
Timing: Current Emulated Cycle: 282, Last IRQ Trigger Cycle: 0, Cycles Since Last IRQ: 282
Emulated Cycles: 282

80E0: BD 70 CF    LDA $CF70,X
CPU State: PC:80E3 A:52 X:00 Y:00 SP:FD Status:24 (NV-B DIZC)
RAM State: $00:00 $01:00 $02:00
Timing: Current Emulated Cycle: 286, Last IRQ Trigger Cycle: 0, Cycles Since Last IRQ: 286
Emulated Cycles: 286

80E3: 9D 02 C0    STA $C002,X
CPU State: PC:80E6 A:52 X:00 Y:00 SP:FD Status:24 (NV-B DIZC)
RAM State: $00:00 $01:00 $02:00
Timing: Current Emulated Cycle: 291, Last IRQ Trigger Cycle: 0, Cycles Since Last IRQ: 291
Emulated Cycles: 291

80E6: E8          INX
CPU State: PC:80E7 A:52 X:01 Y:00 SP:FD Status:24 (NV-B DIZC)
RAM State: $00:00 $01:00 $02:00
Timing: Current Emulated Cycle: 293, Last IRQ Trigger Cycle: 0, Cycles Since Last IRQ: 293
Emulated Cycles: 293

80E7: E0 0E       CPX #$0E
CPU State: PC:80E9 A:52 X:01 Y:00 SP:FD Status:A4 (NV-B DIZC)
RAM State: $00:00 $01:00 $02:00
Timing: Current Emulated Cycle: 295, Last IRQ Trigger Cycle: 0, Cycles Since Last IRQ: 295
Emulated Cycles: 295

80E9: D0 F5       BNE $80E0
CPU State: PC:80E0 A:52 X:01 Y:00 SP:FD Status:A4 (NV-B DIZC)
RAM State: $00:00 $01:00 $02:00
Timing: Current Emulated Cycle: 298, Last IRQ Trigger Cycle: 0, Cycles Since Last IRQ: 298
Emulated Cycles: 298

80E0: BD 70 CF    LDA $CF70,X
CPU State: PC:80E3 A:45 X:01 Y:00 SP:FD Status:24 (NV-B DIZC)
RAM State: $00:00 $01:00 $02:00
Timing: Current Emulated Cycle: 302, Last IRQ Trigger Cycle: 0, Cycles Since Last IRQ: 302
Emulated Cycles: 302

80E3: 9D 02 C0    STA $C002,X
CPU State: PC:80E6 A:45 X:01 Y:00 SP:FD Status:24 (NV-B DIZC)
RAM State: $00:00 $01:00 $02:00
Timing: Current Emulated Cycle: 307, Last IRQ Trigger Cycle: 0, Cycles Since Last IRQ: 307
Emulated Cycles: 307

80E6: E8          INX
CPU State: PC:80E7 A:45 X:02 Y:00 SP:FD Status:24 (NV-B DIZC)
RAM State: $00:00 $01:00 $02:00
Timing: Current Emulated Cycle: 309, Last IRQ Trigger Cycle: 0, Cycles Since Last IRQ: 309
Emulated Cycles: 309

80E7: E0 0E       CPX #$0E
CPU State: PC:80E9 A:45 X:02 Y:00 SP:FD Status:A4 (NV-B DIZC)
RAM State: $00:00 $01:00 $02:00
Timing: Current Emulated Cycle: 311, Last IRQ Trigger Cycle: 0, Cycles Since Last IRQ: 311
Emulated Cycles: 311

80E9: D0 F5       BNE $80E0
CPU State: PC:80E0 A:45 X:02 Y:00 SP:FD Status:A4 (NV-B DIZC)
RAM State: $00:00 $01:00 $02:00
Timing: Current Emulated Cycle: 314, Last IRQ Trigger Cycle: 0, Cycles Since Last IRQ: 314
Emulated Cycles: 314

80E0: BD 70 CF    LDA $CF70,X
CPU State: PC:80E3 A:41 X:02 Y:00 SP:FD Status:24 (NV-B DIZC)
RAM State: $00:00 $01:00 $02:00
Timing: Current Emulated Cycle: 318, Last IRQ Trigger Cycle: 0, Cycles Since Last IRQ: 318
Emulated Cycles: 318

80E3: 9D 02 C0    STA $C002,X
CPU State: PC:80E6 A:41 X:02 Y:00 SP:FD Status:24 (NV-B DIZC)
RAM State: $00:00 $01:00 $02:00
Timing: Current Emulated Cycle: 323, Last IRQ Trigger Cycle: 0, Cycles Since Last IRQ: 323
Emulated Cycles: 323

80E6: E8          INX
CPU State: PC:80E7 A:41 X:03 Y:00 SP:FD Status:24 (NV-B DIZC)
RAM State: $00:00 $01:00 $02:00
Timing: Current Emulated Cycle: 325, Last IRQ Trigger Cycle: 0, Cycles Since Last IRQ: 325
Emulated Cycles: 325

80E7: E0 0E       CPX #$0E
CPU State: PC:80E9 A:41 X:03 Y:00 SP:FD Status:A4 (NV-B DIZC)
RAM State: $00:00 $01:00 $02:00
Timing: Current Emulated Cycle: 327, Last IRQ Trigger Cycle: 0, Cycles Since Last IRQ: 327
Emulated Cycles: 327

80E9: D0 F5       BNE $80E0
CPU State: PC:80E0 A:41 X:03 Y:00 SP:FD Status:A4 (NV-B DIZC)
RAM State: $00:00 $01:00 $02:00
Timing: Current Emulated Cycle: 330, Last IRQ Trigger Cycle: 0, Cycles Since Last IRQ: 330
Emulated Cycles: 330

80E0: BD 70 CF    LDA $CF70,X
CPU State: PC:80E3 A:44 X:03 Y:00 SP:FD Status:24 (NV-B DIZC)
RAM State: $00:00 $01:00 $02:00
Timing: Current Emulated Cycle: 334, Last IRQ Trigger Cycle: 0, Cycles Since Last IRQ: 334
Emulated Cycles: 334

80E3: 9D 02 C0    STA $C002,X
CPU State: PC:80E6 A:44 X:03 Y:00 SP:FD Status:24 (NV-B DIZC)
RAM State: $00:00 $01:00 $02:00
Timing: Current Emulated Cycle: 339, Last IRQ Trigger Cycle: 0, Cycles Since Last IRQ: 339
Emulated Cycles: 339

80E6: E8          INX
CPU State: PC:80E7 A:44 X:04 Y:00 SP:FD Status:24 (NV-B DIZC)
RAM State: $00:00 $01:00 $02:00
Timing: Current Emulated Cycle: 341, Last IRQ Trigger Cycle: 0, Cycles Since Last IRQ: 341
Emulated Cycles: 341

80E7: E0 0E       CPX #$0E
CPU State: PC:80E9 A:44 X:04 Y:00 SP:FD Status:A4 (NV-B DIZC)
RAM State: $00:00 $01:00 $02:00
Timing: Current Emulated Cycle: 343, Last IRQ Trigger Cycle: 0, Cycles Since Last IRQ: 343
Emulated Cycles: 343

80E9: D0 F5       BNE $80E0
CPU State: PC:80E0 A:44 X:04 Y:00 SP:FD Status:A4 (NV-B DIZC)
RAM State: $00:00 $01:00 $02:00
Timing: Current Emulated Cycle: 346, Last IRQ Trigger Cycle: 0, Cycles Since Last IRQ: 346
Emulated Cycles: 346

80E0: BD 70 CF    LDA $CF70,X
CPU State: PC:80E3 A:4D X:04 Y:00 SP:FD Status:24 (NV-B DIZC)
RAM State: $00:00 $01:00 $02:00
Timing: Current Emulated Cycle: 350, Last IRQ Trigger Cycle: 0, Cycles Since Last IRQ: 350
Emulated Cycles: 350

80E3: 9D 02 C0    STA $C002,X
CPU State: PC:80E6 A:4D X:04 Y:00 SP:FD Status:24 (NV-B DIZC)
RAM State: $00:00 $01:00 $02:00
Timing: Current Emulated Cycle: 355, Last IRQ Trigger Cycle: 0, Cycles Since Last IRQ: 355
Emulated Cycles: 355

80E6: E8          INX
CPU State: PC:80E7 A:4D X:05 Y:00 SP:FD Status:24 (NV-B DIZC)
RAM State: $00:00 $01:00 $02:00
Timing: Current Emulated Cycle: 357, Last IRQ Trigger Cycle: 0, Cycles Since Last IRQ: 357
Emulated Cycles: 357

80E7: E0 0E       CPX #$0E
CPU State: PC:80E9 A:4D X:05 Y:00 SP:FD Status:A4 (NV-B DIZC)
RAM State: $00:00 $01:00 $02:00
Timing: Current Emulated Cycle: 359, Last IRQ Trigger Cycle: 0, Cycles Since Last IRQ: 359
Emulated Cycles: 359

80E9: D0 F5       BNE $80E0
CPU State: PC:80E0 A:4D X:05 Y:00 SP:FD Status:A4 (NV-B DIZC)
RAM State: $00:00 $01:00 $02:00
Timing: Current Emulated Cycle: 362, Last IRQ Trigger Cycle: 0, Cycles Since Last IRQ: 362
Emulated Cycles: 362

80E0: BD 70 CF    LDA $CF70,X
CPU State: PC:80E3 A:45 X:05 Y:00 SP:FD Status:24 (NV-B DIZC)
RAM State: $00:00 $01:00 $02:00
Timing: Current Emulated Cycle: 366, Last IRQ Trigger Cycle: 0, Cycles Since Last IRQ: 366
Emulated Cycles: 366

80E3: 9D 02 C0    STA $C002,X
CPU State: PC:80E6 A:45 X:05 Y:00 SP:FD Status:24 (NV-B DIZC)
RAM State: $00:00 $01:00 $02:00
Timing: Current Emulated Cycle: 371, Last IRQ Trigger Cycle: 0, Cycles Since Last IRQ: 371
Emulated Cycles: 371

80E6: E8          INX
CPU State: PC:80E7 A:45 X:06 Y:00 SP:FD Status:24 (NV-B DIZC)
RAM State: $00:00 $01:00 $02:00
Timing: Current Emulated Cycle: 373, Last IRQ Trigger Cycle: 0, Cycles Since Last IRQ: 373
Emulated Cycles: 373

80E7: E0 0E       CPX #$0E
CPU State: PC:80E9 A:45 X:06 Y:00 SP:FD Status:A4 (NV-B DIZC)
RAM State: $00:00 $01:00 $02:00
Timing: Current Emulated Cycle: 375, Last IRQ Trigger Cycle: 0, Cycles Since Last IRQ: 375
Emulated Cycles: 375

80E9: D0 F5       BNE $80E0
CPU State: PC:80E0 A:45 X:06 Y:00 SP:FD Status:A4 (NV-B DIZC)
RAM State: $00:00 $01:00 $02:00
Timing: Current Emulated Cycle: 378, Last IRQ Trigger Cycle: 0, Cycles Since Last IRQ: 378
Emulated Cycles: 378

80E0: BD 70 CF    LDA $CF70,X
CPU State: PC:80E3 A:2E X:06 Y:00 SP:FD Status:24 (NV-B DIZC)
RAM State: $00:00 $01:00 $02:00
Timing: Current Emulated Cycle: 382, Last IRQ Trigger Cycle: 0, Cycles Since Last IRQ: 382
Emulated Cycles: 382

80E3: 9D 02 C0    STA $C002,X
CPU State: PC:80E6 A:2E X:06 Y:00 SP:FD Status:24 (NV-B DIZC)
RAM State: $00:00 $01:00 $02:00
Timing: Current Emulated Cycle: 387, Last IRQ Trigger Cycle: 0, Cycles Since Last IRQ: 387
Emulated Cycles: 387

80E6: E8          INX
CPU State: PC:80E7 A:2E X:07 Y:00 SP:FD Status:24 (NV-B DIZC)
RAM State: $00:00 $01:00 $02:00
Timing: Current Emulated Cycle: 389, Last IRQ Trigger Cycle: 0, Cycles Since Last IRQ: 389
Emulated Cycles: 389

80E7: E0 0E       CPX #$0E
CPU State: PC:80E9 A:2E X:07 Y:00 SP:FD Status:A4 (NV-B DIZC)
RAM State: $00:00 $01:00 $02:00
Timing: Current Emulated Cycle: 391, Last IRQ Trigger Cycle: 0, Cycles Since Last IRQ: 391
Emulated Cycles: 391

80E9: D0 F5       BNE $80E0
CPU State: PC:80E0 A:2E X:07 Y:00 SP:FD Status:A4 (NV-B DIZC)
RAM State: $00:00 $01:00 $02:00
Timing: Current Emulated Cycle: 394, Last IRQ Trigger Cycle: 0, Cycles Since Last IRQ: 394
Emulated Cycles: 394

80E0: BD 70 CF    LDA $CF70,X
CPU State: PC:80E3 A:74 X:07 Y:00 SP:FD Status:24 (NV-B DIZC)
RAM State: $00:00 $01:00 $02:00
Timing: Current Emulated Cycle: 398, Last IRQ Trigger Cycle: 0, Cycles Since Last IRQ: 398
Emulated Cycles: 398

80E3: 9D 02 C0    STA $C002,X
CPU State: PC:80E6 A:74 X:07 Y:00 SP:FD Status:24 (NV-B DIZC)
RAM State: $00:00 $01:00 $02:00
Timing: Current Emulated Cycle: 403, Last IRQ Trigger Cycle: 0, Cycles Since Last IRQ: 403
Emulated Cycles: 403

80E6: E8          INX
CPU State: PC:80E7 A:74 X:08 Y:00 SP:FD Status:24 (NV-B DIZC)
RAM State: $00:00 $01:00 $02:00
Timing: Current Emulated Cycle: 405, Last IRQ Trigger Cycle: 0, Cycles Since Last IRQ: 405
Emulated Cycles: 405

80E7: E0 0E       CPX #$0E
CPU State: PC:80E9 A:74 X:08 Y:00 SP:FD Status:A4 (NV-B DIZC)
RAM State: $00:00 $01:00 $02:00
Timing: Current Emulated Cycle: 407, Last IRQ Trigger Cycle: 0, Cycles Since Last IRQ: 407
Emulated Cycles: 407

80E9: D0 F5       BNE $80E0
CPU State: PC:80E0 A:74 X:08 Y:00 SP:FD Status:A4 (NV-B DIZC)
RAM State: $00:00 $01:00 $02:00
Timing: Current Emulated Cycle: 410, Last IRQ Trigger Cycle: 0, Cycles Since Last IRQ: 410
Emulated Cycles: 410

80E0: BD 70 CF    LDA $CF70,X
CPU State: PC:80E3 A:78 X:08 Y:00 SP:FD Status:24 (NV-B DIZC)
RAM State: $00:00 $01:00 $02:00
Timing: Current Emulated Cycle: 414, Last IRQ Trigger Cycle: 0, Cycles Since Last IRQ: 414
Emulated Cycles: 414

80E3: 9D 02 C0    STA $C002,X
CPU State: PC:80E6 A:78 X:08 Y:00 SP:FD Status:24 (NV-B DIZC)
RAM State: $00:00 $01:00 $02:00
Timing: Current Emulated Cycle: 419, Last IRQ Trigger Cycle: 0, Cycles Since Last IRQ: 419
Emulated Cycles: 419

80E6: E8          INX
CPU State: PC:80E7 A:78 X:09 Y:00 SP:FD Status:24 (NV-B DIZC)
RAM State: $00:00 $01:00 $02:00
Timing: Current Emulated Cycle: 421, Last IRQ Trigger Cycle: 0, Cycles Since Last IRQ: 421
Emulated Cycles: 421

80E7: E0 0E       CPX #$0E
CPU State: PC:80E9 A:78 X:09 Y:00 SP:FD Status:A4 (NV-B DIZC)
RAM State: $00:00 $01:00 $02:00
Timing: Current Emulated Cycle: 423, Last IRQ Trigger Cycle: 0, Cycles Since Last IRQ: 423
Emulated Cycles: 423

80E9: D0 F5       BNE $80E0
CPU State: PC:80E0 A:78 X:09 Y:00 SP:FD Status:A4 (NV-B DIZC)
RAM State: $00:00 $01:00 $02:00
Timing: Current Emulated Cycle: 426, Last IRQ Trigger Cycle: 0, Cycles Since Last IRQ: 426
Emulated Cycles: 426

80E0: BD 70 CF    LDA $CF70,X
CPU State: PC:80E3 A:74 X:09 Y:00 SP:FD Status:24 (NV-B DIZC)
RAM State: $00:00 $01:00 $02:00
Timing: Current Emulated Cycle: 430, Last IRQ Trigger Cycle: 0, Cycles Since Last IRQ: 430
Emulated Cycles: 430

80E3: 9D 02 C0    STA $C002,X
CPU State: PC:80E6 A:74 X:09 Y:00 SP:FD Status:24 (NV-B DIZC)
RAM State: $00:00 $01:00 $02:00
Timing: Current Emulated Cycle: 435, Last IRQ Trigger Cycle: 0, Cycles Since Last IRQ: 435
Emulated Cycles: 435

80E6: E8          INX
CPU State: PC:80E7 A:74 X:0A Y:00 SP:FD Status:24 (NV-B DIZC)
RAM State: $00:00 $01:00 $02:00
Timing: Current Emulated Cycle: 437, Last IRQ Trigger Cycle: 0, Cycles Since Last IRQ: 437
Emulated Cycles: 437

80E7: E0 0E       CPX #$0E
CPU State: PC:80E9 A:74 X:0A Y:00 SP:FD Status:A4 (NV-B DIZC)
RAM State: $00:00 $01:00 $02:00
Timing: Current Emulated Cycle: 439, Last IRQ Trigger Cycle: 0, Cycles Since Last IRQ: 439
Emulated Cycles: 439

80E9: D0 F5       BNE $80E0
CPU State: PC:80E0 A:74 X:0A Y:00 SP:FD Status:A4 (NV-B DIZC)
RAM State: $00:00 $01:00 $02:00
Timing: Current Emulated Cycle: 442, Last IRQ Trigger Cycle: 0, Cycles Since Last IRQ: 442
Emulated Cycles: 442

80E0: BD 70 CF    LDA $CF70,X
CPU State: PC:80E3 A:00 X:0A Y:00 SP:FD Status:26 (NV-B DIZC)
RAM State: $00:00 $01:00 $02:00
Timing: Current Emulated Cycle: 446, Last IRQ Trigger Cycle: 0, Cycles Since Last IRQ: 446
Emulated Cycles: 446

80E3: 9D 02 C0    STA $C002,X
CPU State: PC:80E6 A:00 X:0A Y:00 SP:FD Status:26 (NV-B DIZC)
RAM State: $00:00 $01:00 $02:00
Timing: Current Emulated Cycle: 451, Last IRQ Trigger Cycle: 0, Cycles Since Last IRQ: 451
Emulated Cycles: 451

80E6: E8          INX
CPU State: PC:80E7 A:00 X:0B Y:00 SP:FD Status:24 (NV-B DIZC)
RAM State: $00:00 $01:00 $02:00
Timing: Current Emulated Cycle: 453, Last IRQ Trigger Cycle: 0, Cycles Since Last IRQ: 453
Emulated Cycles: 453

80E7: E0 0E       CPX #$0E
CPU State: PC:80E9 A:00 X:0B Y:00 SP:FD Status:A4 (NV-B DIZC)
RAM State: $00:00 $01:00 $02:00
Timing: Current Emulated Cycle: 455, Last IRQ Trigger Cycle: 0, Cycles Since Last IRQ: 455
Emulated Cycles: 455

80E9: D0 F5       BNE $80E0
CPU State: PC:80E0 A:00 X:0B Y:00 SP:FD Status:A4 (NV-B DIZC)
RAM State: $00:00 $01:00 $02:00
Timing: Current Emulated Cycle: 458, Last IRQ Trigger Cycle: 0, Cycles Since Last IRQ: 458
Emulated Cycles: 458

80E0: BD 70 CF    LDA $CF70,X
CPU State: PC:80E3 A:00 X:0B Y:00 SP:FD Status:26 (NV-B DIZC)
RAM State: $00:00 $01:00 $02:00
Timing: Current Emulated Cycle: 462, Last IRQ Trigger Cycle: 0, Cycles Since Last IRQ: 462
Emulated Cycles: 462

80E3: 9D 02 C0    STA $C002,X
CPU State: PC:80E6 A:00 X:0B Y:00 SP:FD Status:26 (NV-B DIZC)
RAM State: $00:00 $01:00 $02:00
Timing: Current Emulated Cycle: 467, Last IRQ Trigger Cycle: 0, Cycles Since Last IRQ: 467
Emulated Cycles: 467

80E6: E8          INX
CPU State: PC:80E7 A:00 X:0C Y:00 SP:FD Status:24 (NV-B DIZC)
RAM State: $00:00 $01:00 $02:00
Timing: Current Emulated Cycle: 469, Last IRQ Trigger Cycle: 0, Cycles Since Last IRQ: 469
Emulated Cycles: 469

80E7: E0 0E       CPX #$0E
CPU State: PC:80E9 A:00 X:0C Y:00 SP:FD Status:A4 (NV-B DIZC)
RAM State: $00:00 $01:00 $02:00
Timing: Current Emulated Cycle: 471, Last IRQ Trigger Cycle: 0, Cycles Since Last IRQ: 471
Emulated Cycles: 471

80E9: D0 F5       BNE $80E0
CPU State: PC:80E0 A:00 X:0C Y:00 SP:FD Status:A4 (NV-B DIZC)
RAM State: $00:00 $01:00 $02:00
Timing: Current Emulated Cycle: 474, Last IRQ Trigger Cycle: 0, Cycles Since Last IRQ: 474
Emulated Cycles: 474

80E0: BD 70 CF    LDA $CF70,X
CPU State: PC:80E3 A:00 X:0C Y:00 SP:FD Status:26 (NV-B DIZC)
RAM State: $00:00 $01:00 $02:00
Timing: Current Emulated Cycle: 478, Last IRQ Trigger Cycle: 0, Cycles Since Last IRQ: 478
Emulated Cycles: 478

80E3: 9D 02 C0    STA $C002,X
CPU State: PC:80E6 A:00 X:0C Y:00 SP:FD Status:26 (NV-B DIZC)
RAM State: $00:00 $01:00 $02:00
Timing: Current Emulated Cycle: 483, Last IRQ Trigger Cycle: 0, Cycles Since Last IRQ: 483
Emulated Cycles: 483

80E6: E8          INX
CPU State: PC:80E7 A:00 X:0D Y:00 SP:FD Status:24 (NV-B DIZC)
RAM State: $00:00 $01:00 $02:00
Timing: Current Emulated Cycle: 485, Last IRQ Trigger Cycle: 0, Cycles Since Last IRQ: 485
Emulated Cycles: 485

80E7: E0 0E       CPX #$0E
CPU State: PC:80E9 A:00 X:0D Y:00 SP:FD Status:A4 (NV-B DIZC)
RAM State: $00:00 $01:00 $02:00
Timing: Current Emulated Cycle: 487, Last IRQ Trigger Cycle: 0, Cycles Since Last IRQ: 487
Emulated Cycles: 487

80E9: D0 F5       BNE $80E0
CPU State: PC:80E0 A:00 X:0D Y:00 SP:FD Status:A4 (NV-B DIZC)
RAM State: $00:00 $01:00 $02:00
Timing: Current Emulated Cycle: 490, Last IRQ Trigger Cycle: 0, Cycles Since Last IRQ: 490
Emulated Cycles: 490

80E0: BD 70 CF    LDA $CF70,X
CPU State: PC:80E3 A:72 X:0D Y:00 SP:FD Status:24 (NV-B DIZC)
RAM State: $00:00 $01:00 $02:00
Timing: Current Emulated Cycle: 494, Last IRQ Trigger Cycle: 0, Cycles Since Last IRQ: 494
Emulated Cycles: 494

80E3: 9D 02 C0    STA $C002,X
CPU State: PC:80E6 A:72 X:0D Y:00 SP:FD Status:24 (NV-B DIZC)
RAM State: $00:00 $01:00 $02:00
Timing: Current Emulated Cycle: 499, Last IRQ Trigger Cycle: 0, Cycles Since Last IRQ: 499
Emulated Cycles: 499

80E6: E8          INX
CPU State: PC:80E7 A:72 X:0E Y:00 SP:FD Status:24 (NV-B DIZC)
RAM State: $00:00 $01:00 $02:00
Timing: Current Emulated Cycle: 501, Last IRQ Trigger Cycle: 0, Cycles Since Last IRQ: 501
Emulated Cycles: 501

80E7: E0 0E       CPX #$0E
CPU State: PC:80E9 A:72 X:0E Y:00 SP:FD Status:27 (NV-B DIZC)
RAM State: $00:00 $01:00 $02:00
Timing: Current Emulated Cycle: 503, Last IRQ Trigger Cycle: 0, Cycles Since Last IRQ: 503
Emulated Cycles: 503

80E9: D0 F5       BNE $80E0
CPU State: PC:80EB A:72 X:0E Y:00 SP:FD Status:27 (NV-B DIZC)
RAM State: $00:00 $01:00 $02:00
Timing: Current Emulated Cycle: 505, Last IRQ Trigger Cycle: 0, Cycles Since Last IRQ: 505
Emulated Cycles: 505

80EB: A9 02       LDA #$02
CPU State: PC:80ED A:02 X:0E Y:00 SP:FD Status:25 (NV-B DIZC)
RAM State: $00:00 $01:00 $02:00
Timing: Current Emulated Cycle: 507, Last IRQ Trigger Cycle: 0, Cycles Since Last IRQ: 507
Emulated Cycles: 507

80ED: 8D 10 C0    STA $C010
CPU State: PC:80F0 A:02 X:0E Y:00 SP:FD Status:25 (NV-B DIZC)
RAM State: $00:00 $01:00 $02:00
Timing: Current Emulated Cycle: 511, Last IRQ Trigger Cycle: 0, Cycles Since Last IRQ: 511
Emulated Cycles: 511

80F0: A9 01       LDA #$01
CPU State: PC:80F2 A:01 X:0E Y:00 SP:FD Status:25 (NV-B DIZC)
RAM State: $00:00 $01:00 $02:00
Timing: Current Emulated Cycle: 513, Last IRQ Trigger Cycle: 0, Cycles Since Last IRQ: 513
Emulated Cycles: 513

80F2: 8D 11 C0    STA $C011
CPU State: PC:80F5 A:01 X:0E Y:00 SP:FD Status:25 (NV-B DIZC)
RAM State: $00:00 $01:00 $02:00
Timing: Current Emulated Cycle: 517, Last IRQ Trigger Cycle: 0, Cycles Since Last IRQ: 517
Emulated Cycles: 517

80F5: A2 00       LDX #$00
CPU State: PC:80F7 A:01 X:00 Y:00 SP:FD Status:27 (NV-B DIZC)
RAM State: $00:00 $01:00 $02:00
Timing: Current Emulated Cycle: 519, Last IRQ Trigger Cycle: 0, Cycles Since Last IRQ: 519
Emulated Cycles: 519

80F7: BD 7D CF    LDA $CF7D,X
CPU State: PC:80FA A:72 X:00 Y:00 SP:FD Status:25 (NV-B DIZC)
RAM State: $00:00 $01:00 $02:00
Timing: Current Emulated Cycle: 523, Last IRQ Trigger Cycle: 0, Cycles Since Last IRQ: 523
Emulated Cycles: 523

80FA: 9D 12 C0    STA $C012,X
CPU State: PC:80FD A:72 X:00 Y:00 SP:FD Status:25 (NV-B DIZC)
RAM State: $00:00 $01:00 $02:00
Timing: Current Emulated Cycle: 528, Last IRQ Trigger Cycle: 0, Cycles Since Last IRQ: 528
Emulated Cycles: 528

80FD: E8          INX
CPU State: PC:80FE A:72 X:01 Y:00 SP:FD Status:25 (NV-B DIZC)
RAM State: $00:00 $01:00 $02:00
Timing: Current Emulated Cycle: 530, Last IRQ Trigger Cycle: 0, Cycles Since Last IRQ: 530
Emulated Cycles: 530

80FE: E0 0E       CPX #$0E
CPU State: PC:8100 A:72 X:01 Y:00 SP:FD Status:A4 (NV-B DIZC)
RAM State: $00:00 $01:00 $02:00
Timing: Current Emulated Cycle: 532, Last IRQ Trigger Cycle: 0, Cycles Since Last IRQ: 532
Emulated Cycles: 532

8100: D0 F5       BNE $80F7
CPU State: PC:80F7 A:72 X:01 Y:00 SP:FD Status:A4 (NV-B DIZC)
RAM State: $00:00 $01:00 $02:00
Timing: Current Emulated Cycle: 536, Last IRQ Trigger Cycle: 0, Cycles Since Last IRQ: 536
Emulated Cycles: 536

80F7: BD 7D CF    LDA $CF7D,X
CPU State: PC:80FA A:61 X:01 Y:00 SP:FD Status:24 (NV-B DIZC)
RAM State: $00:00 $01:00 $02:00
Timing: Current Emulated Cycle: 540, Last IRQ Trigger Cycle: 0, Cycles Since Last IRQ: 540
Emulated Cycles: 540

80FA: 9D 12 C0    STA $C012,X
CPU State: PC:80FD A:61 X:01 Y:00 SP:FD Status:24 (NV-B DIZC)
RAM State: $00:00 $01:00 $02:00
Timing: Current Emulated Cycle: 545, Last IRQ Trigger Cycle: 0, Cycles Since Last IRQ: 545
Emulated Cycles: 545

80FD: E8          INX
CPU State: PC:80FE A:61 X:02 Y:00 SP:FD Status:24 (NV-B DIZC)
RAM State: $00:00 $01:00 $02:00
Timing: Current Emulated Cycle: 547, Last IRQ Trigger Cycle: 0, Cycles Since Last IRQ: 547
Emulated Cycles: 547

80FE: E0 0E       CPX #$0E
CPU State: PC:8100 A:61 X:02 Y:00 SP:FD Status:A4 (NV-B DIZC)
RAM State: $00:00 $01:00 $02:00
Timing: Current Emulated Cycle: 549, Last IRQ Trigger Cycle: 0, Cycles Since Last IRQ: 549
Emulated Cycles: 549

8100: D0 F5       BNE $80F7
CPU State: PC:80F7 A:61 X:02 Y:00 SP:FD Status:A4 (NV-B DIZC)
RAM State: $00:00 $01:00 $02:00
Timing: Current Emulated Cycle: 553, Last IRQ Trigger Cycle: 0, Cycles Since Last IRQ: 553
Emulated Cycles: 553

80F7: BD 7D CF    LDA $CF7D,X
CPU State: PC:80FA A:6D X:02 Y:00 SP:FD Status:24 (NV-B DIZC)
RAM State: $00:00 $01:00 $02:00
Timing: Current Emulated Cycle: 557, Last IRQ Trigger Cycle: 0, Cycles Since Last IRQ: 557
Emulated Cycles: 557

80FA: 9D 12 C0    STA $C012,X
CPU State: PC:80FD A:6D X:02 Y:00 SP:FD Status:24 (NV-B DIZC)
RAM State: $00:00 $01:00 $02:00
Timing: Current Emulated Cycle: 562, Last IRQ Trigger Cycle: 0, Cycles Since Last IRQ: 562
Emulated Cycles: 562

80FD: E8          INX
CPU State: PC:80FE A:6D X:03 Y:00 SP:FD Status:24 (NV-B DIZC)
RAM State: $00:00 $01:00 $02:00
Timing: Current Emulated Cycle: 564, Last IRQ Trigger Cycle: 0, Cycles Since Last IRQ: 564
Emulated Cycles: 564

80FE: E0 0E       CPX #$0E
CPU State: PC:8100 A:6D X:03 Y:00 SP:FD Status:A4 (NV-B DIZC)
RAM State: $00:00 $01:00 $02:00
Timing: Current Emulated Cycle: 566, Last IRQ Trigger Cycle: 0, Cycles Since Last IRQ: 566
Emulated Cycles: 566

8100: D0 F5       BNE $80F7
CPU State: PC:80F7 A:6D X:03 Y:00 SP:FD Status:A4 (NV-B DIZC)
RAM State: $00:00 $01:00 $02:00
Timing: Current Emulated Cycle: 570, Last IRQ Trigger Cycle: 0, Cycles Since Last IRQ: 570
Emulated Cycles: 570

80F7: BD 7D CF    LDA $CF7D,X
CPU State: PC:80FA A:00 X:03 Y:00 SP:FD Status:26 (NV-B DIZC)
RAM State: $00:00 $01:00 $02:00
Timing: Current Emulated Cycle: 574, Last IRQ Trigger Cycle: 0, Cycles Since Last IRQ: 574
Emulated Cycles: 574

80FA: 9D 12 C0    STA $C012,X
CPU State: PC:80FD A:00 X:03 Y:00 SP:FD Status:26 (NV-B DIZC)
RAM State: $00:00 $01:00 $02:00
Timing: Current Emulated Cycle: 579, Last IRQ Trigger Cycle: 0, Cycles Since Last IRQ: 579
Emulated Cycles: 579

80FD: E8          INX
CPU State: PC:80FE A:00 X:04 Y:00 SP:FD Status:24 (NV-B DIZC)
RAM State: $00:00 $01:00 $02:00
Timing: Current Emulated Cycle: 581, Last IRQ Trigger Cycle: 0, Cycles Since Last IRQ: 581
Emulated Cycles: 581

80FE: E0 0E       CPX #$0E
CPU State: PC:8100 A:00 X:04 Y:00 SP:FD Status:A4 (NV-B DIZC)
RAM State: $00:00 $01:00 $02:00
Timing: Current Emulated Cycle: 583, Last IRQ Trigger Cycle: 0, Cycles Since Last IRQ: 583
Emulated Cycles: 583

8100: D0 F5       BNE $80F7
CPU State: PC:80F7 A:00 X:04 Y:00 SP:FD Status:A4 (NV-B DIZC)
RAM State: $00:00 $01:00 $02:00
Timing: Current Emulated Cycle: 587, Last IRQ Trigger Cycle: 0, Cycles Since Last IRQ: 587
Emulated Cycles: 587

80F7: BD 7D CF    LDA $CF7D,X
CPU State: PC:80FA A:00 X:04 Y:00 SP:FD Status:26 (NV-B DIZC)
RAM State: $00:00 $01:00 $02:00
Timing: Current Emulated Cycle: 591, Last IRQ Trigger Cycle: 0, Cycles Since Last IRQ: 591
Emulated Cycles: 591

80FA: 9D 12 C0    STA $C012,X
CPU State: PC:80FD A:00 X:04 Y:00 SP:FD Status:26 (NV-B DIZC)
RAM State: $00:00 $01:00 $02:00
Timing: Current Emulated Cycle: 596, Last IRQ Trigger Cycle: 0, Cycles Since Last IRQ: 596
Emulated Cycles: 596

80FD: E8          INX
CPU State: PC:80FE A:00 X:05 Y:00 SP:FD Status:24 (NV-B DIZC)
RAM State: $00:00 $01:00 $02:00
Timing: Current Emulated Cycle: 598, Last IRQ Trigger Cycle: 0, Cycles Since Last IRQ: 598
Emulated Cycles: 598

80FE: E0 0E       CPX #$0E
CPU State: PC:8100 A:00 X:05 Y:00 SP:FD Status:A4 (NV-B DIZC)
RAM State: $00:00 $01:00 $02:00
Timing: Current Emulated Cycle: 600, Last IRQ Trigger Cycle: 0, Cycles Since Last IRQ: 600
Emulated Cycles: 600

8100: D0 F5       BNE $80F7
CPU State: PC:80F7 A:00 X:05 Y:00 SP:FD Status:A4 (NV-B DIZC)
RAM State: $00:00 $01:00 $02:00
Timing: Current Emulated Cycle: 604, Last IRQ Trigger Cycle: 0, Cycles Since Last IRQ: 604
Emulated Cycles: 604

80F7: BD 7D CF    LDA $CF7D,X
CPU State: PC:80FA A:00 X:05 Y:00 SP:FD Status:26 (NV-B DIZC)
RAM State: $00:00 $01:00 $02:00
Timing: Current Emulated Cycle: 608, Last IRQ Trigger Cycle: 0, Cycles Since Last IRQ: 608
Emulated Cycles: 608

80FA: 9D 12 C0    STA $C012,X
CPU State: PC:80FD A:00 X:05 Y:00 SP:FD Status:26 (NV-B DIZC)
RAM State: $00:00 $01:00 $02:00
Timing: Current Emulated Cycle: 613, Last IRQ Trigger Cycle: 0, Cycles Since Last IRQ: 613
Emulated Cycles: 613

80FD: E8          INX
CPU State: PC:80FE A:00 X:06 Y:00 SP:FD Status:24 (NV-B DIZC)
RAM State: $00:00 $01:00 $02:00
Timing: Current Emulated Cycle: 615, Last IRQ Trigger Cycle: 0, Cycles Since Last IRQ: 615
Emulated Cycles: 615

80FE: E0 0E       CPX #$0E
CPU State: PC:8100 A:00 X:06 Y:00 SP:FD Status:A4 (NV-B DIZC)
RAM State: $00:00 $01:00 $02:00
Timing: Current Emulated Cycle: 617, Last IRQ Trigger Cycle: 0, Cycles Since Last IRQ: 617
Emulated Cycles: 617

8100: D0 F5       BNE $80F7
CPU State: PC:80F7 A:00 X:06 Y:00 SP:FD Status:A4 (NV-B DIZC)
RAM State: $00:00 $01:00 $02:00
Timing: Current Emulated Cycle: 621, Last IRQ Trigger Cycle: 0, Cycles Since Last IRQ: 621
Emulated Cycles: 621

80F7: BD 7D CF    LDA $CF7D,X
CPU State: PC:80FA A:00 X:06 Y:00 SP:FD Status:26 (NV-B DIZC)
RAM State: $00:00 $01:00 $02:00
Timing: Current Emulated Cycle: 625, Last IRQ Trigger Cycle: 0, Cycles Since Last IRQ: 625
Emulated Cycles: 625

80FA: 9D 12 C0    STA $C012,X
CPU State: PC:80FD A:00 X:06 Y:00 SP:FD Status:26 (NV-B DIZC)
RAM State: $00:00 $01:00 $02:00
Timing: Current Emulated Cycle: 630, Last IRQ Trigger Cycle: 0, Cycles Since Last IRQ: 630
Emulated Cycles: 630

80FD: E8          INX
CPU State: PC:80FE A:00 X:07 Y:00 SP:FD Status:24 (NV-B DIZC)
RAM State: $00:00 $01:00 $02:00
Timing: Current Emulated Cycle: 632, Last IRQ Trigger Cycle: 0, Cycles Since Last IRQ: 632
Emulated Cycles: 632

80FE: E0 0E       CPX #$0E
CPU State: PC:8100 A:00 X:07 Y:00 SP:FD Status:A4 (NV-B DIZC)
RAM State: $00:00 $01:00 $02:00
Timing: Current Emulated Cycle: 634, Last IRQ Trigger Cycle: 0, Cycles Since Last IRQ: 634
Emulated Cycles: 634

8100: D0 F5       BNE $80F7
CPU State: PC:80F7 A:00 X:07 Y:00 SP:FD Status:A4 (NV-B DIZC)
RAM State: $00:00 $01:00 $02:00
Timing: Current Emulated Cycle: 638, Last IRQ Trigger Cycle: 0, Cycles Since Last IRQ: 638
Emulated Cycles: 638

80F7: BD 7D CF    LDA $CF7D,X
CPU State: PC:80FA A:00 X:07 Y:00 SP:FD Status:26 (NV-B DIZC)
RAM State: $00:00 $01:00 $02:00
Timing: Current Emulated Cycle: 642, Last IRQ Trigger Cycle: 0, Cycles Since Last IRQ: 642
Emulated Cycles: 642

80FA: 9D 12 C0    STA $C012,X
CPU State: PC:80FD A:00 X:07 Y:00 SP:FD Status:26 (NV-B DIZC)
RAM State: $00:00 $01:00 $02:00
Timing: Current Emulated Cycle: 647, Last IRQ Trigger Cycle: 0, Cycles Since Last IRQ: 647
Emulated Cycles: 647

80FD: E8          INX
CPU State: PC:80FE A:00 X:08 Y:00 SP:FD Status:24 (NV-B DIZC)
RAM State: $00:00 $01:00 $02:00
Timing: Current Emulated Cycle: 649, Last IRQ Trigger Cycle: 0, Cycles Since Last IRQ: 649
Emulated Cycles: 649

80FE: E0 0E       CPX #$0E
CPU State: PC:8100 A:00 X:08 Y:00 SP:FD Status:A4 (NV-B DIZC)
RAM State: $00:00 $01:00 $02:00
Timing: Current Emulated Cycle: 651, Last IRQ Trigger Cycle: 0, Cycles Since Last IRQ: 651
Emulated Cycles: 651

8100: D0 F5       BNE $80F7
CPU State: PC:80F7 A:00 X:08 Y:00 SP:FD Status:A4 (NV-B DIZC)
RAM State: $00:00 $01:00 $02:00
Timing: Current Emulated Cycle: 655, Last IRQ Trigger Cycle: 0, Cycles Since Last IRQ: 655
Emulated Cycles: 655

80F7: BD 7D CF    LDA $CF7D,X
CPU State: PC:80FA A:00 X:08 Y:00 SP:FD Status:26 (NV-B DIZC)
RAM State: $00:00 $01:00 $02:00
Timing: Current Emulated Cycle: 659, Last IRQ Trigger Cycle: 0, Cycles Since Last IRQ: 659
Emulated Cycles: 659

80FA: 9D 12 C0    STA $C012,X
CPU State: PC:80FD A:00 X:08 Y:00 SP:FD Status:26 (NV-B DIZC)
RAM State: $00:00 $01:00 $02:00
Timing: Current Emulated Cycle: 664, Last IRQ Trigger Cycle: 0, Cycles Since Last IRQ: 664
Emulated Cycles: 664

80FD: E8          INX
CPU State: PC:80FE A:00 X:09 Y:00 SP:FD Status:24 (NV-B DIZC)
RAM State: $00:00 $01:00 $02:00
Timing: Current Emulated Cycle: 666, Last IRQ Trigger Cycle: 0, Cycles Since Last IRQ: 666
Emulated Cycles: 666

80FE: E0 0E       CPX #$0E
CPU State: PC:8100 A:00 X:09 Y:00 SP:FD Status:A4 (NV-B DIZC)
RAM State: $00:00 $01:00 $02:00
Timing: Current Emulated Cycle: 668, Last IRQ Trigger Cycle: 0, Cycles Since Last IRQ: 668
Emulated Cycles: 668

8100: D0 F5       BNE $80F7
CPU State: PC:80F7 A:00 X:09 Y:00 SP:FD Status:A4 (NV-B DIZC)
RAM State: $00:00 $01:00 $02:00
Timing: Current Emulated Cycle: 672, Last IRQ Trigger Cycle: 0, Cycles Since Last IRQ: 672
Emulated Cycles: 672

80F7: BD 7D CF    LDA $CF7D,X
CPU State: PC:80FA A:00 X:09 Y:00 SP:FD Status:26 (NV-B DIZC)
RAM State: $00:00 $01:00 $02:00
Timing: Current Emulated Cycle: 676, Last IRQ Trigger Cycle: 0, Cycles Since Last IRQ: 676
Emulated Cycles: 676

80FA: 9D 12 C0    STA $C012,X
CPU State: PC:80FD A:00 X:09 Y:00 SP:FD Status:26 (NV-B DIZC)
RAM State: $00:00 $01:00 $02:00
Timing: Current Emulated Cycle: 681, Last IRQ Trigger Cycle: 0, Cycles Since Last IRQ: 681
Emulated Cycles: 681

80FD: E8          INX
CPU State: PC:80FE A:00 X:0A Y:00 SP:FD Status:24 (NV-B DIZC)
RAM State: $00:00 $01:00 $02:00
Timing: Current Emulated Cycle: 683, Last IRQ Trigger Cycle: 0, Cycles Since Last IRQ: 683
Emulated Cycles: 683

80FE: E0 0E       CPX #$0E
CPU State: PC:8100 A:00 X:0A Y:00 SP:FD Status:A4 (NV-B DIZC)
RAM State: $00:00 $01:00 $02:00
Timing: Current Emulated Cycle: 685, Last IRQ Trigger Cycle: 0, Cycles Since Last IRQ: 685
Emulated Cycles: 685

8100: D0 F5       BNE $80F7
CPU State: PC:80F7 A:00 X:0A Y:00 SP:FD Status:A4 (NV-B DIZC)
RAM State: $00:00 $01:00 $02:00
Timing: Current Emulated Cycle: 689, Last IRQ Trigger Cycle: 0, Cycles Since Last IRQ: 689
Emulated Cycles: 689

80F7: BD 7D CF    LDA $CF7D,X
CPU State: PC:80FA A:00 X:0A Y:00 SP:FD Status:26 (NV-B DIZC)
RAM State: $00:00 $01:00 $02:00
Timing: Current Emulated Cycle: 693, Last IRQ Trigger Cycle: 0, Cycles Since Last IRQ: 693
Emulated Cycles: 693

80FA: 9D 12 C0    STA $C012,X
CPU State: PC:80FD A:00 X:0A Y:00 SP:FD Status:26 (NV-B DIZC)
RAM State: $00:00 $01:00 $02:00
Timing: Current Emulated Cycle: 698, Last IRQ Trigger Cycle: 0, Cycles Since Last IRQ: 698
Emulated Cycles: 698

80FD: E8          INX
CPU State: PC:80FE A:00 X:0B Y:00 SP:FD Status:24 (NV-B DIZC)
RAM State: $00:00 $01:00 $02:00
Timing: Current Emulated Cycle: 700, Last IRQ Trigger Cycle: 0, Cycles Since Last IRQ: 700
Emulated Cycles: 700

80FE: E0 0E       CPX #$0E
CPU State: PC:8100 A:00 X:0B Y:00 SP:FD Status:A4 (NV-B DIZC)
RAM State: $00:00 $01:00 $02:00
Timing: Current Emulated Cycle: 702, Last IRQ Trigger Cycle: 0, Cycles Since Last IRQ: 702
Emulated Cycles: 702

8100: D0 F5       BNE $80F7
CPU State: PC:80F7 A:00 X:0B Y:00 SP:FD Status:A4 (NV-B DIZC)
RAM State: $00:00 $01:00 $02:00
Timing: Current Emulated Cycle: 706, Last IRQ Trigger Cycle: 0, Cycles Since Last IRQ: 706
Emulated Cycles: 706

80F7: BD 7D CF    LDA $CF7D,X
CPU State: PC:80FA A:00 X:0B Y:00 SP:FD Status:26 (NV-B DIZC)
RAM State: $00:00 $01:00 $02:00
Timing: Current Emulated Cycle: 710, Last IRQ Trigger Cycle: 0, Cycles Since Last IRQ: 710
Emulated Cycles: 710

80FA: 9D 12 C0    STA $C012,X
CPU State: PC:80FD A:00 X:0B Y:00 SP:FD Status:26 (NV-B DIZC)
RAM State: $00:00 $01:00 $02:00
Timing: Current Emulated Cycle: 715, Last IRQ Trigger Cycle: 0, Cycles Since Last IRQ: 715
Emulated Cycles: 715

80FD: E8          INX
CPU State: PC:80FE A:00 X:0C Y:00 SP:FD Status:24 (NV-B DIZC)
RAM State: $00:00 $01:00 $02:00
Timing: Current Emulated Cycle: 717, Last IRQ Trigger Cycle: 0, Cycles Since Last IRQ: 717
Emulated Cycles: 717

80FE: E0 0E       CPX #$0E
CPU State: PC:8100 A:00 X:0C Y:00 SP:FD Status:A4 (NV-B DIZC)
RAM State: $00:00 $01:00 $02:00
Timing: Current Emulated Cycle: 719, Last IRQ Trigger Cycle: 0, Cycles Since Last IRQ: 719
Emulated Cycles: 719

8100: D0 F5       BNE $80F7
CPU State: PC:80F7 A:00 X:0C Y:00 SP:FD Status:A4 (NV-B DIZC)
RAM State: $00:00 $01:00 $02:00
Timing: Current Emulated Cycle: 723, Last IRQ Trigger Cycle: 0, Cycles Since Last IRQ: 723
Emulated Cycles: 723

80F7: BD 7D CF    LDA $CF7D,X
CPU State: PC:80FA A:00 X:0C Y:00 SP:FD Status:26 (NV-B DIZC)
RAM State: $00:00 $01:00 $02:00
Timing: Current Emulated Cycle: 727, Last IRQ Trigger Cycle: 0, Cycles Since Last IRQ: 727
Emulated Cycles: 727

80FA: 9D 12 C0    STA $C012,X
CPU State: PC:80FD A:00 X:0C Y:00 SP:FD Status:26 (NV-B DIZC)
RAM State: $00:00 $01:00 $02:00
Timing: Current Emulated Cycle: 732, Last IRQ Trigger Cycle: 0, Cycles Since Last IRQ: 732
Emulated Cycles: 732

80FD: E8          INX
CPU State: PC:80FE A:00 X:0D Y:00 SP:FD Status:24 (NV-B DIZC)
RAM State: $00:00 $01:00 $02:00
Timing: Current Emulated Cycle: 734, Last IRQ Trigger Cycle: 0, Cycles Since Last IRQ: 734
Emulated Cycles: 734

80FE: E0 0E       CPX #$0E
CPU State: PC:8100 A:00 X:0D Y:00 SP:FD Status:A4 (NV-B DIZC)
RAM State: $00:00 $01:00 $02:00
Timing: Current Emulated Cycle: 736, Last IRQ Trigger Cycle: 0, Cycles Since Last IRQ: 736
Emulated Cycles: 736

8100: D0 F5       BNE $80F7
CPU State: PC:80F7 A:00 X:0D Y:00 SP:FD Status:A4 (NV-B DIZC)
RAM State: $00:00 $01:00 $02:00
Timing: Current Emulated Cycle: 740, Last IRQ Trigger Cycle: 0, Cycles Since Last IRQ: 740
Emulated Cycles: 740

80F7: BD 7D CF    LDA $CF7D,X
CPU State: PC:80FA A:00 X:0D Y:00 SP:FD Status:26 (NV-B DIZC)
RAM State: $00:00 $01:00 $02:00
Timing: Current Emulated Cycle: 744, Last IRQ Trigger Cycle: 0, Cycles Since Last IRQ: 744
Emulated Cycles: 744

80FA: 9D 12 C0    STA $C012,X
CPU State: PC:80FD A:00 X:0D Y:00 SP:FD Status:26 (NV-B DIZC)
RAM State: $00:00 $01:00 $02:00
Timing: Current Emulated Cycle: 749, Last IRQ Trigger Cycle: 0, Cycles Since Last IRQ: 749
Emulated Cycles: 749

80FD: E8          INX
CPU State: PC:80FE A:00 X:0E Y:00 SP:FD Status:24 (NV-B DIZC)
RAM State: $00:00 $01:00 $02:00
Timing: Current Emulated Cycle: 751, Last IRQ Trigger Cycle: 0, Cycles Since Last IRQ: 751
Emulated Cycles: 751

80FE: E0 0E       CPX #$0E
CPU State: PC:8100 A:00 X:0E Y:00 SP:FD Status:27 (NV-B DIZC)
RAM State: $00:00 $01:00 $02:00
Timing: Current Emulated Cycle: 753, Last IRQ Trigger Cycle: 0, Cycles Since Last IRQ: 753
Emulated Cycles: 753

8100: D0 F5       BNE $80F7
CPU State: PC:8102 A:00 X:0E Y:00 SP:FD Status:27 (NV-B DIZC)
RAM State: $00:00 $01:00 $02:00
Timing: Current Emulated Cycle: 755, Last IRQ Trigger Cycle: 0, Cycles Since Last IRQ: 755
Emulated Cycles: 755

8102: A9 03       LDA #$03
CPU State: PC:8104 A:03 X:0E Y:00 SP:FD Status:25 (NV-B DIZC)
RAM State: $00:00 $01:00 $02:00
Timing: Current Emulated Cycle: 757, Last IRQ Trigger Cycle: 0, Cycles Since Last IRQ: 757
Emulated Cycles: 757

8104: 8D 20 C0    STA $C020
CPU State: PC:8107 A:03 X:0E Y:00 SP:FD Status:25 (NV-B DIZC)
RAM State: $00:00 $01:00 $02:00
Timing: Current Emulated Cycle: 761, Last IRQ Trigger Cycle: 0, Cycles Since Last IRQ: 761
Emulated Cycles: 761

8107: A9 01       LDA #$01
CPU State: PC:8109 A:01 X:0E Y:00 SP:FD Status:25 (NV-B DIZC)
RAM State: $00:00 $01:00 $02:00
Timing: Current Emulated Cycle: 763, Last IRQ Trigger Cycle: 0, Cycles Since Last IRQ: 763
Emulated Cycles: 763

8109: 8D 21 C0    STA $C021
CPU State: PC:810C A:01 X:0E Y:00 SP:FD Status:25 (NV-B DIZC)
RAM State: $00:00 $01:00 $02:00
Timing: Current Emulated Cycle: 767, Last IRQ Trigger Cycle: 0, Cycles Since Last IRQ: 767
Emulated Cycles: 767

810C: A2 00       LDX #$00
CPU State: PC:810E A:01 X:00 Y:00 SP:FD Status:27 (NV-B DIZC)
RAM State: $00:00 $01:00 $02:00
Timing: Current Emulated Cycle: 769, Last IRQ Trigger Cycle: 0, Cycles Since Last IRQ: 769
Emulated Cycles: 769

810E: BD 8B CF    LDA $CF8B,X
CPU State: PC:8111 A:72 X:00 Y:00 SP:FD Status:25 (NV-B DIZC)
RAM State: $00:00 $01:00 $02:00
Timing: Current Emulated Cycle: 773, Last IRQ Trigger Cycle: 0, Cycles Since Last IRQ: 773
Emulated Cycles: 773

8111: 9D 22 C0    STA $C022,X
CPU State: PC:8114 A:72 X:00 Y:00 SP:FD Status:25 (NV-B DIZC)
RAM State: $00:00 $01:00 $02:00
Timing: Current Emulated Cycle: 778, Last IRQ Trigger Cycle: 0, Cycles Since Last IRQ: 778
Emulated Cycles: 778

8114: E8          INX
CPU State: PC:8115 A:72 X:01 Y:00 SP:FD Status:25 (NV-B DIZC)
RAM State: $00:00 $01:00 $02:00
Timing: Current Emulated Cycle: 780, Last IRQ Trigger Cycle: 0, Cycles Since Last IRQ: 780
Emulated Cycles: 780

8115: E0 0E       CPX #$0E
CPU State: PC:8117 A:72 X:01 Y:00 SP:FD Status:A4 (NV-B DIZC)
RAM State: $00:00 $01:00 $02:00
Timing: Current Emulated Cycle: 782, Last IRQ Trigger Cycle: 0, Cycles Since Last IRQ: 782
Emulated Cycles: 782

8117: D0 F5       BNE $810E
CPU State: PC:810E A:72 X:01 Y:00 SP:FD Status:A4 (NV-B DIZC)
RAM State: $00:00 $01:00 $02:00
Timing: Current Emulated Cycle: 785, Last IRQ Trigger Cycle: 0, Cycles Since Last IRQ: 785
Emulated Cycles: 785

810E: BD 8B CF    LDA $CF8B,X
CPU State: PC:8111 A:6F X:01 Y:00 SP:FD Status:24 (NV-B DIZC)
RAM State: $00:00 $01:00 $02:00
Timing: Current Emulated Cycle: 789, Last IRQ Trigger Cycle: 0, Cycles Since Last IRQ: 789
Emulated Cycles: 789

8111: 9D 22 C0    STA $C022,X
CPU State: PC:8114 A:6F X:01 Y:00 SP:FD Status:24 (NV-B DIZC)
RAM State: $00:00 $01:00 $02:00
Timing: Current Emulated Cycle: 794, Last IRQ Trigger Cycle: 0, Cycles Since Last IRQ: 794
Emulated Cycles: 794

8114: E8          INX
CPU State: PC:8115 A:6F X:02 Y:00 SP:FD Status:24 (NV-B DIZC)
RAM State: $00:00 $01:00 $02:00
Timing: Current Emulated Cycle: 796, Last IRQ Trigger Cycle: 0, Cycles Since Last IRQ: 796
Emulated Cycles: 796

8115: E0 0E       CPX #$0E
CPU State: PC:8117 A:6F X:02 Y:00 SP:FD Status:A4 (NV-B DIZC)
RAM State: $00:00 $01:00 $02:00
Timing: Current Emulated Cycle: 798, Last IRQ Trigger Cycle: 0, Cycles Since Last IRQ: 798
Emulated Cycles: 798

8117: D0 F5       BNE $810E
CPU State: PC:810E A:6F X:02 Y:00 SP:FD Status:A4 (NV-B DIZC)
RAM State: $00:00 $01:00 $02:00
Timing: Current Emulated Cycle: 801, Last IRQ Trigger Cycle: 0, Cycles Since Last IRQ: 801
Emulated Cycles: 801

810E: BD 8B CF    LDA $CF8B,X
CPU State: PC:8111 A:6D X:02 Y:00 SP:FD Status:24 (NV-B DIZC)
RAM State: $00:00 $01:00 $02:00
Timing: Current Emulated Cycle: 805, Last IRQ Trigger Cycle: 0, Cycles Since Last IRQ: 805
Emulated Cycles: 805

8111: 9D 22 C0    STA $C022,X
CPU State: PC:8114 A:6D X:02 Y:00 SP:FD Status:24 (NV-B DIZC)
RAM State: $00:00 $01:00 $02:00
Timing: Current Emulated Cycle: 810, Last IRQ Trigger Cycle: 0, Cycles Since Last IRQ: 810
Emulated Cycles: 810

8114: E8          INX
CPU State: PC:8115 A:6D X:03 Y:00 SP:FD Status:24 (NV-B DIZC)
RAM State: $00:00 $01:00 $02:00
Timing: Current Emulated Cycle: 812, Last IRQ Trigger Cycle: 0, Cycles Since Last IRQ: 812
Emulated Cycles: 812

8115: E0 0E       CPX #$0E
CPU State: PC:8117 A:6D X:03 Y:00 SP:FD Status:A4 (NV-B DIZC)
RAM State: $00:00 $01:00 $02:00
Timing: Current Emulated Cycle: 814, Last IRQ Trigger Cycle: 0, Cycles Since Last IRQ: 814
Emulated Cycles: 814

8117: D0 F5       BNE $810E
CPU State: PC:810E A:6D X:03 Y:00 SP:FD Status:A4 (NV-B DIZC)
RAM State: $00:00 $01:00 $02:00
Timing: Current Emulated Cycle: 817, Last IRQ Trigger Cycle: 0, Cycles Since Last IRQ: 817
Emulated Cycles: 817

810E: BD 8B CF    LDA $CF8B,X
CPU State: PC:8111 A:00 X:03 Y:00 SP:FD Status:26 (NV-B DIZC)
RAM State: $00:00 $01:00 $02:00
Timing: Current Emulated Cycle: 821, Last IRQ Trigger Cycle: 0, Cycles Since Last IRQ: 821
Emulated Cycles: 821

8111: 9D 22 C0    STA $C022,X
CPU State: PC:8114 A:00 X:03 Y:00 SP:FD Status:26 (NV-B DIZC)
RAM State: $00:00 $01:00 $02:00
Timing: Current Emulated Cycle: 826, Last IRQ Trigger Cycle: 0, Cycles Since Last IRQ: 826
Emulated Cycles: 826

8114: E8          INX
CPU State: PC:8115 A:00 X:04 Y:00 SP:FD Status:24 (NV-B DIZC)
RAM State: $00:00 $01:00 $02:00
Timing: Current Emulated Cycle: 828, Last IRQ Trigger Cycle: 0, Cycles Since Last IRQ: 828
Emulated Cycles: 828

8115: E0 0E       CPX #$0E
CPU State: PC:8117 A:00 X:04 Y:00 SP:FD Status:A4 (NV-B DIZC)
RAM State: $00:00 $01:00 $02:00
Timing: Current Emulated Cycle: 830, Last IRQ Trigger Cycle: 0, Cycles Since Last IRQ: 830
Emulated Cycles: 830

8117: D0 F5       BNE $810E
CPU State: PC:810E A:00 X:04 Y:00 SP:FD Status:A4 (NV-B DIZC)
RAM State: $00:00 $01:00 $02:00
Timing: Current Emulated Cycle: 833, Last IRQ Trigger Cycle: 0, Cycles Since Last IRQ: 833
Emulated Cycles: 833

810E: BD 8B CF    LDA $CF8B,X
CPU State: PC:8111 A:00 X:04 Y:00 SP:FD Status:26 (NV-B DIZC)
RAM State: $00:00 $01:00 $02:00
Timing: Current Emulated Cycle: 837, Last IRQ Trigger Cycle: 0, Cycles Since Last IRQ: 837
Emulated Cycles: 837

8111: 9D 22 C0    STA $C022,X
CPU State: PC:8114 A:00 X:04 Y:00 SP:FD Status:26 (NV-B DIZC)
RAM State: $00:00 $01:00 $02:00
Timing: Current Emulated Cycle: 842, Last IRQ Trigger Cycle: 0, Cycles Since Last IRQ: 842
Emulated Cycles: 842

8114: E8          INX
CPU State: PC:8115 A:00 X:05 Y:00 SP:FD Status:24 (NV-B DIZC)
RAM State: $00:00 $01:00 $02:00
Timing: Current Emulated Cycle: 844, Last IRQ Trigger Cycle: 0, Cycles Since Last IRQ: 844
Emulated Cycles: 844

8115: E0 0E       CPX #$0E
CPU State: PC:8117 A:00 X:05 Y:00 SP:FD Status:A4 (NV-B DIZC)
RAM State: $00:00 $01:00 $02:00
Timing: Current Emulated Cycle: 846, Last IRQ Trigger Cycle: 0, Cycles Since Last IRQ: 846
Emulated Cycles: 846

8117: D0 F5       BNE $810E
CPU State: PC:810E A:00 X:05 Y:00 SP:FD Status:A4 (NV-B DIZC)
RAM State: $00:00 $01:00 $02:00
Timing: Current Emulated Cycle: 849, Last IRQ Trigger Cycle: 0, Cycles Since Last IRQ: 849
Emulated Cycles: 849

810E: BD 8B CF    LDA $CF8B,X
CPU State: PC:8111 A:00 X:05 Y:00 SP:FD Status:26 (NV-B DIZC)
RAM State: $00:00 $01:00 $02:00
Timing: Current Emulated Cycle: 853, Last IRQ Trigger Cycle: 0, Cycles Since Last IRQ: 853
Emulated Cycles: 853

8111: 9D 22 C0    STA $C022,X
CPU State: PC:8114 A:00 X:05 Y:00 SP:FD Status:26 (NV-B DIZC)
RAM State: $00:00 $01:00 $02:00
Timing: Current Emulated Cycle: 858, Last IRQ Trigger Cycle: 0, Cycles Since Last IRQ: 858
Emulated Cycles: 858

8114: E8          INX
CPU State: PC:8115 A:00 X:06 Y:00 SP:FD Status:24 (NV-B DIZC)
RAM State: $00:00 $01:00 $02:00
Timing: Current Emulated Cycle: 860, Last IRQ Trigger Cycle: 0, Cycles Since Last IRQ: 860
Emulated Cycles: 860

8115: E0 0E       CPX #$0E
CPU State: PC:8117 A:00 X:06 Y:00 SP:FD Status:A4 (NV-B DIZC)
RAM State: $00:00 $01:00 $02:00
Timing: Current Emulated Cycle: 862, Last IRQ Trigger Cycle: 0, Cycles Since Last IRQ: 862
Emulated Cycles: 862

8117: D0 F5       BNE $810E
CPU State: PC:810E A:00 X:06 Y:00 SP:FD Status:A4 (NV-B DIZC)
RAM State: $00:00 $01:00 $02:00
Timing: Current Emulated Cycle: 865, Last IRQ Trigger Cycle: 0, Cycles Since Last IRQ: 865
Emulated Cycles: 865

810E: BD 8B CF    LDA $CF8B,X
CPU State: PC:8111 A:00 X:06 Y:00 SP:FD Status:26 (NV-B DIZC)
RAM State: $00:00 $01:00 $02:00
Timing: Current Emulated Cycle: 869, Last IRQ Trigger Cycle: 0, Cycles Since Last IRQ: 869
Emulated Cycles: 869

8111: 9D 22 C0    STA $C022,X
CPU State: PC:8114 A:00 X:06 Y:00 SP:FD Status:26 (NV-B DIZC)
RAM State: $00:00 $01:00 $02:00
Timing: Current Emulated Cycle: 874, Last IRQ Trigger Cycle: 0, Cycles Since Last IRQ: 874
Emulated Cycles: 874

8114: E8          INX
CPU State: PC:8115 A:00 X:07 Y:00 SP:FD Status:24 (NV-B DIZC)
RAM State: $00:00 $01:00 $02:00
Timing: Current Emulated Cycle: 876, Last IRQ Trigger Cycle: 0, Cycles Since Last IRQ: 876
Emulated Cycles: 876

8115: E0 0E       CPX #$0E
CPU State: PC:8117 A:00 X:07 Y:00 SP:FD Status:A4 (NV-B DIZC)
RAM State: $00:00 $01:00 $02:00
Timing: Current Emulated Cycle: 878, Last IRQ Trigger Cycle: 0, Cycles Since Last IRQ: 878
Emulated Cycles: 878

8117: D0 F5       BNE $810E
CPU State: PC:810E A:00 X:07 Y:00 SP:FD Status:A4 (NV-B DIZC)
RAM State: $00:00 $01:00 $02:00
Timing: Current Emulated Cycle: 881, Last IRQ Trigger Cycle: 0, Cycles Since Last IRQ: 881
Emulated Cycles: 881

810E: BD 8B CF    LDA $CF8B,X
CPU State: PC:8111 A:00 X:07 Y:00 SP:FD Status:26 (NV-B DIZC)
RAM State: $00:00 $01:00 $02:00
Timing: Current Emulated Cycle: 885, Last IRQ Trigger Cycle: 0, Cycles Since Last IRQ: 885
Emulated Cycles: 885

8111: 9D 22 C0    STA $C022,X
CPU State: PC:8114 A:00 X:07 Y:00 SP:FD Status:26 (NV-B DIZC)
RAM State: $00:00 $01:00 $02:00
Timing: Current Emulated Cycle: 890, Last IRQ Trigger Cycle: 0, Cycles Since Last IRQ: 890
Emulated Cycles: 890

8114: E8          INX
CPU State: PC:8115 A:00 X:08 Y:00 SP:FD Status:24 (NV-B DIZC)
RAM State: $00:00 $01:00 $02:00
Timing: Current Emulated Cycle: 892, Last IRQ Trigger Cycle: 0, Cycles Since Last IRQ: 892
Emulated Cycles: 892

8115: E0 0E       CPX #$0E
CPU State: PC:8117 A:00 X:08 Y:00 SP:FD Status:A4 (NV-B DIZC)
RAM State: $00:00 $01:00 $02:00
Timing: Current Emulated Cycle: 894, Last IRQ Trigger Cycle: 0, Cycles Since Last IRQ: 894
Emulated Cycles: 894

8117: D0 F5       BNE $810E
CPU State: PC:810E A:00 X:08 Y:00 SP:FD Status:A4 (NV-B DIZC)
RAM State: $00:00 $01:00 $02:00
Timing: Current Emulated Cycle: 897, Last IRQ Trigger Cycle: 0, Cycles Since Last IRQ: 897
Emulated Cycles: 897

810E: BD 8B CF    LDA $CF8B,X
CPU State: PC:8111 A:00 X:08 Y:00 SP:FD Status:26 (NV-B DIZC)
RAM State: $00:00 $01:00 $02:00
Timing: Current Emulated Cycle: 901, Last IRQ Trigger Cycle: 0, Cycles Since Last IRQ: 901
Emulated Cycles: 901

8111: 9D 22 C0    STA $C022,X
CPU State: PC:8114 A:00 X:08 Y:00 SP:FD Status:26 (NV-B DIZC)
RAM State: $00:00 $01:00 $02:00
Timing: Current Emulated Cycle: 906, Last IRQ Trigger Cycle: 0, Cycles Since Last IRQ: 906
Emulated Cycles: 906

8114: E8          INX
CPU State: PC:8115 A:00 X:09 Y:00 SP:FD Status:24 (NV-B DIZC)
RAM State: $00:00 $01:00 $02:00
Timing: Current Emulated Cycle: 908, Last IRQ Trigger Cycle: 0, Cycles Since Last IRQ: 908
Emulated Cycles: 908

8115: E0 0E       CPX #$0E
CPU State: PC:8117 A:00 X:09 Y:00 SP:FD Status:A4 (NV-B DIZC)
RAM State: $00:00 $01:00 $02:00
Timing: Current Emulated Cycle: 910, Last IRQ Trigger Cycle: 0, Cycles Since Last IRQ: 910
Emulated Cycles: 910

8117: D0 F5       BNE $810E
CPU State: PC:810E A:00 X:09 Y:00 SP:FD Status:A4 (NV-B DIZC)
RAM State: $00:00 $01:00 $02:00
Timing: Current Emulated Cycle: 913, Last IRQ Trigger Cycle: 0, Cycles Since Last IRQ: 913
Emulated Cycles: 913

810E: BD 8B CF    LDA $CF8B,X
CPU State: PC:8111 A:00 X:09 Y:00 SP:FD Status:26 (NV-B DIZC)
RAM State: $00:00 $01:00 $02:00
Timing: Current Emulated Cycle: 917, Last IRQ Trigger Cycle: 0, Cycles Since Last IRQ: 917
Emulated Cycles: 917

8111: 9D 22 C0    STA $C022,X
CPU State: PC:8114 A:00 X:09 Y:00 SP:FD Status:26 (NV-B DIZC)
RAM State: $00:00 $01:00 $02:00
Timing: Current Emulated Cycle: 922, Last IRQ Trigger Cycle: 0, Cycles Since Last IRQ: 922
Emulated Cycles: 922

8114: E8          INX
CPU State: PC:8115 A:00 X:0A Y:00 SP:FD Status:24 (NV-B DIZC)
RAM State: $00:00 $01:00 $02:00
Timing: Current Emulated Cycle: 924, Last IRQ Trigger Cycle: 0, Cycles Since Last IRQ: 924
Emulated Cycles: 924

8115: E0 0E       CPX #$0E
CPU State: PC:8117 A:00 X:0A Y:00 SP:FD Status:A4 (NV-B DIZC)
RAM State: $00:00 $01:00 $02:00
Timing: Current Emulated Cycle: 926, Last IRQ Trigger Cycle: 0, Cycles Since Last IRQ: 926
Emulated Cycles: 926

8117: D0 F5       BNE $810E
CPU State: PC:810E A:00 X:0A Y:00 SP:FD Status:A4 (NV-B DIZC)
RAM State: $00:00 $01:00 $02:00
Timing: Current Emulated Cycle: 929, Last IRQ Trigger Cycle: 0, Cycles Since Last IRQ: 929
Emulated Cycles: 929

810E: BD 8B CF    LDA $CF8B,X
CPU State: PC:8111 A:00 X:0A Y:00 SP:FD Status:26 (NV-B DIZC)
RAM State: $00:00 $01:00 $02:00
Timing: Current Emulated Cycle: 933, Last IRQ Trigger Cycle: 0, Cycles Since Last IRQ: 933
Emulated Cycles: 933

8111: 9D 22 C0    STA $C022,X
CPU State: PC:8114 A:00 X:0A Y:00 SP:FD Status:26 (NV-B DIZC)
RAM State: $00:00 $01:00 $02:00
Timing: Current Emulated Cycle: 938, Last IRQ Trigger Cycle: 0, Cycles Since Last IRQ: 938
Emulated Cycles: 938

8114: E8          INX
CPU State: PC:8115 A:00 X:0B Y:00 SP:FD Status:24 (NV-B DIZC)
RAM State: $00:00 $01:00 $02:00
Timing: Current Emulated Cycle: 940, Last IRQ Trigger Cycle: 0, Cycles Since Last IRQ: 940
Emulated Cycles: 940

8115: E0 0E       CPX #$0E
CPU State: PC:8117 A:00 X:0B Y:00 SP:FD Status:A4 (NV-B DIZC)
RAM State: $00:00 $01:00 $02:00
Timing: Current Emulated Cycle: 942, Last IRQ Trigger Cycle: 0, Cycles Since Last IRQ: 942
Emulated Cycles: 942

8117: D0 F5       BNE $810E
CPU State: PC:810E A:00 X:0B Y:00 SP:FD Status:A4 (NV-B DIZC)
RAM State: $00:00 $01:00 $02:00
Timing: Current Emulated Cycle: 945, Last IRQ Trigger Cycle: 0, Cycles Since Last IRQ: 945
Emulated Cycles: 945

810E: BD 8B CF    LDA $CF8B,X
CPU State: PC:8111 A:00 X:0B Y:00 SP:FD Status:26 (NV-B DIZC)
RAM State: $00:00 $01:00 $02:00
Timing: Current Emulated Cycle: 949, Last IRQ Trigger Cycle: 0, Cycles Since Last IRQ: 949
Emulated Cycles: 949

8111: 9D 22 C0    STA $C022,X
CPU State: PC:8114 A:00 X:0B Y:00 SP:FD Status:26 (NV-B DIZC)
RAM State: $00:00 $01:00 $02:00
Timing: Current Emulated Cycle: 954, Last IRQ Trigger Cycle: 0, Cycles Since Last IRQ: 954
Emulated Cycles: 954

8114: E8          INX
CPU State: PC:8115 A:00 X:0C Y:00 SP:FD Status:24 (NV-B DIZC)
RAM State: $00:00 $01:00 $02:00
Timing: Current Emulated Cycle: 956, Last IRQ Trigger Cycle: 0, Cycles Since Last IRQ: 956
Emulated Cycles: 956

8115: E0 0E       CPX #$0E
CPU State: PC:8117 A:00 X:0C Y:00 SP:FD Status:A4 (NV-B DIZC)
RAM State: $00:00 $01:00 $02:00
Timing: Current Emulated Cycle: 958, Last IRQ Trigger Cycle: 0, Cycles Since Last IRQ: 958
Emulated Cycles: 958

8117: D0 F5       BNE $810E
CPU State: PC:810E A:00 X:0C Y:00 SP:FD Status:A4 (NV-B DIZC)
RAM State: $00:00 $01:00 $02:00
Timing: Current Emulated Cycle: 961, Last IRQ Trigger Cycle: 0, Cycles Since Last IRQ: 961
Emulated Cycles: 961

810E: BD 8B CF    LDA $CF8B,X
CPU State: PC:8111 A:00 X:0C Y:00 SP:FD Status:26 (NV-B DIZC)
RAM State: $00:00 $01:00 $02:00
Timing: Current Emulated Cycle: 965, Last IRQ Trigger Cycle: 0, Cycles Since Last IRQ: 965
Emulated Cycles: 965

8111: 9D 22 C0    STA $C022,X
CPU State: PC:8114 A:00 X:0C Y:00 SP:FD Status:26 (NV-B DIZC)
RAM State: $00:00 $01:00 $02:00
Timing: Current Emulated Cycle: 970, Last IRQ Trigger Cycle: 0, Cycles Since Last IRQ: 970
Emulated Cycles: 970

8114: E8          INX
CPU State: PC:8115 A:00 X:0D Y:00 SP:FD Status:24 (NV-B DIZC)
RAM State: $00:00 $01:00 $02:00
Timing: Current Emulated Cycle: 972, Last IRQ Trigger Cycle: 0, Cycles Since Last IRQ: 972
Emulated Cycles: 972

8115: E0 0E       CPX #$0E
CPU State: PC:8117 A:00 X:0D Y:00 SP:FD Status:A4 (NV-B DIZC)
RAM State: $00:00 $01:00 $02:00
Timing: Current Emulated Cycle: 974, Last IRQ Trigger Cycle: 0, Cycles Since Last IRQ: 974
Emulated Cycles: 974

8117: D0 F5       BNE $810E
CPU State: PC:810E A:00 X:0D Y:00 SP:FD Status:A4 (NV-B DIZC)
RAM State: $00:00 $01:00 $02:00
Timing: Current Emulated Cycle: 977, Last IRQ Trigger Cycle: 0, Cycles Since Last IRQ: 977
Emulated Cycles: 977

810E: BD 8B CF    LDA $CF8B,X
CPU State: PC:8111 A:00 X:0D Y:00 SP:FD Status:26 (NV-B DIZC)
RAM State: $00:00 $01:00 $02:00
Timing: Current Emulated Cycle: 981, Last IRQ Trigger Cycle: 0, Cycles Since Last IRQ: 981
Emulated Cycles: 981

8111: 9D 22 C0    STA $C022,X
CPU State: PC:8114 A:00 X:0D Y:00 SP:FD Status:26 (NV-B DIZC)
RAM State: $00:00 $01:00 $02:00
Timing: Current Emulated Cycle: 986, Last IRQ Trigger Cycle: 0, Cycles Since Last IRQ: 986
Emulated Cycles: 986

8114: E8          INX
CPU State: PC:8115 A:00 X:0E Y:00 SP:FD Status:24 (NV-B DIZC)
RAM State: $00:00 $01:00 $02:00
Timing: Current Emulated Cycle: 988, Last IRQ Trigger Cycle: 0, Cycles Since Last IRQ: 988
Emulated Cycles: 988

8115: E0 0E       CPX #$0E
CPU State: PC:8117 A:00 X:0E Y:00 SP:FD Status:27 (NV-B DIZC)
RAM State: $00:00 $01:00 $02:00
Timing: Current Emulated Cycle: 990, Last IRQ Trigger Cycle: 0, Cycles Since Last IRQ: 990
Emulated Cycles: 990

8117: D0 F5       BNE $810E
CPU State: PC:8119 A:00 X:0E Y:00 SP:FD Status:27 (NV-B DIZC)
RAM State: $00:00 $01:00 $02:00
Timing: Current Emulated Cycle: 992, Last IRQ Trigger Cycle: 0, Cycles Since Last IRQ: 992
Emulated Cycles: 992

8119: A9 04       LDA #$04
CPU State: PC:811B A:04 X:0E Y:00 SP:FD Status:25 (NV-B DIZC)
RAM State: $00:00 $01:00 $02:00
Timing: Current Emulated Cycle: 994, Last IRQ Trigger Cycle: 0, Cycles Since Last IRQ: 994
Emulated Cycles: 994

811B: 8D 00 C3    STA $C300
CPU State: PC:811E A:04 X:0E Y:00 SP:FD Status:25 (NV-B DIZC)
RAM State: $00:00 $01:00 $02:00
Timing: Current Emulated Cycle: 998, Last IRQ Trigger Cycle: 0, Cycles Since Last IRQ: 998
Emulated Cycles: 998

811E: A9 00       LDA #$00
CPU State: PC:8120 A:00 X:0E Y:00 SP:FD Status:27 (NV-B DIZC)
RAM State: $00:00 $01:00 $02:00
Timing: Current Emulated Cycle: 1000, Last IRQ Trigger Cycle: 0, Cycles Since Last IRQ: 1000
Emulated Cycles: 1000

8120: 8D 01 C3    STA $C301
CPU State: PC:8123 A:00 X:0E Y:00 SP:FD Status:27 (NV-B DIZC)
RAM State: $00:00 $01:00 $02:00
Timing: Current Emulated Cycle: 1004, Last IRQ Trigger Cycle: 0, Cycles Since Last IRQ: 1004
Emulated Cycles: 1004

8123: A2 00       LDX #$00
CPU State: PC:8125 A:00 X:00 Y:00 SP:FD Status:27 (NV-B DIZC)
RAM State: $00:00 $01:00 $02:00
Timing: Current Emulated Cycle: 1006, Last IRQ Trigger Cycle: 0, Cycles Since Last IRQ: 1006
Emulated Cycles: 1006

8125: BD 99 CF    LDA $CF99,X
CPU State: PC:8128 A:72 X:00 Y:00 SP:FD Status:25 (NV-B DIZC)
RAM State: $00:00 $01:00 $02:00
Timing: Current Emulated Cycle: 1010, Last IRQ Trigger Cycle: 0, Cycles Since Last IRQ: 1010
Emulated Cycles: 1010

8128: 9D 02 C3    STA $C302,X
CPU State: PC:812B A:72 X:00 Y:00 SP:FD Status:25 (NV-B DIZC)
RAM State: $00:00 $01:00 $02:00
Timing: Current Emulated Cycle: 1015, Last IRQ Trigger Cycle: 0, Cycles Since Last IRQ: 1015
Emulated Cycles: 1015

812B: E8          INX
CPU State: PC:812C A:72 X:01 Y:00 SP:FD Status:25 (NV-B DIZC)
RAM State: $00:00 $01:00 $02:00
Timing: Current Emulated Cycle: 1017, Last IRQ Trigger Cycle: 0, Cycles Since Last IRQ: 1017
Emulated Cycles: 1017

812C: E0 0E       CPX #$0E
CPU State: PC:812E A:72 X:01 Y:00 SP:FD Status:A4 (NV-B DIZC)
RAM State: $00:00 $01:00 $02:00
Timing: Current Emulated Cycle: 1019, Last IRQ Trigger Cycle: 0, Cycles Since Last IRQ: 1019
Emulated Cycles: 1019

812E: D0 F5       BNE $8125
CPU State: PC:8125 A:72 X:01 Y:00 SP:FD Status:A4 (NV-B DIZC)
RAM State: $00:00 $01:00 $02:00
Timing: Current Emulated Cycle: 1022, Last IRQ Trigger Cycle: 0, Cycles Since Last IRQ: 1022
Emulated Cycles: 1022

8125: BD 99 CF    LDA $CF99,X
CPU State: PC:8128 A:6F X:01 Y:00 SP:FD Status:24 (NV-B DIZC)
RAM State: $00:00 $01:00 $02:00
Timing: Current Emulated Cycle: 1026, Last IRQ Trigger Cycle: 0, Cycles Since Last IRQ: 1026
Emulated Cycles: 1026

8128: 9D 02 C3    STA $C302,X
CPU State: PC:812B A:6F X:01 Y:00 SP:FD Status:24 (NV-B DIZC)
RAM State: $00:00 $01:00 $02:00
Timing: Current Emulated Cycle: 1031, Last IRQ Trigger Cycle: 0, Cycles Since Last IRQ: 1031
Emulated Cycles: 1031

812B: E8          INX
CPU State: PC:812C A:6F X:02 Y:00 SP:FD Status:24 (NV-B DIZC)
RAM State: $00:00 $01:00 $02:00
Timing: Current Emulated Cycle: 1033, Last IRQ Trigger Cycle: 0, Cycles Since Last IRQ: 1033
Emulated Cycles: 1033

812C: E0 0E       CPX #$0E
CPU State: PC:812E A:6F X:02 Y:00 SP:FD Status:A4 (NV-B DIZC)
RAM State: $00:00 $01:00 $02:00
Timing: Current Emulated Cycle: 1035, Last IRQ Trigger Cycle: 0, Cycles Since Last IRQ: 1035
Emulated Cycles: 1035

812E: D0 F5       BNE $8125
CPU State: PC:8125 A:6F X:02 Y:00 SP:FD Status:A4 (NV-B DIZC)
RAM State: $00:00 $01:00 $02:00
Timing: Current Emulated Cycle: 1038, Last IRQ Trigger Cycle: 0, Cycles Since Last IRQ: 1038
Emulated Cycles: 1038

8125: BD 99 CF    LDA $CF99,X
CPU State: PC:8128 A:6D X:02 Y:00 SP:FD Status:24 (NV-B DIZC)
RAM State: $00:00 $01:00 $02:00
Timing: Current Emulated Cycle: 1042, Last IRQ Trigger Cycle: 0, Cycles Since Last IRQ: 1042
Emulated Cycles: 1042

8128: 9D 02 C3    STA $C302,X
CPU State: PC:812B A:6D X:02 Y:00 SP:FD Status:24 (NV-B DIZC)
RAM State: $00:00 $01:00 $02:00
Timing: Current Emulated Cycle: 1047, Last IRQ Trigger Cycle: 0, Cycles Since Last IRQ: 1047
Emulated Cycles: 1047

812B: E8          INX
CPU State: PC:812C A:6D X:03 Y:00 SP:FD Status:24 (NV-B DIZC)
RAM State: $00:00 $01:00 $02:00
Timing: Current Emulated Cycle: 1049, Last IRQ Trigger Cycle: 0, Cycles Since Last IRQ: 1049
Emulated Cycles: 1049

812C: E0 0E       CPX #$0E
CPU State: PC:812E A:6D X:03 Y:00 SP:FD Status:A4 (NV-B DIZC)
RAM State: $00:00 $01:00 $02:00
Timing: Current Emulated Cycle: 1051, Last IRQ Trigger Cycle: 0, Cycles Since Last IRQ: 1051
Emulated Cycles: 1051

812E: D0 F5       BNE $8125
CPU State: PC:8125 A:6D X:03 Y:00 SP:FD Status:A4 (NV-B DIZC)
RAM State: $00:00 $01:00 $02:00
Timing: Current Emulated Cycle: 1054, Last IRQ Trigger Cycle: 0, Cycles Since Last IRQ: 1054
Emulated Cycles: 1054

8125: BD 99 CF    LDA $CF99,X
CPU State: PC:8128 A:46 X:03 Y:00 SP:FD Status:24 (NV-B DIZC)
RAM State: $00:00 $01:00 $02:00
Timing: Current Emulated Cycle: 1058, Last IRQ Trigger Cycle: 0, Cycles Since Last IRQ: 1058
Emulated Cycles: 1058

8128: 9D 02 C3    STA $C302,X
CPU State: PC:812B A:46 X:03 Y:00 SP:FD Status:24 (NV-B DIZC)
RAM State: $00:00 $01:00 $02:00
Timing: Current Emulated Cycle: 1063, Last IRQ Trigger Cycle: 0, Cycles Since Last IRQ: 1063
Emulated Cycles: 1063

812B: E8          INX
CPU State: PC:812C A:46 X:04 Y:00 SP:FD Status:24 (NV-B DIZC)
RAM State: $00:00 $01:00 $02:00
Timing: Current Emulated Cycle: 1065, Last IRQ Trigger Cycle: 0, Cycles Since Last IRQ: 1065
Emulated Cycles: 1065

812C: E0 0E       CPX #$0E
CPU State: PC:812E A:46 X:04 Y:00 SP:FD Status:A4 (NV-B DIZC)
RAM State: $00:00 $01:00 $02:00
Timing: Current Emulated Cycle: 1067, Last IRQ Trigger Cycle: 0, Cycles Since Last IRQ: 1067
Emulated Cycles: 1067

812E: D0 F5       BNE $8125
CPU State: PC:8125 A:46 X:04 Y:00 SP:FD Status:A4 (NV-B DIZC)
RAM State: $00:00 $01:00 $02:00
Timing: Current Emulated Cycle: 1070, Last IRQ Trigger Cycle: 0, Cycles Since Last IRQ: 1070
Emulated Cycles: 1070

8125: BD 99 CF    LDA $CF99,X
CPU State: PC:8128 A:53 X:04 Y:00 SP:FD Status:24 (NV-B DIZC)
RAM State: $00:00 $01:00 $02:00
Timing: Current Emulated Cycle: 1074, Last IRQ Trigger Cycle: 0, Cycles Since Last IRQ: 1074
Emulated Cycles: 1074

8128: 9D 02 C3    STA $C302,X
CPU State: PC:812B A:53 X:04 Y:00 SP:FD Status:24 (NV-B DIZC)
RAM State: $00:00 $01:00 $02:00
Timing: Current Emulated Cycle: 1079, Last IRQ Trigger Cycle: 0, Cycles Since Last IRQ: 1079
Emulated Cycles: 1079

812B: E8          INX
CPU State: PC:812C A:53 X:05 Y:00 SP:FD Status:24 (NV-B DIZC)
RAM State: $00:00 $01:00 $02:00
Timing: Current Emulated Cycle: 1081, Last IRQ Trigger Cycle: 0, Cycles Since Last IRQ: 1081
Emulated Cycles: 1081

812C: E0 0E       CPX #$0E
CPU State: PC:812E A:53 X:05 Y:00 SP:FD Status:A4 (NV-B DIZC)
RAM State: $00:00 $01:00 $02:00
Timing: Current Emulated Cycle: 1083, Last IRQ Trigger Cycle: 0, Cycles Since Last IRQ: 1083
Emulated Cycles: 1083

812E: D0 F5       BNE $8125
CPU State: PC:8125 A:53 X:05 Y:00 SP:FD Status:A4 (NV-B DIZC)
RAM State: $00:00 $01:00 $02:00
Timing: Current Emulated Cycle: 1086, Last IRQ Trigger Cycle: 0, Cycles Since Last IRQ: 1086
Emulated Cycles: 1086

8125: BD 99 CF    LDA $CF99,X
CPU State: PC:8128 A:2E X:05 Y:00 SP:FD Status:24 (NV-B DIZC)
RAM State: $00:00 $01:00 $02:00
Timing: Current Emulated Cycle: 1090, Last IRQ Trigger Cycle: 0, Cycles Since Last IRQ: 1090
Emulated Cycles: 1090

8128: 9D 02 C3    STA $C302,X
CPU State: PC:812B A:2E X:05 Y:00 SP:FD Status:24 (NV-B DIZC)
RAM State: $00:00 $01:00 $02:00
Timing: Current Emulated Cycle: 1095, Last IRQ Trigger Cycle: 0, Cycles Since Last IRQ: 1095
Emulated Cycles: 1095

812B: E8          INX
CPU State: PC:812C A:2E X:06 Y:00 SP:FD Status:24 (NV-B DIZC)
RAM State: $00:00 $01:00 $02:00
Timing: Current Emulated Cycle: 1097, Last IRQ Trigger Cycle: 0, Cycles Since Last IRQ: 1097
Emulated Cycles: 1097

812C: E0 0E       CPX #$0E
CPU State: PC:812E A:2E X:06 Y:00 SP:FD Status:A4 (NV-B DIZC)
RAM State: $00:00 $01:00 $02:00
Timing: Current Emulated Cycle: 1099, Last IRQ Trigger Cycle: 0, Cycles Since Last IRQ: 1099
Emulated Cycles: 1099

812E: D0 F5       BNE $8125
CPU State: PC:8125 A:2E X:06 Y:00 SP:FD Status:A4 (NV-B DIZC)
RAM State: $00:00 $01:00 $02:00
Timing: Current Emulated Cycle: 1102, Last IRQ Trigger Cycle: 0, Cycles Since Last IRQ: 1102
Emulated Cycles: 1102

8125: BD 99 CF    LDA $CF99,X
CPU State: PC:8128 A:74 X:06 Y:00 SP:FD Status:24 (NV-B DIZC)
RAM State: $00:00 $01:00 $02:00
Timing: Current Emulated Cycle: 1106, Last IRQ Trigger Cycle: 0, Cycles Since Last IRQ: 1106
Emulated Cycles: 1106

8128: 9D 02 C3    STA $C302,X
CPU State: PC:812B A:74 X:06 Y:00 SP:FD Status:24 (NV-B DIZC)
RAM State: $00:00 $01:00 $02:00
Timing: Current Emulated Cycle: 1111, Last IRQ Trigger Cycle: 0, Cycles Since Last IRQ: 1111
Emulated Cycles: 1111

812B: E8          INX
CPU State: PC:812C A:74 X:07 Y:00 SP:FD Status:24 (NV-B DIZC)
RAM State: $00:00 $01:00 $02:00
Timing: Current Emulated Cycle: 1113, Last IRQ Trigger Cycle: 0, Cycles Since Last IRQ: 1113
Emulated Cycles: 1113

812C: E0 0E       CPX #$0E
CPU State: PC:812E A:74 X:07 Y:00 SP:FD Status:A4 (NV-B DIZC)
RAM State: $00:00 $01:00 $02:00
Timing: Current Emulated Cycle: 1115, Last IRQ Trigger Cycle: 0, Cycles Since Last IRQ: 1115
Emulated Cycles: 1115

812E: D0 F5       BNE $8125
CPU State: PC:8125 A:74 X:07 Y:00 SP:FD Status:A4 (NV-B DIZC)
RAM State: $00:00 $01:00 $02:00
Timing: Current Emulated Cycle: 1118, Last IRQ Trigger Cycle: 0, Cycles Since Last IRQ: 1118
Emulated Cycles: 1118

8125: BD 99 CF    LDA $CF99,X
CPU State: PC:8128 A:78 X:07 Y:00 SP:FD Status:24 (NV-B DIZC)
RAM State: $00:00 $01:00 $02:00
Timing: Current Emulated Cycle: 1122, Last IRQ Trigger Cycle: 0, Cycles Since Last IRQ: 1122
Emulated Cycles: 1122

8128: 9D 02 C3    STA $C302,X
CPU State: PC:812B A:78 X:07 Y:00 SP:FD Status:24 (NV-B DIZC)
RAM State: $00:00 $01:00 $02:00
Timing: Current Emulated Cycle: 1127, Last IRQ Trigger Cycle: 0, Cycles Since Last IRQ: 1127
Emulated Cycles: 1127

812B: E8          INX
CPU State: PC:812C A:78 X:08 Y:00 SP:FD Status:24 (NV-B DIZC)
RAM State: $00:00 $01:00 $02:00
Timing: Current Emulated Cycle: 1129, Last IRQ Trigger Cycle: 0, Cycles Since Last IRQ: 1129
Emulated Cycles: 1129

812C: E0 0E       CPX #$0E
CPU State: PC:812E A:78 X:08 Y:00 SP:FD Status:A4 (NV-B DIZC)
RAM State: $00:00 $01:00 $02:00
Timing: Current Emulated Cycle: 1131, Last IRQ Trigger Cycle: 0, Cycles Since Last IRQ: 1131
Emulated Cycles: 1131

812E: D0 F5       BNE $8125
CPU State: PC:8125 A:78 X:08 Y:00 SP:FD Status:A4 (NV-B DIZC)
RAM State: $00:00 $01:00 $02:00
Timing: Current Emulated Cycle: 1134, Last IRQ Trigger Cycle: 0, Cycles Since Last IRQ: 1134
Emulated Cycles: 1134

8125: BD 99 CF    LDA $CF99,X
CPU State: PC:8128 A:74 X:08 Y:00 SP:FD Status:24 (NV-B DIZC)
RAM State: $00:00 $01:00 $02:00
Timing: Current Emulated Cycle: 1138, Last IRQ Trigger Cycle: 0, Cycles Since Last IRQ: 1138
Emulated Cycles: 1138

8128: 9D 02 C3    STA $C302,X
CPU State: PC:812B A:74 X:08 Y:00 SP:FD Status:24 (NV-B DIZC)
RAM State: $00:00 $01:00 $02:00
Timing: Current Emulated Cycle: 1143, Last IRQ Trigger Cycle: 0, Cycles Since Last IRQ: 1143
Emulated Cycles: 1143

812B: E8          INX
CPU State: PC:812C A:74 X:09 Y:00 SP:FD Status:24 (NV-B DIZC)
RAM State: $00:00 $01:00 $02:00
Timing: Current Emulated Cycle: 1145, Last IRQ Trigger Cycle: 0, Cycles Since Last IRQ: 1145
Emulated Cycles: 1145

812C: E0 0E       CPX #$0E
CPU State: PC:812E A:74 X:09 Y:00 SP:FD Status:A4 (NV-B DIZC)
RAM State: $00:00 $01:00 $02:00
Timing: Current Emulated Cycle: 1147, Last IRQ Trigger Cycle: 0, Cycles Since Last IRQ: 1147
Emulated Cycles: 1147

812E: D0 F5       BNE $8125
CPU State: PC:8125 A:74 X:09 Y:00 SP:FD Status:A4 (NV-B DIZC)
RAM State: $00:00 $01:00 $02:00
Timing: Current Emulated Cycle: 1150, Last IRQ Trigger Cycle: 0, Cycles Since Last IRQ: 1150
Emulated Cycles: 1150

8125: BD 99 CF    LDA $CF99,X
CPU State: PC:8128 A:00 X:09 Y:00 SP:FD Status:26 (NV-B DIZC)
RAM State: $00:00 $01:00 $02:00
Timing: Current Emulated Cycle: 1154, Last IRQ Trigger Cycle: 0, Cycles Since Last IRQ: 1154
Emulated Cycles: 1154

8128: 9D 02 C3    STA $C302,X
CPU State: PC:812B A:00 X:09 Y:00 SP:FD Status:26 (NV-B DIZC)
RAM State: $00:00 $01:00 $02:00
Timing: Current Emulated Cycle: 1159, Last IRQ Trigger Cycle: 0, Cycles Since Last IRQ: 1159
Emulated Cycles: 1159

812B: E8          INX
CPU State: PC:812C A:00 X:0A Y:00 SP:FD Status:24 (NV-B DIZC)
RAM State: $00:00 $01:00 $02:00
Timing: Current Emulated Cycle: 1161, Last IRQ Trigger Cycle: 0, Cycles Since Last IRQ: 1161
Emulated Cycles: 1161

812C: E0 0E       CPX #$0E
CPU State: PC:812E A:00 X:0A Y:00 SP:FD Status:A4 (NV-B DIZC)
RAM State: $00:00 $01:00 $02:00
Timing: Current Emulated Cycle: 1163, Last IRQ Trigger Cycle: 0, Cycles Since Last IRQ: 1163
Emulated Cycles: 1163

812E: D0 F5       BNE $8125
CPU State: PC:8125 A:00 X:0A Y:00 SP:FD Status:A4 (NV-B DIZC)
RAM State: $00:00 $01:00 $02:00
Timing: Current Emulated Cycle: 1166, Last IRQ Trigger Cycle: 0, Cycles Since Last IRQ: 1166
Emulated Cycles: 1166

8125: BD 99 CF    LDA $CF99,X
CPU State: PC:8128 A:00 X:0A Y:00 SP:FD Status:26 (NV-B DIZC)
RAM State: $00:00 $01:00 $02:00
Timing: Current Emulated Cycle: 1170, Last IRQ Trigger Cycle: 0, Cycles Since Last IRQ: 1170
Emulated Cycles: 1170

8128: 9D 02 C3    STA $C302,X
CPU State: PC:812B A:00 X:0A Y:00 SP:FD Status:26 (NV-B DIZC)
RAM State: $00:00 $01:00 $02:00
Timing: Current Emulated Cycle: 1175, Last IRQ Trigger Cycle: 0, Cycles Since Last IRQ: 1175
Emulated Cycles: 1175

812B: E8          INX
CPU State: PC:812C A:00 X:0B Y:00 SP:FD Status:24 (NV-B DIZC)
RAM State: $00:00 $01:00 $02:00
Timing: Current Emulated Cycle: 1177, Last IRQ Trigger Cycle: 0, Cycles Since Last IRQ: 1177
Emulated Cycles: 1177

812C: E0 0E       CPX #$0E
CPU State: PC:812E A:00 X:0B Y:00 SP:FD Status:A4 (NV-B DIZC)
RAM State: $00:00 $01:00 $02:00
Timing: Current Emulated Cycle: 1179, Last IRQ Trigger Cycle: 0, Cycles Since Last IRQ: 1179
Emulated Cycles: 1179

812E: D0 F5       BNE $8125
CPU State: PC:8125 A:00 X:0B Y:00 SP:FD Status:A4 (NV-B DIZC)
RAM State: $00:00 $01:00 $02:00
Timing: Current Emulated Cycle: 1182, Last IRQ Trigger Cycle: 0, Cycles Since Last IRQ: 1182
Emulated Cycles: 1182

8125: BD 99 CF    LDA $CF99,X
CPU State: PC:8128 A:00 X:0B Y:00 SP:FD Status:26 (NV-B DIZC)
RAM State: $00:00 $01:00 $02:00
Timing: Current Emulated Cycle: 1186, Last IRQ Trigger Cycle: 0, Cycles Since Last IRQ: 1186
Emulated Cycles: 1186

8128: 9D 02 C3    STA $C302,X
CPU State: PC:812B A:00 X:0B Y:00 SP:FD Status:26 (NV-B DIZC)
RAM State: $00:00 $01:00 $02:00
Timing: Current Emulated Cycle: 1191, Last IRQ Trigger Cycle: 0, Cycles Since Last IRQ: 1191
Emulated Cycles: 1191

812B: E8          INX
CPU State: PC:812C A:00 X:0C Y:00 SP:FD Status:24 (NV-B DIZC)
RAM State: $00:00 $01:00 $02:00
Timing: Current Emulated Cycle: 1193, Last IRQ Trigger Cycle: 0, Cycles Since Last IRQ: 1193
Emulated Cycles: 1193

812C: E0 0E       CPX #$0E
CPU State: PC:812E A:00 X:0C Y:00 SP:FD Status:A4 (NV-B DIZC)
RAM State: $00:00 $01:00 $02:00
Timing: Current Emulated Cycle: 1195, Last IRQ Trigger Cycle: 0, Cycles Since Last IRQ: 1195
Emulated Cycles: 1195

812E: D0 F5       BNE $8125
CPU State: PC:8125 A:00 X:0C Y:00 SP:FD Status:A4 (NV-B DIZC)
RAM State: $00:00 $01:00 $02:00
Timing: Current Emulated Cycle: 1198, Last IRQ Trigger Cycle: 0, Cycles Since Last IRQ: 1198
Emulated Cycles: 1198

8125: BD 99 CF    LDA $CF99,X
CPU State: PC:8128 A:00 X:0C Y:00 SP:FD Status:26 (NV-B DIZC)
RAM State: $00:00 $01:00 $02:00
Timing: Current Emulated Cycle: 1202, Last IRQ Trigger Cycle: 0, Cycles Since Last IRQ: 1202
Emulated Cycles: 1202

8128: 9D 02 C3    STA $C302,X
CPU State: PC:812B A:00 X:0C Y:00 SP:FD Status:26 (NV-B DIZC)
RAM State: $00:00 $01:00 $02:00
Timing: Current Emulated Cycle: 1207, Last IRQ Trigger Cycle: 0, Cycles Since Last IRQ: 1207
Emulated Cycles: 1207

812B: E8          INX
CPU State: PC:812C A:00 X:0D Y:00 SP:FD Status:24 (NV-B DIZC)
RAM State: $00:00 $01:00 $02:00
Timing: Current Emulated Cycle: 1209, Last IRQ Trigger Cycle: 0, Cycles Since Last IRQ: 1209
Emulated Cycles: 1209

812C: E0 0E       CPX #$0E
CPU State: PC:812E A:00 X:0D Y:00 SP:FD Status:A4 (NV-B DIZC)
RAM State: $00:00 $01:00 $02:00
Timing: Current Emulated Cycle: 1211, Last IRQ Trigger Cycle: 0, Cycles Since Last IRQ: 1211
Emulated Cycles: 1211

812E: D0 F5       BNE $8125
CPU State: PC:8125 A:00 X:0D Y:00 SP:FD Status:A4 (NV-B DIZC)
RAM State: $00:00 $01:00 $02:00
Timing: Current Emulated Cycle: 1214, Last IRQ Trigger Cycle: 0, Cycles Since Last IRQ: 1214
Emulated Cycles: 1214

8125: BD 99 CF    LDA $CF99,X
CPU State: PC:8128 A:62 X:0D Y:00 SP:FD Status:24 (NV-B DIZC)
RAM State: $00:00 $01:00 $02:00
Timing: Current Emulated Cycle: 1218, Last IRQ Trigger Cycle: 0, Cycles Since Last IRQ: 1218
Emulated Cycles: 1218

8128: 9D 02 C3    STA $C302,X
CPU State: PC:812B A:62 X:0D Y:00 SP:FD Status:24 (NV-B DIZC)
RAM State: $00:00 $01:00 $02:00
Timing: Current Emulated Cycle: 1223, Last IRQ Trigger Cycle: 0, Cycles Since Last IRQ: 1223
Emulated Cycles: 1223

812B: E8          INX
CPU State: PC:812C A:62 X:0E Y:00 SP:FD Status:24 (NV-B DIZC)
RAM State: $00:00 $01:00 $02:00
Timing: Current Emulated Cycle: 1225, Last IRQ Trigger Cycle: 0, Cycles Since Last IRQ: 1225
Emulated Cycles: 1225

812C: E0 0E       CPX #$0E
CPU State: PC:812E A:62 X:0E Y:00 SP:FD Status:27 (NV-B DIZC)
RAM State: $00:00 $01:00 $02:00
Timing: Current Emulated Cycle: 1227, Last IRQ Trigger Cycle: 0, Cycles Since Last IRQ: 1227
Emulated Cycles: 1227

812E: D0 F5       BNE $8125
CPU State: PC:8130 A:62 X:0E Y:00 SP:FD Status:27 (NV-B DIZC)
RAM State: $00:00 $01:00 $02:00
Timing: Current Emulated Cycle: 1229, Last IRQ Trigger Cycle: 0, Cycles Since Last IRQ: 1229
Emulated Cycles: 1229

8130: A9 05       LDA #$05
CPU State: PC:8132 A:05 X:0E Y:00 SP:FD Status:25 (NV-B DIZC)
RAM State: $00:00 $01:00 $02:00
Timing: Current Emulated Cycle: 1231, Last IRQ Trigger Cycle: 0, Cycles Since Last IRQ: 1231
Emulated Cycles: 1231

8132: 8D 10 C3    STA $C310
CPU State: PC:8135 A:05 X:0E Y:00 SP:FD Status:25 (NV-B DIZC)
RAM State: $00:00 $01:00 $02:00
Timing: Current Emulated Cycle: 1235, Last IRQ Trigger Cycle: 0, Cycles Since Last IRQ: 1235
Emulated Cycles: 1235

8135: A9 01       LDA #$01
CPU State: PC:8137 A:01 X:0E Y:00 SP:FD Status:25 (NV-B DIZC)
RAM State: $00:00 $01:00 $02:00
Timing: Current Emulated Cycle: 1237, Last IRQ Trigger Cycle: 0, Cycles Since Last IRQ: 1237
Emulated Cycles: 1237

8137: 8D 11 C3    STA $C311
CPU State: PC:813A A:01 X:0E Y:00 SP:FD Status:25 (NV-B DIZC)
RAM State: $00:00 $01:00 $02:00
Timing: Current Emulated Cycle: 1241, Last IRQ Trigger Cycle: 0, Cycles Since Last IRQ: 1241
Emulated Cycles: 1241

813A: A2 00       LDX #$00
CPU State: PC:813C A:01 X:00 Y:00 SP:FD Status:27 (NV-B DIZC)
RAM State: $00:00 $01:00 $02:00
Timing: Current Emulated Cycle: 1243, Last IRQ Trigger Cycle: 0, Cycles Since Last IRQ: 1243
Emulated Cycles: 1243

813C: BD A6 CF    LDA $CFA6,X
CPU State: PC:813F A:62 X:00 Y:00 SP:FD Status:25 (NV-B DIZC)
RAM State: $00:00 $01:00 $02:00
Timing: Current Emulated Cycle: 1247, Last IRQ Trigger Cycle: 0, Cycles Since Last IRQ: 1247
Emulated Cycles: 1247

813F: 9D 12 C3    STA $C312,X
CPU State: PC:8142 A:62 X:00 Y:00 SP:FD Status:25 (NV-B DIZC)
RAM State: $00:00 $01:00 $02:00
Timing: Current Emulated Cycle: 1252, Last IRQ Trigger Cycle: 0, Cycles Since Last IRQ: 1252
Emulated Cycles: 1252

8142: E8          INX
CPU State: PC:8143 A:62 X:01 Y:00 SP:FD Status:25 (NV-B DIZC)
RAM State: $00:00 $01:00 $02:00
Timing: Current Emulated Cycle: 1254, Last IRQ Trigger Cycle: 0, Cycles Since Last IRQ: 1254
Emulated Cycles: 1254

8143: E0 0E       CPX #$0E
CPU State: PC:8145 A:62 X:01 Y:00 SP:FD Status:A4 (NV-B DIZC)
RAM State: $00:00 $01:00 $02:00
Timing: Current Emulated Cycle: 1256, Last IRQ Trigger Cycle: 0, Cycles Since Last IRQ: 1256
Emulated Cycles: 1256

8145: D0 F5       BNE $813C
CPU State: PC:813C A:62 X:01 Y:00 SP:FD Status:A4 (NV-B DIZC)
RAM State: $00:00 $01:00 $02:00
Timing: Current Emulated Cycle: 1259, Last IRQ Trigger Cycle: 0, Cycles Since Last IRQ: 1259
Emulated Cycles: 1259

813C: BD A6 CF    LDA $CFA6,X
CPU State: PC:813F A:69 X:01 Y:00 SP:FD Status:24 (NV-B DIZC)
RAM State: $00:00 $01:00 $02:00
Timing: Current Emulated Cycle: 1263, Last IRQ Trigger Cycle: 0, Cycles Since Last IRQ: 1263
Emulated Cycles: 1263

813F: 9D 12 C3    STA $C312,X
CPU State: PC:8142 A:69 X:01 Y:00 SP:FD Status:24 (NV-B DIZC)
RAM State: $00:00 $01:00 $02:00
Timing: Current Emulated Cycle: 1268, Last IRQ Trigger Cycle: 0, Cycles Since Last IRQ: 1268
Emulated Cycles: 1268

8142: E8          INX
CPU State: PC:8143 A:69 X:02 Y:00 SP:FD Status:24 (NV-B DIZC)
RAM State: $00:00 $01:00 $02:00
Timing: Current Emulated Cycle: 1270, Last IRQ Trigger Cycle: 0, Cycles Since Last IRQ: 1270
Emulated Cycles: 1270

8143: E0 0E       CPX #$0E
CPU State: PC:8145 A:69 X:02 Y:00 SP:FD Status:A4 (NV-B DIZC)
RAM State: $00:00 $01:00 $02:00
Timing: Current Emulated Cycle: 1272, Last IRQ Trigger Cycle: 0, Cycles Since Last IRQ: 1272
Emulated Cycles: 1272

8145: D0 F5       BNE $813C
CPU State: PC:813C A:69 X:02 Y:00 SP:FD Status:A4 (NV-B DIZC)
RAM State: $00:00 $01:00 $02:00
Timing: Current Emulated Cycle: 1275, Last IRQ Trigger Cycle: 0, Cycles Since Last IRQ: 1275
Emulated Cycles: 1275

813C: BD A6 CF    LDA $CFA6,X
CPU State: PC:813F A:6E X:02 Y:00 SP:FD Status:24 (NV-B DIZC)
RAM State: $00:00 $01:00 $02:00
Timing: Current Emulated Cycle: 1279, Last IRQ Trigger Cycle: 0, Cycles Since Last IRQ: 1279
Emulated Cycles: 1279

813F: 9D 12 C3    STA $C312,X
CPU State: PC:8142 A:6E X:02 Y:00 SP:FD Status:24 (NV-B DIZC)
RAM State: $00:00 $01:00 $02:00
Timing: Current Emulated Cycle: 1284, Last IRQ Trigger Cycle: 0, Cycles Since Last IRQ: 1284
Emulated Cycles: 1284

8142: E8          INX
CPU State: PC:8143 A:6E X:03 Y:00 SP:FD Status:24 (NV-B DIZC)
RAM State: $00:00 $01:00 $02:00
Timing: Current Emulated Cycle: 1286, Last IRQ Trigger Cycle: 0, Cycles Since Last IRQ: 1286
Emulated Cycles: 1286

8143: E0 0E       CPX #$0E
CPU State: PC:8145 A:6E X:03 Y:00 SP:FD Status:A4 (NV-B DIZC)
RAM State: $00:00 $01:00 $02:00
Timing: Current Emulated Cycle: 1288, Last IRQ Trigger Cycle: 0, Cycles Since Last IRQ: 1288
Emulated Cycles: 1288

8145: D0 F5       BNE $813C
CPU State: PC:813C A:6E X:03 Y:00 SP:FD Status:A4 (NV-B DIZC)
RAM State: $00:00 $01:00 $02:00
Timing: Current Emulated Cycle: 1291, Last IRQ Trigger Cycle: 0, Cycles Since Last IRQ: 1291
Emulated Cycles: 1291

813C: BD A6 CF    LDA $CFA6,X
CPU State: PC:813F A:00 X:03 Y:00 SP:FD Status:26 (NV-B DIZC)
RAM State: $00:00 $01:00 $02:00
Timing: Current Emulated Cycle: 1295, Last IRQ Trigger Cycle: 0, Cycles Since Last IRQ: 1295
Emulated Cycles: 1295

813F: 9D 12 C3    STA $C312,X
CPU State: PC:8142 A:00 X:03 Y:00 SP:FD Status:26 (NV-B DIZC)
RAM State: $00:00 $01:00 $02:00
Timing: Current Emulated Cycle: 1300, Last IRQ Trigger Cycle: 0, Cycles Since Last IRQ: 1300
Emulated Cycles: 1300

8142: E8          INX
CPU State: PC:8143 A:00 X:04 Y:00 SP:FD Status:24 (NV-B DIZC)
RAM State: $00:00 $01:00 $02:00
Timing: Current Emulated Cycle: 1302, Last IRQ Trigger Cycle: 0, Cycles Since Last IRQ: 1302
Emulated Cycles: 1302

8143: E0 0E       CPX #$0E
CPU State: PC:8145 A:00 X:04 Y:00 SP:FD Status:A4 (NV-B DIZC)
RAM State: $00:00 $01:00 $02:00
Timing: Current Emulated Cycle: 1304, Last IRQ Trigger Cycle: 0, Cycles Since Last IRQ: 1304
Emulated Cycles: 1304

8145: D0 F5       BNE $813C
CPU State: PC:813C A:00 X:04 Y:00 SP:FD Status:A4 (NV-B DIZC)
RAM State: $00:00 $01:00 $02:00
Timing: Current Emulated Cycle: 1307, Last IRQ Trigger Cycle: 0, Cycles Since Last IRQ: 1307
Emulated Cycles: 1307

813C: BD A6 CF    LDA $CFA6,X
CPU State: PC:813F A:00 X:04 Y:00 SP:FD Status:26 (NV-B DIZC)
RAM State: $00:00 $01:00 $02:00
Timing: Current Emulated Cycle: 1311, Last IRQ Trigger Cycle: 0, Cycles Since Last IRQ: 1311
Emulated Cycles: 1311

813F: 9D 12 C3    STA $C312,X
CPU State: PC:8142 A:00 X:04 Y:00 SP:FD Status:26 (NV-B DIZC)
RAM State: $00:00 $01:00 $02:00
Timing: Current Emulated Cycle: 1316, Last IRQ Trigger Cycle: 0, Cycles Since Last IRQ: 1316
Emulated Cycles: 1316

8142: E8          INX
CPU State: PC:8143 A:00 X:05 Y:00 SP:FD Status:24 (NV-B DIZC)
RAM State: $00:00 $01:00 $02:00
Timing: Current Emulated Cycle: 1318, Last IRQ Trigger Cycle: 0, Cycles Since Last IRQ: 1318
Emulated Cycles: 1318

8143: E0 0E       CPX #$0E
CPU State: PC:8145 A:00 X:05 Y:00 SP:FD Status:A4 (NV-B DIZC)
RAM State: $00:00 $01:00 $02:00
Timing: Current Emulated Cycle: 1320, Last IRQ Trigger Cycle: 0, Cycles Since Last IRQ: 1320
Emulated Cycles: 1320

8145: D0 F5       BNE $813C
CPU State: PC:813C A:00 X:05 Y:00 SP:FD Status:A4 (NV-B DIZC)
RAM State: $00:00 $01:00 $02:00
Timing: Current Emulated Cycle: 1323, Last IRQ Trigger Cycle: 0, Cycles Since Last IRQ: 1323
Emulated Cycles: 1323

813C: BD A6 CF    LDA $CFA6,X
CPU State: PC:813F A:00 X:05 Y:00 SP:FD Status:26 (NV-B DIZC)
RAM State: $00:00 $01:00 $02:00
Timing: Current Emulated Cycle: 1327, Last IRQ Trigger Cycle: 0, Cycles Since Last IRQ: 1327
Emulated Cycles: 1327

813F: 9D 12 C3    STA $C312,X
CPU State: PC:8142 A:00 X:05 Y:00 SP:FD Status:26 (NV-B DIZC)
RAM State: $00:00 $01:00 $02:00
Timing: Current Emulated Cycle: 1332, Last IRQ Trigger Cycle: 0, Cycles Since Last IRQ: 1332
Emulated Cycles: 1332

8142: E8          INX
CPU State: PC:8143 A:00 X:06 Y:00 SP:FD Status:24 (NV-B DIZC)
RAM State: $00:00 $01:00 $02:00
Timing: Current Emulated Cycle: 1334, Last IRQ Trigger Cycle: 0, Cycles Since Last IRQ: 1334
Emulated Cycles: 1334

8143: E0 0E       CPX #$0E
CPU State: PC:8145 A:00 X:06 Y:00 SP:FD Status:A4 (NV-B DIZC)
RAM State: $00:00 $01:00 $02:00
Timing: Current Emulated Cycle: 1336, Last IRQ Trigger Cycle: 0, Cycles Since Last IRQ: 1336
Emulated Cycles: 1336

8145: D0 F5       BNE $813C
CPU State: PC:813C A:00 X:06 Y:00 SP:FD Status:A4 (NV-B DIZC)
RAM State: $00:00 $01:00 $02:00
Timing: Current Emulated Cycle: 1339, Last IRQ Trigger Cycle: 0, Cycles Since Last IRQ: 1339
Emulated Cycles: 1339

813C: BD A6 CF    LDA $CFA6,X
CPU State: PC:813F A:00 X:06 Y:00 SP:FD Status:26 (NV-B DIZC)
RAM State: $00:00 $01:00 $02:00
Timing: Current Emulated Cycle: 1343, Last IRQ Trigger Cycle: 0, Cycles Since Last IRQ: 1343
Emulated Cycles: 1343

813F: 9D 12 C3    STA $C312,X
CPU State: PC:8142 A:00 X:06 Y:00 SP:FD Status:26 (NV-B DIZC)
RAM State: $00:00 $01:00 $02:00
Timing: Current Emulated Cycle: 1348, Last IRQ Trigger Cycle: 0, Cycles Since Last IRQ: 1348
Emulated Cycles: 1348

8142: E8          INX
CPU State: PC:8143 A:00 X:07 Y:00 SP:FD Status:24 (NV-B DIZC)
RAM State: $00:00 $01:00 $02:00
Timing: Current Emulated Cycle: 1350, Last IRQ Trigger Cycle: 0, Cycles Since Last IRQ: 1350
Emulated Cycles: 1350

8143: E0 0E       CPX #$0E
CPU State: PC:8145 A:00 X:07 Y:00 SP:FD Status:A4 (NV-B DIZC)
RAM State: $00:00 $01:00 $02:00
Timing: Current Emulated Cycle: 1352, Last IRQ Trigger Cycle: 0, Cycles Since Last IRQ: 1352
Emulated Cycles: 1352

8145: D0 F5       BNE $813C
CPU State: PC:813C A:00 X:07 Y:00 SP:FD Status:A4 (NV-B DIZC)
RAM State: $00:00 $01:00 $02:00
Timing: Current Emulated Cycle: 1355, Last IRQ Trigger Cycle: 0, Cycles Since Last IRQ: 1355
Emulated Cycles: 1355

813C: BD A6 CF    LDA $CFA6,X
CPU State: PC:813F A:00 X:07 Y:00 SP:FD Status:26 (NV-B DIZC)
RAM State: $00:00 $01:00 $02:00
Timing: Current Emulated Cycle: 1359, Last IRQ Trigger Cycle: 0, Cycles Since Last IRQ: 1359
Emulated Cycles: 1359

813F: 9D 12 C3    STA $C312,X
CPU State: PC:8142 A:00 X:07 Y:00 SP:FD Status:26 (NV-B DIZC)
RAM State: $00:00 $01:00 $02:00
Timing: Current Emulated Cycle: 1364, Last IRQ Trigger Cycle: 0, Cycles Since Last IRQ: 1364
Emulated Cycles: 1364

8142: E8          INX
CPU State: PC:8143 A:00 X:08 Y:00 SP:FD Status:24 (NV-B DIZC)
RAM State: $00:00 $01:00 $02:00
Timing: Current Emulated Cycle: 1366, Last IRQ Trigger Cycle: 0, Cycles Since Last IRQ: 1366
Emulated Cycles: 1366

8143: E0 0E       CPX #$0E
CPU State: PC:8145 A:00 X:08 Y:00 SP:FD Status:A4 (NV-B DIZC)
RAM State: $00:00 $01:00 $02:00
Timing: Current Emulated Cycle: 1368, Last IRQ Trigger Cycle: 0, Cycles Since Last IRQ: 1368
Emulated Cycles: 1368

8145: D0 F5       BNE $813C
CPU State: PC:813C A:00 X:08 Y:00 SP:FD Status:A4 (NV-B DIZC)
RAM State: $00:00 $01:00 $02:00
Timing: Current Emulated Cycle: 1371, Last IRQ Trigger Cycle: 0, Cycles Since Last IRQ: 1371
Emulated Cycles: 1371

813C: BD A6 CF    LDA $CFA6,X
CPU State: PC:813F A:00 X:08 Y:00 SP:FD Status:26 (NV-B DIZC)
RAM State: $00:00 $01:00 $02:00
Timing: Current Emulated Cycle: 1375, Last IRQ Trigger Cycle: 0, Cycles Since Last IRQ: 1375
Emulated Cycles: 1375

813F: 9D 12 C3    STA $C312,X
CPU State: PC:8142 A:00 X:08 Y:00 SP:FD Status:26 (NV-B DIZC)
RAM State: $00:00 $01:00 $02:00
Timing: Current Emulated Cycle: 1380, Last IRQ Trigger Cycle: 0, Cycles Since Last IRQ: 1380
Emulated Cycles: 1380

8142: E8          INX
CPU State: PC:8143 A:00 X:09 Y:00 SP:FD Status:24 (NV-B DIZC)
RAM State: $00:00 $01:00 $02:00
Timing: Current Emulated Cycle: 1382, Last IRQ Trigger Cycle: 0, Cycles Since Last IRQ: 1382
Emulated Cycles: 1382

8143: E0 0E       CPX #$0E
CPU State: PC:8145 A:00 X:09 Y:00 SP:FD Status:A4 (NV-B DIZC)
RAM State: $00:00 $01:00 $02:00
Timing: Current Emulated Cycle: 1384, Last IRQ Trigger Cycle: 0, Cycles Since Last IRQ: 1384
Emulated Cycles: 1384

8145: D0 F5       BNE $813C
CPU State: PC:813C A:00 X:09 Y:00 SP:FD Status:A4 (NV-B DIZC)
RAM State: $00:00 $01:00 $02:00
Timing: Current Emulated Cycle: 1387, Last IRQ Trigger Cycle: 0, Cycles Since Last IRQ: 1387
Emulated Cycles: 1387

813C: BD A6 CF    LDA $CFA6,X
CPU State: PC:813F A:00 X:09 Y:00 SP:FD Status:26 (NV-B DIZC)
RAM State: $00:00 $01:00 $02:00
Timing: Current Emulated Cycle: 1391, Last IRQ Trigger Cycle: 0, Cycles Since Last IRQ: 1391
Emulated Cycles: 1391

813F: 9D 12 C3    STA $C312,X
CPU State: PC:8142 A:00 X:09 Y:00 SP:FD Status:26 (NV-B DIZC)
RAM State: $00:00 $01:00 $02:00
Timing: Current Emulated Cycle: 1396, Last IRQ Trigger Cycle: 0, Cycles Since Last IRQ: 1396
Emulated Cycles: 1396

8142: E8          INX
CPU State: PC:8143 A:00 X:0A Y:00 SP:FD Status:24 (NV-B DIZC)
RAM State: $00:00 $01:00 $02:00
Timing: Current Emulated Cycle: 1398, Last IRQ Trigger Cycle: 0, Cycles Since Last IRQ: 1398
Emulated Cycles: 1398

8143: E0 0E       CPX #$0E
CPU State: PC:8145 A:00 X:0A Y:00 SP:FD Status:A4 (NV-B DIZC)
RAM State: $00:00 $01:00 $02:00
Timing: Current Emulated Cycle: 1400, Last IRQ Trigger Cycle: 0, Cycles Since Last IRQ: 1400
Emulated Cycles: 1400

8145: D0 F5       BNE $813C
CPU State: PC:813C A:00 X:0A Y:00 SP:FD Status:A4 (NV-B DIZC)
RAM State: $00:00 $01:00 $02:00
Timing: Current Emulated Cycle: 1403, Last IRQ Trigger Cycle: 0, Cycles Since Last IRQ: 1403
Emulated Cycles: 1403

813C: BD A6 CF    LDA $CFA6,X
CPU State: PC:813F A:00 X:0A Y:00 SP:FD Status:26 (NV-B DIZC)
RAM State: $00:00 $01:00 $02:00
Timing: Current Emulated Cycle: 1407, Last IRQ Trigger Cycle: 0, Cycles Since Last IRQ: 1407
Emulated Cycles: 1407

813F: 9D 12 C3    STA $C312,X
CPU State: PC:8142 A:00 X:0A Y:00 SP:FD Status:26 (NV-B DIZC)
RAM State: $00:00 $01:00 $02:00
Timing: Current Emulated Cycle: 1412, Last IRQ Trigger Cycle: 0, Cycles Since Last IRQ: 1412
Emulated Cycles: 1412

8142: E8          INX
CPU State: PC:8143 A:00 X:0B Y:00 SP:FD Status:24 (NV-B DIZC)
RAM State: $00:00 $01:00 $02:00
Timing: Current Emulated Cycle: 1414, Last IRQ Trigger Cycle: 0, Cycles Since Last IRQ: 1414
Emulated Cycles: 1414

8143: E0 0E       CPX #$0E
CPU State: PC:8145 A:00 X:0B Y:00 SP:FD Status:A4 (NV-B DIZC)
RAM State: $00:00 $01:00 $02:00
Timing: Current Emulated Cycle: 1416, Last IRQ Trigger Cycle: 0, Cycles Since Last IRQ: 1416
Emulated Cycles: 1416

8145: D0 F5       BNE $813C
CPU State: PC:813C A:00 X:0B Y:00 SP:FD Status:A4 (NV-B DIZC)
RAM State: $00:00 $01:00 $02:00
Timing: Current Emulated Cycle: 1419, Last IRQ Trigger Cycle: 0, Cycles Since Last IRQ: 1419
Emulated Cycles: 1419

813C: BD A6 CF    LDA $CFA6,X
CPU State: PC:813F A:00 X:0B Y:00 SP:FD Status:26 (NV-B DIZC)
RAM State: $00:00 $01:00 $02:00
Timing: Current Emulated Cycle: 1423, Last IRQ Trigger Cycle: 0, Cycles Since Last IRQ: 1423
Emulated Cycles: 1423

813F: 9D 12 C3    STA $C312,X
CPU State: PC:8142 A:00 X:0B Y:00 SP:FD Status:26 (NV-B DIZC)
RAM State: $00:00 $01:00 $02:00
Timing: Current Emulated Cycle: 1428, Last IRQ Trigger Cycle: 0, Cycles Since Last IRQ: 1428
Emulated Cycles: 1428

8142: E8          INX
CPU State: PC:8143 A:00 X:0C Y:00 SP:FD Status:24 (NV-B DIZC)
RAM State: $00:00 $01:00 $02:00
Timing: Current Emulated Cycle: 1430, Last IRQ Trigger Cycle: 0, Cycles Since Last IRQ: 1430
Emulated Cycles: 1430

8143: E0 0E       CPX #$0E
CPU State: PC:8145 A:00 X:0C Y:00 SP:FD Status:A4 (NV-B DIZC)
RAM State: $00:00 $01:00 $02:00
Timing: Current Emulated Cycle: 1432, Last IRQ Trigger Cycle: 0, Cycles Since Last IRQ: 1432
Emulated Cycles: 1432

8145: D0 F5       BNE $813C
CPU State: PC:813C A:00 X:0C Y:00 SP:FD Status:A4 (NV-B DIZC)
RAM State: $00:00 $01:00 $02:00
Timing: Current Emulated Cycle: 1435, Last IRQ Trigger Cycle: 0, Cycles Since Last IRQ: 1435
Emulated Cycles: 1435

813C: BD A6 CF    LDA $CFA6,X
CPU State: PC:813F A:00 X:0C Y:00 SP:FD Status:26 (NV-B DIZC)
RAM State: $00:00 $01:00 $02:00
Timing: Current Emulated Cycle: 1439, Last IRQ Trigger Cycle: 0, Cycles Since Last IRQ: 1439
Emulated Cycles: 1439

813F: 9D 12 C3    STA $C312,X
CPU State: PC:8142 A:00 X:0C Y:00 SP:FD Status:26 (NV-B DIZC)
RAM State: $00:00 $01:00 $02:00
Timing: Current Emulated Cycle: 1444, Last IRQ Trigger Cycle: 0, Cycles Since Last IRQ: 1444
Emulated Cycles: 1444

8142: E8          INX
CPU State: PC:8143 A:00 X:0D Y:00 SP:FD Status:24 (NV-B DIZC)
RAM State: $00:00 $01:00 $02:00
Timing: Current Emulated Cycle: 1446, Last IRQ Trigger Cycle: 0, Cycles Since Last IRQ: 1446
Emulated Cycles: 1446

8143: E0 0E       CPX #$0E
CPU State: PC:8145 A:00 X:0D Y:00 SP:FD Status:A4 (NV-B DIZC)
RAM State: $00:00 $01:00 $02:00
Timing: Current Emulated Cycle: 1448, Last IRQ Trigger Cycle: 0, Cycles Since Last IRQ: 1448
Emulated Cycles: 1448

8145: D0 F5       BNE $813C
CPU State: PC:813C A:00 X:0D Y:00 SP:FD Status:A4 (NV-B DIZC)
RAM State: $00:00 $01:00 $02:00
Timing: Current Emulated Cycle: 1451, Last IRQ Trigger Cycle: 0, Cycles Since Last IRQ: 1451
Emulated Cycles: 1451

813C: BD A6 CF    LDA $CFA6,X
CPU State: PC:813F A:00 X:0D Y:00 SP:FD Status:26 (NV-B DIZC)
RAM State: $00:00 $01:00 $02:00
Timing: Current Emulated Cycle: 1455, Last IRQ Trigger Cycle: 0, Cycles Since Last IRQ: 1455
Emulated Cycles: 1455

813F: 9D 12 C3    STA $C312,X
CPU State: PC:8142 A:00 X:0D Y:00 SP:FD Status:26 (NV-B DIZC)
RAM State: $00:00 $01:00 $02:00
Timing: Current Emulated Cycle: 1460, Last IRQ Trigger Cycle: 0, Cycles Since Last IRQ: 1460
Emulated Cycles: 1460

8142: E8          INX
CPU State: PC:8143 A:00 X:0E Y:00 SP:FD Status:24 (NV-B DIZC)
RAM State: $00:00 $01:00 $02:00
Timing: Current Emulated Cycle: 1462, Last IRQ Trigger Cycle: 0, Cycles Since Last IRQ: 1462
Emulated Cycles: 1462

8143: E0 0E       CPX #$0E
CPU State: PC:8145 A:00 X:0E Y:00 SP:FD Status:27 (NV-B DIZC)
RAM State: $00:00 $01:00 $02:00
Timing: Current Emulated Cycle: 1464, Last IRQ Trigger Cycle: 0, Cycles Since Last IRQ: 1464
Emulated Cycles: 1464

8145: D0 F5       BNE $813C
CPU State: PC:8147 A:00 X:0E Y:00 SP:FD Status:27 (NV-B DIZC)
RAM State: $00:00 $01:00 $02:00
Timing: Current Emulated Cycle: 1466, Last IRQ Trigger Cycle: 0, Cycles Since Last IRQ: 1466
Emulated Cycles: 1466

8147: A9 03       LDA #$03
CPU State: PC:8149 A:03 X:0E Y:00 SP:FD Status:25 (NV-B DIZC)
RAM State: $00:00 $01:00 $02:00
Timing: Current Emulated Cycle: 1468, Last IRQ Trigger Cycle: 0, Cycles Since Last IRQ: 1468
Emulated Cycles: 1468

8149: 8D 00 C7    STA $C700
CPU State: PC:814C A:03 X:0E Y:00 SP:FD Status:25 (NV-B DIZC)
RAM State: $00:00 $01:00 $02:00
Timing: Current Emulated Cycle: 1472, Last IRQ Trigger Cycle: 0, Cycles Since Last IRQ: 1472
Emulated Cycles: 1472

814C: A9 04       LDA #$04
CPU State: PC:814E A:04 X:0E Y:00 SP:FD Status:25 (NV-B DIZC)
RAM State: $00:00 $01:00 $02:00
Timing: Current Emulated Cycle: 1474, Last IRQ Trigger Cycle: 0, Cycles Since Last IRQ: 1474
Emulated Cycles: 1474

814E: 8D 01 C7    STA $C701
CPU State: PC:8151 A:04 X:0E Y:00 SP:FD Status:25 (NV-B DIZC)
RAM State: $00:00 $01:00 $02:00
Timing: Current Emulated Cycle: 1478, Last IRQ Trigger Cycle: 0, Cycles Since Last IRQ: 1478
Emulated Cycles: 1478

8151: A2 00       LDX #$00
CPU State: PC:8153 A:04 X:00 Y:00 SP:FD Status:27 (NV-B DIZC)
RAM State: $00:00 $01:00 $02:00
Timing: Current Emulated Cycle: 1480, Last IRQ Trigger Cycle: 0, Cycles Since Last IRQ: 1480
Emulated Cycles: 1480

8153: A9 EA       LDA #$EA
CPU State: PC:8155 A:EA X:00 Y:00 SP:FD Status:A5 (NV-B DIZC)
RAM State: $00:00 $01:00 $02:00
Timing: Current Emulated Cycle: 1482, Last IRQ Trigger Cycle: 0, Cycles Since Last IRQ: 1482
Emulated Cycles: 1482

8155: 9D 00 C1    STA $C100,X
CPU State: PC:8158 A:EA X:00 Y:00 SP:FD Status:A5 (NV-B DIZC)
RAM State: $00:00 $01:00 $02:00
Timing: Current Emulated Cycle: 1487, Last IRQ Trigger Cycle: 0, Cycles Since Last IRQ: 1487
Emulated Cycles: 1487

8158: E8          INX
CPU State: PC:8159 A:EA X:01 Y:00 SP:FD Status:25 (NV-B DIZC)
RAM State: $00:00 $01:00 $02:00
Timing: Current Emulated Cycle: 1489, Last IRQ Trigger Cycle: 0, Cycles Since Last IRQ: 1489
Emulated Cycles: 1489

8159: D0 F8       BNE $8153
CPU State: PC:8153 A:EA X:01 Y:00 SP:FD Status:25 (NV-B DIZC)
RAM State: $00:00 $01:00 $02:00
Timing: Current Emulated Cycle: 1492, Last IRQ Trigger Cycle: 0, Cycles Since Last IRQ: 1492
Emulated Cycles: 1492

8153: A9 EA       LDA #$EA
CPU State: PC:8155 A:EA X:01 Y:00 SP:FD Status:A5 (NV-B DIZC)
RAM State: $00:00 $01:00 $02:00
Timing: Current Emulated Cycle: 1494, Last IRQ Trigger Cycle: 0, Cycles Since Last IRQ: 1494
Emulated Cycles: 1494

8155: 9D 00 C1    STA $C100,X
CPU State: PC:8158 A:EA X:01 Y:00 SP:FD Status:A5 (NV-B DIZC)
RAM State: $00:00 $01:00 $02:00
Timing: Current Emulated Cycle: 1499, Last IRQ Trigger Cycle: 0, Cycles Since Last IRQ: 1499
Emulated Cycles: 1499

8158: E8          INX
CPU State: PC:8159 A:EA X:02 Y:00 SP:FD Status:25 (NV-B DIZC)
RAM State: $00:00 $01:00 $02:00
Timing: Current Emulated Cycle: 1501, Last IRQ Trigger Cycle: 0, Cycles Since Last IRQ: 1501
Emulated Cycles: 1501

8159: D0 F8       BNE $8153
CPU State: PC:8153 A:EA X:02 Y:00 SP:FD Status:25 (NV-B DIZC)
RAM State: $00:00 $01:00 $02:00
Timing: Current Emulated Cycle: 1504, Last IRQ Trigger Cycle: 0, Cycles Since Last IRQ: 1504
Emulated Cycles: 1504

8153: A9 EA       LDA #$EA
CPU State: PC:8155 A:EA X:02 Y:00 SP:FD Status:A5 (NV-B DIZC)
RAM State: $00:00 $01:00 $02:00
Timing: Current Emulated Cycle: 1506, Last IRQ Trigger Cycle: 0, Cycles Since Last IRQ: 1506
Emulated Cycles: 1506

8155: 9D 00 C1    STA $C100,X
CPU State: PC:8158 A:EA X:02 Y:00 SP:FD Status:A5 (NV-B DIZC)
RAM State: $00:00 $01:00 $02:00
Timing: Current Emulated Cycle: 1511, Last IRQ Trigger Cycle: 0, Cycles Since Last IRQ: 1511
Emulated Cycles: 1511

8158: E8          INX
CPU State: PC:8159 A:EA X:03 Y:00 SP:FD Status:25 (NV-B DIZC)
RAM State: $00:00 $01:00 $02:00
Timing: Current Emulated Cycle: 1513, Last IRQ Trigger Cycle: 0, Cycles Since Last IRQ: 1513
Emulated Cycles: 1513

8159: D0 F8       BNE $8153
CPU State: PC:8153 A:EA X:03 Y:00 SP:FD Status:25 (NV-B DIZC)
RAM State: $00:00 $01:00 $02:00
Timing: Current Emulated Cycle: 1516, Last IRQ Trigger Cycle: 0, Cycles Since Last IRQ: 1516
Emulated Cycles: 1516

8153: A9 EA       LDA #$EA
CPU State: PC:8155 A:EA X:03 Y:00 SP:FD Status:A5 (NV-B DIZC)
RAM State: $00:00 $01:00 $02:00
Timing: Current Emulated Cycle: 1518, Last IRQ Trigger Cycle: 0, Cycles Since Last IRQ: 1518
Emulated Cycles: 1518

8155: 9D 00 C1    STA $C100,X
CPU State: PC:8158 A:EA X:03 Y:00 SP:FD Status:A5 (NV-B DIZC)
RAM State: $00:00 $01:00 $02:00
Timing: Current Emulated Cycle: 1523, Last IRQ Trigger Cycle: 0, Cycles Since Last IRQ: 1523
Emulated Cycles: 1523

8158: E8          INX
CPU State: PC:8159 A:EA X:04 Y:00 SP:FD Status:25 (NV-B DIZC)
RAM State: $00:00 $01:00 $02:00
Timing: Current Emulated Cycle: 1525, Last IRQ Trigger Cycle: 0, Cycles Since Last IRQ: 1525
Emulated Cycles: 1525

8159: D0 F8       BNE $8153
CPU State: PC:8153 A:EA X:04 Y:00 SP:FD Status:25 (NV-B DIZC)
RAM State: $00:00 $01:00 $02:00
Timing: Current Emulated Cycle: 1528, Last IRQ Trigger Cycle: 0, Cycles Since Last IRQ: 1528
Emulated Cycles: 1528

8153: A9 EA       LDA #$EA
CPU State: PC:8155 A:EA X:04 Y:00 SP:FD Status:A5 (NV-B DIZC)
RAM State: $00:00 $01:00 $02:00
Timing: Current Emulated Cycle: 1530, Last IRQ Trigger Cycle: 0, Cycles Since Last IRQ: 1530
Emulated Cycles: 1530

8155: 9D 00 C1    STA $C100,X
CPU State: PC:8158 A:EA X:04 Y:00 SP:FD Status:A5 (NV-B DIZC)
RAM State: $00:00 $01:00 $02:00
Timing: Current Emulated Cycle: 1535, Last IRQ Trigger Cycle: 0, Cycles Since Last IRQ: 1535
Emulated Cycles: 1535

8158: E8          INX
CPU State: PC:8159 A:EA X:05 Y:00 SP:FD Status:25 (NV-B DIZC)
RAM State: $00:00 $01:00 $02:00
Timing: Current Emulated Cycle: 1537, Last IRQ Trigger Cycle: 0, Cycles Since Last IRQ: 1537
Emulated Cycles: 1537

8159: D0 F8       BNE $8153
CPU State: PC:8153 A:EA X:05 Y:00 SP:FD Status:25 (NV-B DIZC)
RAM State: $00:00 $01:00 $02:00
Timing: Current Emulated Cycle: 1540, Last IRQ Trigger Cycle: 0, Cycles Since Last IRQ: 1540
Emulated Cycles: 1540

8153: A9 EA       LDA #$EA
CPU State: PC:8155 A:EA X:05 Y:00 SP:FD Status:A5 (NV-B DIZC)
RAM State: $00:00 $01:00 $02:00
Timing: Current Emulated Cycle: 1542, Last IRQ Trigger Cycle: 0, Cycles Since Last IRQ: 1542
Emulated Cycles: 1542

8155: 9D 00 C1    STA $C100,X
CPU State: PC:8158 A:EA X:05 Y:00 SP:FD Status:A5 (NV-B DIZC)
RAM State: $00:00 $01:00 $02:00
Timing: Current Emulated Cycle: 1547, Last IRQ Trigger Cycle: 0, Cycles Since Last IRQ: 1547
Emulated Cycles: 1547

8158: E8          INX
CPU State: PC:8159 A:EA X:06 Y:00 SP:FD Status:25 (NV-B DIZC)
RAM State: $00:00 $01:00 $02:00
Timing: Current Emulated Cycle: 1549, Last IRQ Trigger Cycle: 0, Cycles Since Last IRQ: 1549
Emulated Cycles: 1549

8159: D0 F8       BNE $8153
CPU State: PC:8153 A:EA X:06 Y:00 SP:FD Status:25 (NV-B DIZC)
RAM State: $00:00 $01:00 $02:00
Timing: Current Emulated Cycle: 1552, Last IRQ Trigger Cycle: 0, Cycles Since Last IRQ: 1552
Emulated Cycles: 1552

8153: A9 EA       LDA #$EA
CPU State: PC:8155 A:EA X:06 Y:00 SP:FD Status:A5 (NV-B DIZC)
RAM State: $00:00 $01:00 $02:00
Timing: Current Emulated Cycle: 1554, Last IRQ Trigger Cycle: 0, Cycles Since Last IRQ: 1554
Emulated Cycles: 1554

8155: 9D 00 C1    STA $C100,X
CPU State: PC:8158 A:EA X:06 Y:00 SP:FD Status:A5 (NV-B DIZC)
RAM State: $00:00 $01:00 $02:00
Timing: Current Emulated Cycle: 1559, Last IRQ Trigger Cycle: 0, Cycles Since Last IRQ: 1559
Emulated Cycles: 1559

8158: E8          INX
CPU State: PC:8159 A:EA X:07 Y:00 SP:FD Status:25 (NV-B DIZC)
RAM State: $00:00 $01:00 $02:00
Timing: Current Emulated Cycle: 1561, Last IRQ Trigger Cycle: 0, Cycles Since Last IRQ: 1561
Emulated Cycles: 1561

8159: D0 F8       BNE $8153
CPU State: PC:8153 A:EA X:07 Y:00 SP:FD Status:25 (NV-B DIZC)
RAM State: $00:00 $01:00 $02:00
Timing: Current Emulated Cycle: 1564, Last IRQ Trigger Cycle: 0, Cycles Since Last IRQ: 1564
Emulated Cycles: 1564

8153: A9 EA       LDA #$EA
CPU State: PC:8155 A:EA X:07 Y:00 SP:FD Status:A5 (NV-B DIZC)
RAM State: $00:00 $01:00 $02:00
Timing: Current Emulated Cycle: 1566, Last IRQ Trigger Cycle: 0, Cycles Since Last IRQ: 1566
Emulated Cycles: 1566

8155: 9D 00 C1    STA $C100,X
CPU State: PC:8158 A:EA X:07 Y:00 SP:FD Status:A5 (NV-B DIZC)
RAM State: $00:00 $01:00 $02:00
Timing: Current Emulated Cycle: 1571, Last IRQ Trigger Cycle: 0, Cycles Since Last IRQ: 1571
Emulated Cycles: 1571

8158: E8          INX
CPU State: PC:8159 A:EA X:08 Y:00 SP:FD Status:25 (NV-B DIZC)
RAM State: $00:00 $01:00 $02:00
Timing: Current Emulated Cycle: 1573, Last IRQ Trigger Cycle: 0, Cycles Since Last IRQ: 1573
Emulated Cycles: 1573

8159: D0 F8       BNE $8153
CPU State: PC:8153 A:EA X:08 Y:00 SP:FD Status:25 (NV-B DIZC)
RAM State: $00:00 $01:00 $02:00
Timing: Current Emulated Cycle: 1576, Last IRQ Trigger Cycle: 0, Cycles Since Last IRQ: 1576
Emulated Cycles: 1576

8153: A9 EA       LDA #$EA
CPU State: PC:8155 A:EA X:08 Y:00 SP:FD Status:A5 (NV-B DIZC)
RAM State: $00:00 $01:00 $02:00
Timing: Current Emulated Cycle: 1578, Last IRQ Trigger Cycle: 0, Cycles Since Last IRQ: 1578
Emulated Cycles: 1578

8155: 9D 00 C1    STA $C100,X
CPU State: PC:8158 A:EA X:08 Y:00 SP:FD Status:A5 (NV-B DIZC)
RAM State: $00:00 $01:00 $02:00
Timing: Current Emulated Cycle: 1583, Last IRQ Trigger Cycle: 0, Cycles Since Last IRQ: 1583
Emulated Cycles: 1583

8158: E8          INX
CPU State: PC:8159 A:EA X:09 Y:00 SP:FD Status:25 (NV-B DIZC)
RAM State: $00:00 $01:00 $02:00
Timing: Current Emulated Cycle: 1585, Last IRQ Trigger Cycle: 0, Cycles Since Last IRQ: 1585
Emulated Cycles: 1585

8159: D0 F8       BNE $8153
CPU State: PC:8153 A:EA X:09 Y:00 SP:FD Status:25 (NV-B DIZC)
RAM State: $00:00 $01:00 $02:00
Timing: Current Emulated Cycle: 1588, Last IRQ Trigger Cycle: 0, Cycles Since Last IRQ: 1588
Emulated Cycles: 1588

8153: A9 EA       LDA #$EA
CPU State: PC:8155 A:EA X:09 Y:00 SP:FD Status:A5 (NV-B DIZC)
RAM State: $00:00 $01:00 $02:00
Timing: Current Emulated Cycle: 1590, Last IRQ Trigger Cycle: 0, Cycles Since Last IRQ: 1590
Emulated Cycles: 1590

8155: 9D 00 C1    STA $C100,X
CPU State: PC:8158 A:EA X:09 Y:00 SP:FD Status:A5 (NV-B DIZC)
RAM State: $00:00 $01:00 $02:00
Timing: Current Emulated Cycle: 1595, Last IRQ Trigger Cycle: 0, Cycles Since Last IRQ: 1595
Emulated Cycles: 1595

8158: E8          INX
CPU State: PC:8159 A:EA X:0A Y:00 SP:FD Status:25 (NV-B DIZC)
RAM State: $00:00 $01:00 $02:00
Timing: Current Emulated Cycle: 1597, Last IRQ Trigger Cycle: 0, Cycles Since Last IRQ: 1597
Emulated Cycles: 1597

8159: D0 F8       BNE $8153
CPU State: PC:8153 A:EA X:0A Y:00 SP:FD Status:25 (NV-B DIZC)
RAM State: $00:00 $01:00 $02:00
Timing: Current Emulated Cycle: 1600, Last IRQ Trigger Cycle: 0, Cycles Since Last IRQ: 1600
Emulated Cycles: 1600

8153: A9 EA       LDA #$EA
CPU State: PC:8155 A:EA X:0A Y:00 SP:FD Status:A5 (NV-B DIZC)
RAM State: $00:00 $01:00 $02:00
Timing: Current Emulated Cycle: 1602, Last IRQ Trigger Cycle: 0, Cycles Since Last IRQ: 1602
Emulated Cycles: 1602

8155: 9D 00 C1    STA $C100,X
CPU State: PC:8158 A:EA X:0A Y:00 SP:FD Status:A5 (NV-B DIZC)
RAM State: $00:00 $01:00 $02:00
Timing: Current Emulated Cycle: 1607, Last IRQ Trigger Cycle: 0, Cycles Since Last IRQ: 1607
Emulated Cycles: 1607

8158: E8          INX
CPU State: PC:8159 A:EA X:0B Y:00 SP:FD Status:25 (NV-B DIZC)
RAM State: $00:00 $01:00 $02:00
Timing: Current Emulated Cycle: 1609, Last IRQ Trigger Cycle: 0, Cycles Since Last IRQ: 1609
Emulated Cycles: 1609

8159: D0 F8       BNE $8153
CPU State: PC:8153 A:EA X:0B Y:00 SP:FD Status:25 (NV-B DIZC)
RAM State: $00:00 $01:00 $02:00
Timing: Current Emulated Cycle: 1612, Last IRQ Trigger Cycle: 0, Cycles Since Last IRQ: 1612
Emulated Cycles: 1612

8153: A9 EA       LDA #$EA
CPU State: PC:8155 A:EA X:0B Y:00 SP:FD Status:A5 (NV-B DIZC)
RAM State: $00:00 $01:00 $02:00
Timing: Current Emulated Cycle: 1614, Last IRQ Trigger Cycle: 0, Cycles Since Last IRQ: 1614
Emulated Cycles: 1614

8155: 9D 00 C1    STA $C100,X
CPU State: PC:8158 A:EA X:0B Y:00 SP:FD Status:A5 (NV-B DIZC)
RAM State: $00:00 $01:00 $02:00
Timing: Current Emulated Cycle: 1619, Last IRQ Trigger Cycle: 0, Cycles Since Last IRQ: 1619
Emulated Cycles: 1619

8158: E8          INX
CPU State: PC:8159 A:EA X:0C Y:00 SP:FD Status:25 (NV-B DIZC)
RAM State: $00:00 $01:00 $02:00
Timing: Current Emulated Cycle: 1621, Last IRQ Trigger Cycle: 0, Cycles Since Last IRQ: 1621
Emulated Cycles: 1621

8159: D0 F8       BNE $8153
CPU State: PC:8153 A:EA X:0C Y:00 SP:FD Status:25 (NV-B DIZC)
RAM State: $00:00 $01:00 $02:00
Timing: Current Emulated Cycle: 1624, Last IRQ Trigger Cycle: 0, Cycles Since Last IRQ: 1624
Emulated Cycles: 1624

8153: A9 EA       LDA #$EA
CPU State: PC:8155 A:EA X:0C Y:00 SP:FD Status:A5 (NV-B DIZC)
RAM State: $00:00 $01:00 $02:00
Timing: Current Emulated Cycle: 1626, Last IRQ Trigger Cycle: 0, Cycles Since Last IRQ: 1626
Emulated Cycles: 1626

8155: 9D 00 C1    STA $C100,X
CPU State: PC:8158 A:EA X:0C Y:00 SP:FD Status:A5 (NV-B DIZC)
RAM State: $00:00 $01:00 $02:00
Timing: Current Emulated Cycle: 1631, Last IRQ Trigger Cycle: 0, Cycles Since Last IRQ: 1631
Emulated Cycles: 1631

8158: E8          INX
CPU State: PC:8159 A:EA X:0D Y:00 SP:FD Status:25 (NV-B DIZC)
RAM State: $00:00 $01:00 $02:00
Timing: Current Emulated Cycle: 1633, Last IRQ Trigger Cycle: 0, Cycles Since Last IRQ: 1633
Emulated Cycles: 1633

8159: D0 F8       BNE $8153
CPU State: PC:8153 A:EA X:0D Y:00 SP:FD Status:25 (NV-B DIZC)
RAM State: $00:00 $01:00 $02:00
Timing: Current Emulated Cycle: 1636, Last IRQ Trigger Cycle: 0, Cycles Since Last IRQ: 1636
Emulated Cycles: 1636

8153: A9 EA       LDA #$EA
CPU State: PC:8155 A:EA X:0D Y:00 SP:FD Status:A5 (NV-B DIZC)
RAM State: $00:00 $01:00 $02:00
Timing: Current Emulated Cycle: 1638, Last IRQ Trigger Cycle: 0, Cycles Since Last IRQ: 1638
Emulated Cycles: 1638

8155: 9D 00 C1    STA $C100,X
CPU State: PC:8158 A:EA X:0D Y:00 SP:FD Status:A5 (NV-B DIZC)
RAM State: $00:00 $01:00 $02:00
Timing: Current Emulated Cycle: 1643, Last IRQ Trigger Cycle: 0, Cycles Since Last IRQ: 1643
Emulated Cycles: 1643

8158: E8          INX
CPU State: PC:8159 A:EA X:0E Y:00 SP:FD Status:25 (NV-B DIZC)
RAM State: $00:00 $01:00 $02:00
Timing: Current Emulated Cycle: 1645, Last IRQ Trigger Cycle: 0, Cycles Since Last IRQ: 1645
Emulated Cycles: 1645

8159: D0 F8       BNE $8153
CPU State: PC:8153 A:EA X:0E Y:00 SP:FD Status:25 (NV-B DIZC)
RAM State: $00:00 $01:00 $02:00
Timing: Current Emulated Cycle: 1648, Last IRQ Trigger Cycle: 0, Cycles Since Last IRQ: 1648
Emulated Cycles: 1648

8153: A9 EA       LDA #$EA
CPU State: PC:8155 A:EA X:0E Y:00 SP:FD Status:A5 (NV-B DIZC)
RAM State: $00:00 $01:00 $02:00
Timing: Current Emulated Cycle: 1650, Last IRQ Trigger Cycle: 0, Cycles Since Last IRQ: 1650
Emulated Cycles: 1650

8155: 9D 00 C1    STA $C100,X
CPU State: PC:8158 A:EA X:0E Y:00 SP:FD Status:A5 (NV-B DIZC)
RAM State: $00:00 $01:00 $02:00
Timing: Current Emulated Cycle: 1655, Last IRQ Trigger Cycle: 0, Cycles Since Last IRQ: 1655
Emulated Cycles: 1655

8158: E8          INX
CPU State: PC:8159 A:EA X:0F Y:00 SP:FD Status:25 (NV-B DIZC)
RAM State: $00:00 $01:00 $02:00
Timing: Current Emulated Cycle: 1657, Last IRQ Trigger Cycle: 0, Cycles Since Last IRQ: 1657
Emulated Cycles: 1657

8159: D0 F8       BNE $8153
CPU State: PC:8153 A:EA X:0F Y:00 SP:FD Status:25 (NV-B DIZC)
RAM State: $00:00 $01:00 $02:00
Timing: Current Emulated Cycle: 1660, Last IRQ Trigger Cycle: 0, Cycles Since Last IRQ: 1660
Emulated Cycles: 1660

8153: A9 EA       LDA #$EA
CPU State: PC:8155 A:EA X:0F Y:00 SP:FD Status:A5 (NV-B DIZC)
RAM State: $00:00 $01:00 $02:00
Timing: Current Emulated Cycle: 1662, Last IRQ Trigger Cycle: 0, Cycles Since Last IRQ: 1662
Emulated Cycles: 1662

8155: 9D 00 C1    STA $C100,X
CPU State: PC:8158 A:EA X:0F Y:00 SP:FD Status:A5 (NV-B DIZC)
RAM State: $00:00 $01:00 $02:00
Timing: Current Emulated Cycle: 1667, Last IRQ Trigger Cycle: 0, Cycles Since Last IRQ: 1667
Emulated Cycles: 1667

8158: E8          INX
CPU State: PC:8159 A:EA X:10 Y:00 SP:FD Status:25 (NV-B DIZC)
RAM State: $00:00 $01:00 $02:00
Timing: Current Emulated Cycle: 1669, Last IRQ Trigger Cycle: 0, Cycles Since Last IRQ: 1669
Emulated Cycles: 1669

8159: D0 F8       BNE $8153
CPU State: PC:8153 A:EA X:10 Y:00 SP:FD Status:25 (NV-B DIZC)
RAM State: $00:00 $01:00 $02:00
Timing: Current Emulated Cycle: 1672, Last IRQ Trigger Cycle: 0, Cycles Since Last IRQ: 1672
Emulated Cycles: 1672

8153: A9 EA       LDA #$EA
CPU State: PC:8155 A:EA X:10 Y:00 SP:FD Status:A5 (NV-B DIZC)
RAM State: $00:00 $01:00 $02:00
Timing: Current Emulated Cycle: 1674, Last IRQ Trigger Cycle: 0, Cycles Since Last IRQ: 1674
Emulated Cycles: 1674

8155: 9D 00 C1    STA $C100,X
CPU State: PC:8158 A:EA X:10 Y:00 SP:FD Status:A5 (NV-B DIZC)
RAM State: $00:00 $01:00 $02:00
Timing: Current Emulated Cycle: 1679, Last IRQ Trigger Cycle: 0, Cycles Since Last IRQ: 1679
Emulated Cycles: 1679

8158: E8          INX
CPU State: PC:8159 A:EA X:11 Y:00 SP:FD Status:25 (NV-B DIZC)
RAM State: $00:00 $01:00 $02:00
Timing: Current Emulated Cycle: 1681, Last IRQ Trigger Cycle: 0, Cycles Since Last IRQ: 1681
Emulated Cycles: 1681

8159: D0 F8       BNE $8153
CPU State: PC:8153 A:EA X:11 Y:00 SP:FD Status:25 (NV-B DIZC)
RAM State: $00:00 $01:00 $02:00
Timing: Current Emulated Cycle: 1684, Last IRQ Trigger Cycle: 0, Cycles Since Last IRQ: 1684
Emulated Cycles: 1684

8153: A9 EA       LDA #$EA
CPU State: PC:8155 A:EA X:11 Y:00 SP:FD Status:A5 (NV-B DIZC)
RAM State: $00:00 $01:00 $02:00
Timing: Current Emulated Cycle: 1686, Last IRQ Trigger Cycle: 0, Cycles Since Last IRQ: 1686
Emulated Cycles: 1686

8155: 9D 00 C1    STA $C100,X
CPU State: PC:8158 A:EA X:11 Y:00 SP:FD Status:A5 (NV-B DIZC)
RAM State: $00:00 $01:00 $02:00
Timing: Current Emulated Cycle: 1691, Last IRQ Trigger Cycle: 0, Cycles Since Last IRQ: 1691
Emulated Cycles: 1691

8158: E8          INX
CPU State: PC:8159 A:EA X:12 Y:00 SP:FD Status:25 (NV-B DIZC)
RAM State: $00:00 $01:00 $02:00
Timing: Current Emulated Cycle: 1693, Last IRQ Trigger Cycle: 0, Cycles Since Last IRQ: 1693
Emulated Cycles: 1693

8159: D0 F8       BNE $8153
CPU State: PC:8153 A:EA X:12 Y:00 SP:FD Status:25 (NV-B DIZC)
RAM State: $00:00 $01:00 $02:00
Timing: Current Emulated Cycle: 1696, Last IRQ Trigger Cycle: 0, Cycles Since Last IRQ: 1696
Emulated Cycles: 1696

8153: A9 EA       LDA #$EA
CPU State: PC:8155 A:EA X:12 Y:00 SP:FD Status:A5 (NV-B DIZC)
RAM State: $00:00 $01:00 $02:00
Timing: Current Emulated Cycle: 1698, Last IRQ Trigger Cycle: 0, Cycles Since Last IRQ: 1698
Emulated Cycles: 1698

8155: 9D 00 C1    STA $C100,X
CPU State: PC:8158 A:EA X:12 Y:00 SP:FD Status:A5 (NV-B DIZC)
RAM State: $00:00 $01:00 $02:00
Timing: Current Emulated Cycle: 1703, Last IRQ Trigger Cycle: 0, Cycles Since Last IRQ: 1703
Emulated Cycles: 1703

8158: E8          INX
CPU State: PC:8159 A:EA X:13 Y:00 SP:FD Status:25 (NV-B DIZC)
RAM State: $00:00 $01:00 $02:00
Timing: Current Emulated Cycle: 1705, Last IRQ Trigger Cycle: 0, Cycles Since Last IRQ: 1705
Emulated Cycles: 1705

8159: D0 F8       BNE $8153
CPU State: PC:8153 A:EA X:13 Y:00 SP:FD Status:25 (NV-B DIZC)
RAM State: $00:00 $01:00 $02:00
Timing: Current Emulated Cycle: 1708, Last IRQ Trigger Cycle: 0, Cycles Since Last IRQ: 1708
Emulated Cycles: 1708

8153: A9 EA       LDA #$EA
CPU State: PC:8155 A:EA X:13 Y:00 SP:FD Status:A5 (NV-B DIZC)
RAM State: $00:00 $01:00 $02:00
Timing: Current Emulated Cycle: 1710, Last IRQ Trigger Cycle: 0, Cycles Since Last IRQ: 1710
Emulated Cycles: 1710

8155: 9D 00 C1    STA $C100,X
CPU State: PC:8158 A:EA X:13 Y:00 SP:FD Status:A5 (NV-B DIZC)
RAM State: $00:00 $01:00 $02:00
Timing: Current Emulated Cycle: 1715, Last IRQ Trigger Cycle: 0, Cycles Since Last IRQ: 1715
Emulated Cycles: 1715

8158: E8          INX
CPU State: PC:8159 A:EA X:14 Y:00 SP:FD Status:25 (NV-B DIZC)
RAM State: $00:00 $01:00 $02:00
Timing: Current Emulated Cycle: 1717, Last IRQ Trigger Cycle: 0, Cycles Since Last IRQ: 1717
Emulated Cycles: 1717

8159: D0 F8       BNE $8153
CPU State: PC:8153 A:EA X:14 Y:00 SP:FD Status:25 (NV-B DIZC)
RAM State: $00:00 $01:00 $02:00
Timing: Current Emulated Cycle: 1720, Last IRQ Trigger Cycle: 0, Cycles Since Last IRQ: 1720
Emulated Cycles: 1720

8153: A9 EA       LDA #$EA
CPU State: PC:8155 A:EA X:14 Y:00 SP:FD Status:A5 (NV-B DIZC)
RAM State: $00:00 $01:00 $02:00
Timing: Current Emulated Cycle: 1722, Last IRQ Trigger Cycle: 0, Cycles Since Last IRQ: 1722
Emulated Cycles: 1722

8155: 9D 00 C1    STA $C100,X
CPU State: PC:8158 A:EA X:14 Y:00 SP:FD Status:A5 (NV-B DIZC)
RAM State: $00:00 $01:00 $02:00
Timing: Current Emulated Cycle: 1727, Last IRQ Trigger Cycle: 0, Cycles Since Last IRQ: 1727
Emulated Cycles: 1727

8158: E8          INX
CPU State: PC:8159 A:EA X:15 Y:00 SP:FD Status:25 (NV-B DIZC)
RAM State: $00:00 $01:00 $02:00
Timing: Current Emulated Cycle: 1729, Last IRQ Trigger Cycle: 0, Cycles Since Last IRQ: 1729
Emulated Cycles: 1729

8159: D0 F8       BNE $8153
CPU State: PC:8153 A:EA X:15 Y:00 SP:FD Status:25 (NV-B DIZC)
RAM State: $00:00 $01:00 $02:00
Timing: Current Emulated Cycle: 1732, Last IRQ Trigger Cycle: 0, Cycles Since Last IRQ: 1732
Emulated Cycles: 1732

8153: A9 EA       LDA #$EA
CPU State: PC:8155 A:EA X:15 Y:00 SP:FD Status:A5 (NV-B DIZC)
RAM State: $00:00 $01:00 $02:00
Timing: Current Emulated Cycle: 1734, Last IRQ Trigger Cycle: 0, Cycles Since Last IRQ: 1734
Emulated Cycles: 1734

8155: 9D 00 C1    STA $C100,X
CPU State: PC:8158 A:EA X:15 Y:00 SP:FD Status:A5 (NV-B DIZC)
RAM State: $00:00 $01:00 $02:00
Timing: Current Emulated Cycle: 1739, Last IRQ Trigger Cycle: 0, Cycles Since Last IRQ: 1739
Emulated Cycles: 1739

8158: E8          INX
CPU State: PC:8159 A:EA X:16 Y:00 SP:FD Status:25 (NV-B DIZC)
RAM State: $00:00 $01:00 $02:00
Timing: Current Emulated Cycle: 1741, Last IRQ Trigger Cycle: 0, Cycles Since Last IRQ: 1741
Emulated Cycles: 1741

8159: D0 F8       BNE $8153
CPU State: PC:8153 A:EA X:16 Y:00 SP:FD Status:25 (NV-B DIZC)
RAM State: $00:00 $01:00 $02:00
Timing: Current Emulated Cycle: 1744, Last IRQ Trigger Cycle: 0, Cycles Since Last IRQ: 1744
Emulated Cycles: 1744

8153: A9 EA       LDA #$EA
CPU State: PC:8155 A:EA X:16 Y:00 SP:FD Status:A5 (NV-B DIZC)
RAM State: $00:00 $01:00 $02:00
Timing: Current Emulated Cycle: 1746, Last IRQ Trigger Cycle: 0, Cycles Since Last IRQ: 1746
Emulated Cycles: 1746

8155: 9D 00 C1    STA $C100,X
CPU State: PC:8158 A:EA X:16 Y:00 SP:FD Status:A5 (NV-B DIZC)
RAM State: $00:00 $01:00 $02:00
Timing: Current Emulated Cycle: 1751, Last IRQ Trigger Cycle: 0, Cycles Since Last IRQ: 1751
Emulated Cycles: 1751

8158: E8          INX
CPU State: PC:8159 A:EA X:17 Y:00 SP:FD Status:25 (NV-B DIZC)
RAM State: $00:00 $01:00 $02:00
Timing: Current Emulated Cycle: 1753, Last IRQ Trigger Cycle: 0, Cycles Since Last IRQ: 1753
Emulated Cycles: 1753

8159: D0 F8       BNE $8153
CPU State: PC:8153 A:EA X:17 Y:00 SP:FD Status:25 (NV-B DIZC)
RAM State: $00:00 $01:00 $02:00
Timing: Current Emulated Cycle: 1756, Last IRQ Trigger Cycle: 0, Cycles Since Last IRQ: 1756
Emulated Cycles: 1756

8153: A9 EA       LDA #$EA
CPU State: PC:8155 A:EA X:17 Y:00 SP:FD Status:A5 (NV-B DIZC)
RAM State: $00:00 $01:00 $02:00
Timing: Current Emulated Cycle: 1758, Last IRQ Trigger Cycle: 0, Cycles Since Last IRQ: 1758
Emulated Cycles: 1758

8155: 9D 00 C1    STA $C100,X
CPU State: PC:8158 A:EA X:17 Y:00 SP:FD Status:A5 (NV-B DIZC)
RAM State: $00:00 $01:00 $02:00
Timing: Current Emulated Cycle: 1763, Last IRQ Trigger Cycle: 0, Cycles Since Last IRQ: 1763
Emulated Cycles: 1763

8158: E8          INX
CPU State: PC:8159 A:EA X:18 Y:00 SP:FD Status:25 (NV-B DIZC)
RAM State: $00:00 $01:00 $02:00
Timing: Current Emulated Cycle: 1765, Last IRQ Trigger Cycle: 0, Cycles Since Last IRQ: 1765
Emulated Cycles: 1765

8159: D0 F8       BNE $8153
CPU State: PC:8153 A:EA X:18 Y:00 SP:FD Status:25 (NV-B DIZC)
RAM State: $00:00 $01:00 $02:00
Timing: Current Emulated Cycle: 1768, Last IRQ Trigger Cycle: 0, Cycles Since Last IRQ: 1768
Emulated Cycles: 1768

8153: A9 EA       LDA #$EA
CPU State: PC:8155 A:EA X:18 Y:00 SP:FD Status:A5 (NV-B DIZC)
RAM State: $00:00 $01:00 $02:00
Timing: Current Emulated Cycle: 1770, Last IRQ Trigger Cycle: 0, Cycles Since Last IRQ: 1770
Emulated Cycles: 1770

8155: 9D 00 C1    STA $C100,X
CPU State: PC:8158 A:EA X:18 Y:00 SP:FD Status:A5 (NV-B DIZC)
RAM State: $00:00 $01:00 $02:00
Timing: Current Emulated Cycle: 1775, Last IRQ Trigger Cycle: 0, Cycles Since Last IRQ: 1775
Emulated Cycles: 1775

8158: E8          INX
CPU State: PC:8159 A:EA X:19 Y:00 SP:FD Status:25 (NV-B DIZC)
RAM State: $00:00 $01:00 $02:00
Timing: Current Emulated Cycle: 1777, Last IRQ Trigger Cycle: 0, Cycles Since Last IRQ: 1777
Emulated Cycles: 1777

8159: D0 F8       BNE $8153
CPU State: PC:8153 A:EA X:19 Y:00 SP:FD Status:25 (NV-B DIZC)
RAM State: $00:00 $01:00 $02:00
Timing: Current Emulated Cycle: 1780, Last IRQ Trigger Cycle: 0, Cycles Since Last IRQ: 1780
Emulated Cycles: 1780

8153: A9 EA       LDA #$EA
CPU State: PC:8155 A:EA X:19 Y:00 SP:FD Status:A5 (NV-B DIZC)
RAM State: $00:00 $01:00 $02:00
Timing: Current Emulated Cycle: 1782, Last IRQ Trigger Cycle: 0, Cycles Since Last IRQ: 1782
Emulated Cycles: 1782

8155: 9D 00 C1    STA $C100,X
CPU State: PC:8158 A:EA X:19 Y:00 SP:FD Status:A5 (NV-B DIZC)
RAM State: $00:00 $01:00 $02:00
Timing: Current Emulated Cycle: 1787, Last IRQ Trigger Cycle: 0, Cycles Since Last IRQ: 1787
Emulated Cycles: 1787

8158: E8          INX
CPU State: PC:8159 A:EA X:1A Y:00 SP:FD Status:25 (NV-B DIZC)
RAM State: $00:00 $01:00 $02:00
Timing: Current Emulated Cycle: 1789, Last IRQ Trigger Cycle: 0, Cycles Since Last IRQ: 1789
Emulated Cycles: 1789

8159: D0 F8       BNE $8153
CPU State: PC:8153 A:EA X:1A Y:00 SP:FD Status:25 (NV-B DIZC)
RAM State: $00:00 $01:00 $02:00
Timing: Current Emulated Cycle: 1792, Last IRQ Trigger Cycle: 0, Cycles Since Last IRQ: 1792
Emulated Cycles: 1792

8153: A9 EA       LDA #$EA
CPU State: PC:8155 A:EA X:1A Y:00 SP:FD Status:A5 (NV-B DIZC)
RAM State: $00:00 $01:00 $02:00
Timing: Current Emulated Cycle: 1794, Last IRQ Trigger Cycle: 0, Cycles Since Last IRQ: 1794
Emulated Cycles: 1794

8155: 9D 00 C1    STA $C100,X
CPU State: PC:8158 A:EA X:1A Y:00 SP:FD Status:A5 (NV-B DIZC)
RAM State: $00:00 $01:00 $02:00
Timing: Current Emulated Cycle: 1799, Last IRQ Trigger Cycle: 0, Cycles Since Last IRQ: 1799
Emulated Cycles: 1799

8158: E8          INX
CPU State: PC:8159 A:EA X:1B Y:00 SP:FD Status:25 (NV-B DIZC)
RAM State: $00:00 $01:00 $02:00
Timing: Current Emulated Cycle: 1801, Last IRQ Trigger Cycle: 0, Cycles Since Last IRQ: 1801
Emulated Cycles: 1801

8159: D0 F8       BNE $8153
CPU State: PC:8153 A:EA X:1B Y:00 SP:FD Status:25 (NV-B DIZC)
RAM State: $00:00 $01:00 $02:00
Timing: Current Emulated Cycle: 1804, Last IRQ Trigger Cycle: 0, Cycles Since Last IRQ: 1804
Emulated Cycles: 1804

8153: A9 EA       LDA #$EA
CPU State: PC:8155 A:EA X:1B Y:00 SP:FD Status:A5 (NV-B DIZC)
RAM State: $00:00 $01:00 $02:00
Timing: Current Emulated Cycle: 1806, Last IRQ Trigger Cycle: 0, Cycles Since Last IRQ: 1806
Emulated Cycles: 1806

8155: 9D 00 C1    STA $C100,X
CPU State: PC:8158 A:EA X:1B Y:00 SP:FD Status:A5 (NV-B DIZC)
RAM State: $00:00 $01:00 $02:00
Timing: Current Emulated Cycle: 1811, Last IRQ Trigger Cycle: 0, Cycles Since Last IRQ: 1811
Emulated Cycles: 1811

8158: E8          INX
CPU State: PC:8159 A:EA X:1C Y:00 SP:FD Status:25 (NV-B DIZC)
RAM State: $00:00 $01:00 $02:00
Timing: Current Emulated Cycle: 1813, Last IRQ Trigger Cycle: 0, Cycles Since Last IRQ: 1813
Emulated Cycles: 1813

8159: D0 F8       BNE $8153
CPU State: PC:8153 A:EA X:1C Y:00 SP:FD Status:25 (NV-B DIZC)
RAM State: $00:00 $01:00 $02:00
Timing: Current Emulated Cycle: 1816, Last IRQ Trigger Cycle: 0, Cycles Since Last IRQ: 1816
Emulated Cycles: 1816

8153: A9 EA       LDA #$EA
CPU State: PC:8155 A:EA X:1C Y:00 SP:FD Status:A5 (NV-B DIZC)
RAM State: $00:00 $01:00 $02:00
Timing: Current Emulated Cycle: 1818, Last IRQ Trigger Cycle: 0, Cycles Since Last IRQ: 1818
Emulated Cycles: 1818

8155: 9D 00 C1    STA $C100,X
CPU State: PC:8158 A:EA X:1C Y:00 SP:FD Status:A5 (NV-B DIZC)
RAM State: $00:00 $01:00 $02:00
Timing: Current Emulated Cycle: 1823, Last IRQ Trigger Cycle: 0, Cycles Since Last IRQ: 1823
Emulated Cycles: 1823

8158: E8          INX
CPU State: PC:8159 A:EA X:1D Y:00 SP:FD Status:25 (NV-B DIZC)
RAM State: $00:00 $01:00 $02:00
Timing: Current Emulated Cycle: 1825, Last IRQ Trigger Cycle: 0, Cycles Since Last IRQ: 1825
Emulated Cycles: 1825

8159: D0 F8       BNE $8153
CPU State: PC:8153 A:EA X:1D Y:00 SP:FD Status:25 (NV-B DIZC)
RAM State: $00:00 $01:00 $02:00
Timing: Current Emulated Cycle: 1828, Last IRQ Trigger Cycle: 0, Cycles Since Last IRQ: 1828
Emulated Cycles: 1828

8153: A9 EA       LDA #$EA
CPU State: PC:8155 A:EA X:1D Y:00 SP:FD Status:A5 (NV-B DIZC)
RAM State: $00:00 $01:00 $02:00
Timing: Current Emulated Cycle: 1830, Last IRQ Trigger Cycle: 0, Cycles Since Last IRQ: 1830
Emulated Cycles: 1830

8155: 9D 00 C1    STA $C100,X
CPU State: PC:8158 A:EA X:1D Y:00 SP:FD Status:A5 (NV-B DIZC)
RAM State: $00:00 $01:00 $02:00
Timing: Current Emulated Cycle: 1835, Last IRQ Trigger Cycle: 0, Cycles Since Last IRQ: 1835
Emulated Cycles: 1835

8158: E8          INX
CPU State: PC:8159 A:EA X:1E Y:00 SP:FD Status:25 (NV-B DIZC)
RAM State: $00:00 $01:00 $02:00
Timing: Current Emulated Cycle: 1837, Last IRQ Trigger Cycle: 0, Cycles Since Last IRQ: 1837
Emulated Cycles: 1837

8159: D0 F8       BNE $8153
CPU State: PC:8153 A:EA X:1E Y:00 SP:FD Status:25 (NV-B DIZC)
RAM State: $00:00 $01:00 $02:00
Timing: Current Emulated Cycle: 1840, Last IRQ Trigger Cycle: 0, Cycles Since Last IRQ: 1840
Emulated Cycles: 1840

8153: A9 EA       LDA #$EA
CPU State: PC:8155 A:EA X:1E Y:00 SP:FD Status:A5 (NV-B DIZC)
RAM State: $00:00 $01:00 $02:00
Timing: Current Emulated Cycle: 1842, Last IRQ Trigger Cycle: 0, Cycles Since Last IRQ: 1842
Emulated Cycles: 1842

8155: 9D 00 C1    STA $C100,X
CPU State: PC:8158 A:EA X:1E Y:00 SP:FD Status:A5 (NV-B DIZC)
RAM State: $00:00 $01:00 $02:00
Timing: Current Emulated Cycle: 1847, Last IRQ Trigger Cycle: 0, Cycles Since Last IRQ: 1847
Emulated Cycles: 1847

8158: E8          INX
CPU State: PC:8159 A:EA X:1F Y:00 SP:FD Status:25 (NV-B DIZC)
RAM State: $00:00 $01:00 $02:00
Timing: Current Emulated Cycle: 1849, Last IRQ Trigger Cycle: 0, Cycles Since Last IRQ: 1849
Emulated Cycles: 1849

8159: D0 F8       BNE $8153
CPU State: PC:8153 A:EA X:1F Y:00 SP:FD Status:25 (NV-B DIZC)
RAM State: $00:00 $01:00 $02:00
Timing: Current Emulated Cycle: 1852, Last IRQ Trigger Cycle: 0, Cycles Since Last IRQ: 1852
Emulated Cycles: 1852

8153: A9 EA       LDA #$EA
CPU State: PC:8155 A:EA X:1F Y:00 SP:FD Status:A5 (NV-B DIZC)
RAM State: $00:00 $01:00 $02:00
Timing: Current Emulated Cycle: 1854, Last IRQ Trigger Cycle: 0, Cycles Since Last IRQ: 1854
Emulated Cycles: 1854

8155: 9D 00 C1    STA $C100,X
CPU State: PC:8158 A:EA X:1F Y:00 SP:FD Status:A5 (NV-B DIZC)
RAM State: $00:00 $01:00 $02:00
Timing: Current Emulated Cycle: 1859, Last IRQ Trigger Cycle: 0, Cycles Since Last IRQ: 1859
Emulated Cycles: 1859

8158: E8          INX
CPU State: PC:8159 A:EA X:20 Y:00 SP:FD Status:25 (NV-B DIZC)
RAM State: $00:00 $01:00 $02:00
Timing: Current Emulated Cycle: 1861, Last IRQ Trigger Cycle: 0, Cycles Since Last IRQ: 1861
Emulated Cycles: 1861

8159: D0 F8       BNE $8153
CPU State: PC:8153 A:EA X:20 Y:00 SP:FD Status:25 (NV-B DIZC)
RAM State: $00:00 $01:00 $02:00
Timing: Current Emulated Cycle: 1864, Last IRQ Trigger Cycle: 0, Cycles Since Last IRQ: 1864
Emulated Cycles: 1864

8153: A9 EA       LDA #$EA
CPU State: PC:8155 A:EA X:20 Y:00 SP:FD Status:A5 (NV-B DIZC)
RAM State: $00:00 $01:00 $02:00
Timing: Current Emulated Cycle: 1866, Last IRQ Trigger Cycle: 0, Cycles Since Last IRQ: 1866
Emulated Cycles: 1866

8155: 9D 00 C1    STA $C100,X
CPU State: PC:8158 A:EA X:20 Y:00 SP:FD Status:A5 (NV-B DIZC)
RAM State: $00:00 $01:00 $02:00
Timing: Current Emulated Cycle: 1871, Last IRQ Trigger Cycle: 0, Cycles Since Last IRQ: 1871
Emulated Cycles: 1871

8158: E8          INX
CPU State: PC:8159 A:EA X:21 Y:00 SP:FD Status:25 (NV-B DIZC)
RAM State: $00:00 $01:00 $02:00
Timing: Current Emulated Cycle: 1873, Last IRQ Trigger Cycle: 0, Cycles Since Last IRQ: 1873
Emulated Cycles: 1873

8159: D0 F8       BNE $8153
CPU State: PC:8153 A:EA X:21 Y:00 SP:FD Status:25 (NV-B DIZC)
RAM State: $00:00 $01:00 $02:00
Timing: Current Emulated Cycle: 1876, Last IRQ Trigger Cycle: 0, Cycles Since Last IRQ: 1876
Emulated Cycles: 1876

8153: A9 EA       LDA #$EA
CPU State: PC:8155 A:EA X:21 Y:00 SP:FD Status:A5 (NV-B DIZC)
RAM State: $00:00 $01:00 $02:00
Timing: Current Emulated Cycle: 1878, Last IRQ Trigger Cycle: 0, Cycles Since Last IRQ: 1878
Emulated Cycles: 1878

8155: 9D 00 C1    STA $C100,X
CPU State: PC:8158 A:EA X:21 Y:00 SP:FD Status:A5 (NV-B DIZC)
RAM State: $00:00 $01:00 $02:00
Timing: Current Emulated Cycle: 1883, Last IRQ Trigger Cycle: 0, Cycles Since Last IRQ: 1883
Emulated Cycles: 1883

8158: E8          INX
CPU State: PC:8159 A:EA X:22 Y:00 SP:FD Status:25 (NV-B DIZC)
RAM State: $00:00 $01:00 $02:00
Timing: Current Emulated Cycle: 1885, Last IRQ Trigger Cycle: 0, Cycles Since Last IRQ: 1885
Emulated Cycles: 1885

8159: D0 F8       BNE $8153
CPU State: PC:8153 A:EA X:22 Y:00 SP:FD Status:25 (NV-B DIZC)
RAM State: $00:00 $01:00 $02:00
Timing: Current Emulated Cycle: 1888, Last IRQ Trigger Cycle: 0, Cycles Since Last IRQ: 1888
Emulated Cycles: 1888

8153: A9 EA       LDA #$EA
CPU State: PC:8155 A:EA X:22 Y:00 SP:FD Status:A5 (NV-B DIZC)
RAM State: $00:00 $01:00 $02:00
Timing: Current Emulated Cycle: 1890, Last IRQ Trigger Cycle: 0, Cycles Since Last IRQ: 1890
Emulated Cycles: 1890

8155: 9D 00 C1    STA $C100,X
CPU State: PC:8158 A:EA X:22 Y:00 SP:FD Status:A5 (NV-B DIZC)
RAM State: $00:00 $01:00 $02:00
Timing: Current Emulated Cycle: 1895, Last IRQ Trigger Cycle: 0, Cycles Since Last IRQ: 1895
Emulated Cycles: 1895

8158: E8          INX
CPU State: PC:8159 A:EA X:23 Y:00 SP:FD Status:25 (NV-B DIZC)
RAM State: $00:00 $01:00 $02:00
Timing: Current Emulated Cycle: 1897, Last IRQ Trigger Cycle: 0, Cycles Since Last IRQ: 1897
Emulated Cycles: 1897

8159: D0 F8       BNE $8153
CPU State: PC:8153 A:EA X:23 Y:00 SP:FD Status:25 (NV-B DIZC)
RAM State: $00:00 $01:00 $02:00
Timing: Current Emulated Cycle: 1900, Last IRQ Trigger Cycle: 0, Cycles Since Last IRQ: 1900
Emulated Cycles: 1900

8153: A9 EA       LDA #$EA
CPU State: PC:8155 A:EA X:23 Y:00 SP:FD Status:A5 (NV-B DIZC)
RAM State: $00:00 $01:00 $02:00
Timing: Current Emulated Cycle: 1902, Last IRQ Trigger Cycle: 0, Cycles Since Last IRQ: 1902
Emulated Cycles: 1902

8155: 9D 00 C1    STA $C100,X
CPU State: PC:8158 A:EA X:23 Y:00 SP:FD Status:A5 (NV-B DIZC)
RAM State: $00:00 $01:00 $02:00
Timing: Current Emulated Cycle: 1907, Last IRQ Trigger Cycle: 0, Cycles Since Last IRQ: 1907
Emulated Cycles: 1907

8158: E8          INX
CPU State: PC:8159 A:EA X:24 Y:00 SP:FD Status:25 (NV-B DIZC)
RAM State: $00:00 $01:00 $02:00
Timing: Current Emulated Cycle: 1909, Last IRQ Trigger Cycle: 0, Cycles Since Last IRQ: 1909
Emulated Cycles: 1909

8159: D0 F8       BNE $8153
CPU State: PC:8153 A:EA X:24 Y:00 SP:FD Status:25 (NV-B DIZC)
RAM State: $00:00 $01:00 $02:00
Timing: Current Emulated Cycle: 1912, Last IRQ Trigger Cycle: 0, Cycles Since Last IRQ: 1912
Emulated Cycles: 1912

8153: A9 EA       LDA #$EA
CPU State: PC:8155 A:EA X:24 Y:00 SP:FD Status:A5 (NV-B DIZC)
RAM State: $00:00 $01:00 $02:00
Timing: Current Emulated Cycle: 1914, Last IRQ Trigger Cycle: 0, Cycles Since Last IRQ: 1914
Emulated Cycles: 1914

8155: 9D 00 C1    STA $C100,X
CPU State: PC:8158 A:EA X:24 Y:00 SP:FD Status:A5 (NV-B DIZC)
RAM State: $00:00 $01:00 $02:00
Timing: Current Emulated Cycle: 1919, Last IRQ Trigger Cycle: 0, Cycles Since Last IRQ: 1919
Emulated Cycles: 1919

8158: E8          INX
CPU State: PC:8159 A:EA X:25 Y:00 SP:FD Status:25 (NV-B DIZC)
RAM State: $00:00 $01:00 $02:00
Timing: Current Emulated Cycle: 1921, Last IRQ Trigger Cycle: 0, Cycles Since Last IRQ: 1921
Emulated Cycles: 1921

8159: D0 F8       BNE $8153
CPU State: PC:8153 A:EA X:25 Y:00 SP:FD Status:25 (NV-B DIZC)
RAM State: $00:00 $01:00 $02:00
Timing: Current Emulated Cycle: 1924, Last IRQ Trigger Cycle: 0, Cycles Since Last IRQ: 1924
Emulated Cycles: 1924

8153: A9 EA       LDA #$EA
CPU State: PC:8155 A:EA X:25 Y:00 SP:FD Status:A5 (NV-B DIZC)
RAM State: $00:00 $01:00 $02:00
Timing: Current Emulated Cycle: 1926, Last IRQ Trigger Cycle: 0, Cycles Since Last IRQ: 1926
Emulated Cycles: 1926

8155: 9D 00 C1    STA $C100,X
CPU State: PC:8158 A:EA X:25 Y:00 SP:FD Status:A5 (NV-B DIZC)
RAM State: $00:00 $01:00 $02:00
Timing: Current Emulated Cycle: 1931, Last IRQ Trigger Cycle: 0, Cycles Since Last IRQ: 1931
Emulated Cycles: 1931

8158: E8          INX
CPU State: PC:8159 A:EA X:26 Y:00 SP:FD Status:25 (NV-B DIZC)
RAM State: $00:00 $01:00 $02:00
Timing: Current Emulated Cycle: 1933, Last IRQ Trigger Cycle: 0, Cycles Since Last IRQ: 1933
Emulated Cycles: 1933

8159: D0 F8       BNE $8153
CPU State: PC:8153 A:EA X:26 Y:00 SP:FD Status:25 (NV-B DIZC)
RAM State: $00:00 $01:00 $02:00
Timing: Current Emulated Cycle: 1936, Last IRQ Trigger Cycle: 0, Cycles Since Last IRQ: 1936
Emulated Cycles: 1936

8153: A9 EA       LDA #$EA
CPU State: PC:8155 A:EA X:26 Y:00 SP:FD Status:A5 (NV-B DIZC)
RAM State: $00:00 $01:00 $02:00
Timing: Current Emulated Cycle: 1938, Last IRQ Trigger Cycle: 0, Cycles Since Last IRQ: 1938
Emulated Cycles: 1938

8155: 9D 00 C1    STA $C100,X
CPU State: PC:8158 A:EA X:26 Y:00 SP:FD Status:A5 (NV-B DIZC)
RAM State: $00:00 $01:00 $02:00
Timing: Current Emulated Cycle: 1943, Last IRQ Trigger Cycle: 0, Cycles Since Last IRQ: 1943
Emulated Cycles: 1943

8158: E8          INX
CPU State: PC:8159 A:EA X:27 Y:00 SP:FD Status:25 (NV-B DIZC)
RAM State: $00:00 $01:00 $02:00
Timing: Current Emulated Cycle: 1945, Last IRQ Trigger Cycle: 0, Cycles Since Last IRQ: 1945
Emulated Cycles: 1945

8159: D0 F8       BNE $8153
CPU State: PC:8153 A:EA X:27 Y:00 SP:FD Status:25 (NV-B DIZC)
RAM State: $00:00 $01:00 $02:00
Timing: Current Emulated Cycle: 1948, Last IRQ Trigger Cycle: 0, Cycles Since Last IRQ: 1948
Emulated Cycles: 1948

8153: A9 EA       LDA #$EA
CPU State: PC:8155 A:EA X:27 Y:00 SP:FD Status:A5 (NV-B DIZC)
RAM State: $00:00 $01:00 $02:00
Timing: Current Emulated Cycle: 1950, Last IRQ Trigger Cycle: 0, Cycles Since Last IRQ: 1950
Emulated Cycles: 1950

8155: 9D 00 C1    STA $C100,X
CPU State: PC:8158 A:EA X:27 Y:00 SP:FD Status:A5 (NV-B DIZC)
RAM State: $00:00 $01:00 $02:00
Timing: Current Emulated Cycle: 1955, Last IRQ Trigger Cycle: 0, Cycles Since Last IRQ: 1955
Emulated Cycles: 1955

8158: E8          INX
CPU State: PC:8159 A:EA X:28 Y:00 SP:FD Status:25 (NV-B DIZC)
RAM State: $00:00 $01:00 $02:00
Timing: Current Emulated Cycle: 1957, Last IRQ Trigger Cycle: 0, Cycles Since Last IRQ: 1957
Emulated Cycles: 1957

8159: D0 F8       BNE $8153
CPU State: PC:8153 A:EA X:28 Y:00 SP:FD Status:25 (NV-B DIZC)
RAM State: $00:00 $01:00 $02:00
Timing: Current Emulated Cycle: 1960, Last IRQ Trigger Cycle: 0, Cycles Since Last IRQ: 1960
Emulated Cycles: 1960

8153: A9 EA       LDA #$EA
CPU State: PC:8155 A:EA X:28 Y:00 SP:FD Status:A5 (NV-B DIZC)
RAM State: $00:00 $01:00 $02:00
Timing: Current Emulated Cycle: 1962, Last IRQ Trigger Cycle: 0, Cycles Since Last IRQ: 1962
Emulated Cycles: 1962

8155: 9D 00 C1    STA $C100,X
CPU State: PC:8158 A:EA X:28 Y:00 SP:FD Status:A5 (NV-B DIZC)
RAM State: $00:00 $01:00 $02:00
Timing: Current Emulated Cycle: 1967, Last IRQ Trigger Cycle: 0, Cycles Since Last IRQ: 1967
Emulated Cycles: 1967

8158: E8          INX
CPU State: PC:8159 A:EA X:29 Y:00 SP:FD Status:25 (NV-B DIZC)
RAM State: $00:00 $01:00 $02:00
Timing: Current Emulated Cycle: 1969, Last IRQ Trigger Cycle: 0, Cycles Since Last IRQ: 1969
Emulated Cycles: 1969

8159: D0 F8       BNE $8153
CPU State: PC:8153 A:EA X:29 Y:00 SP:FD Status:25 (NV-B DIZC)
RAM State: $00:00 $01:00 $02:00
Timing: Current Emulated Cycle: 1972, Last IRQ Trigger Cycle: 0, Cycles Since Last IRQ: 1972
Emulated Cycles: 1972

8153: A9 EA       LDA #$EA
CPU State: PC:8155 A:EA X:29 Y:00 SP:FD Status:A5 (NV-B DIZC)
RAM State: $00:00 $01:00 $02:00
Timing: Current Emulated Cycle: 1974, Last IRQ Trigger Cycle: 0, Cycles Since Last IRQ: 1974
Emulated Cycles: 1974

8155: 9D 00 C1    STA $C100,X
CPU State: PC:8158 A:EA X:29 Y:00 SP:FD Status:A5 (NV-B DIZC)
RAM State: $00:00 $01:00 $02:00
Timing: Current Emulated Cycle: 1979, Last IRQ Trigger Cycle: 0, Cycles Since Last IRQ: 1979
Emulated Cycles: 1979

8158: E8          INX
CPU State: PC:8159 A:EA X:2A Y:00 SP:FD Status:25 (NV-B DIZC)
RAM State: $00:00 $01:00 $02:00
Timing: Current Emulated Cycle: 1981, Last IRQ Trigger Cycle: 0, Cycles Since Last IRQ: 1981
Emulated Cycles: 1981

8159: D0 F8       BNE $8153
CPU State: PC:8153 A:EA X:2A Y:00 SP:FD Status:25 (NV-B DIZC)
RAM State: $00:00 $01:00 $02:00
Timing: Current Emulated Cycle: 1984, Last IRQ Trigger Cycle: 0, Cycles Since Last IRQ: 1984
Emulated Cycles: 1984

8153: A9 EA       LDA #$EA
CPU State: PC:8155 A:EA X:2A Y:00 SP:FD Status:A5 (NV-B DIZC)
RAM State: $00:00 $01:00 $02:00
Timing: Current Emulated Cycle: 1986, Last IRQ Trigger Cycle: 0, Cycles Since Last IRQ: 1986
Emulated Cycles: 1986

8155: 9D 00 C1    STA $C100,X
CPU State: PC:8158 A:EA X:2A Y:00 SP:FD Status:A5 (NV-B DIZC)
RAM State: $00:00 $01:00 $02:00
Timing: Current Emulated Cycle: 1991, Last IRQ Trigger Cycle: 0, Cycles Since Last IRQ: 1991
Emulated Cycles: 1991

8158: E8          INX
CPU State: PC:8159 A:EA X:2B Y:00 SP:FD Status:25 (NV-B DIZC)
RAM State: $00:00 $01:00 $02:00
Timing: Current Emulated Cycle: 1993, Last IRQ Trigger Cycle: 0, Cycles Since Last IRQ: 1993
Emulated Cycles: 1993

8159: D0 F8       BNE $8153
CPU State: PC:8153 A:EA X:2B Y:00 SP:FD Status:25 (NV-B DIZC)
RAM State: $00:00 $01:00 $02:00
Timing: Current Emulated Cycle: 1996, Last IRQ Trigger Cycle: 0, Cycles Since Last IRQ: 1996
Emulated Cycles: 1996

8153: A9 EA       LDA #$EA
CPU State: PC:8155 A:EA X:2B Y:00 SP:FD Status:A5 (NV-B DIZC)
RAM State: $00:00 $01:00 $02:00
Timing: Current Emulated Cycle: 1998, Last IRQ Trigger Cycle: 0, Cycles Since Last IRQ: 1998
Emulated Cycles: 1998

8155: 9D 00 C1    STA $C100,X
CPU State: PC:8158 A:EA X:2B Y:00 SP:FD Status:A5 (NV-B DIZC)
RAM State: $00:00 $01:00 $02:00
Timing: Current Emulated Cycle: 2003, Last IRQ Trigger Cycle: 0, Cycles Since Last IRQ: 2003
Emulated Cycles: 2003

8158: E8          INX
CPU State: PC:8159 A:EA X:2C Y:00 SP:FD Status:25 (NV-B DIZC)
RAM State: $00:00 $01:00 $02:00
Timing: Current Emulated Cycle: 2005, Last IRQ Trigger Cycle: 0, Cycles Since Last IRQ: 2005
Emulated Cycles: 2005

8159: D0 F8       BNE $8153
CPU State: PC:8153 A:EA X:2C Y:00 SP:FD Status:25 (NV-B DIZC)
RAM State: $00:00 $01:00 $02:00
Timing: Current Emulated Cycle: 2008, Last IRQ Trigger Cycle: 0, Cycles Since Last IRQ: 2008
Emulated Cycles: 2008

8153: A9 EA       LDA #$EA
CPU State: PC:8155 A:EA X:2C Y:00 SP:FD Status:A5 (NV-B DIZC)
RAM State: $00:00 $01:00 $02:00
Timing: Current Emulated Cycle: 2010, Last IRQ Trigger Cycle: 0, Cycles Since Last IRQ: 2010
Emulated Cycles: 2010

8155: 9D 00 C1    STA $C100,X
CPU State: PC:8158 A:EA X:2C Y:00 SP:FD Status:A5 (NV-B DIZC)
RAM State: $00:00 $01:00 $02:00
Timing: Current Emulated Cycle: 2015, Last IRQ Trigger Cycle: 0, Cycles Since Last IRQ: 2015
Emulated Cycles: 2015

8158: E8          INX
CPU State: PC:8159 A:EA X:2D Y:00 SP:FD Status:25 (NV-B DIZC)
RAM State: $00:00 $01:00 $02:00
Timing: Current Emulated Cycle: 2017, Last IRQ Trigger Cycle: 0, Cycles Since Last IRQ: 2017
Emulated Cycles: 2017

8159: D0 F8       BNE $8153
CPU State: PC:8153 A:EA X:2D Y:00 SP:FD Status:25 (NV-B DIZC)
RAM State: $00:00 $01:00 $02:00
Timing: Current Emulated Cycle: 2020, Last IRQ Trigger Cycle: 0, Cycles Since Last IRQ: 2020
Emulated Cycles: 2020

8153: A9 EA       LDA #$EA
CPU State: PC:8155 A:EA X:2D Y:00 SP:FD Status:A5 (NV-B DIZC)
RAM State: $00:00 $01:00 $02:00
Timing: Current Emulated Cycle: 2022, Last IRQ Trigger Cycle: 0, Cycles Since Last IRQ: 2022
Emulated Cycles: 2022

8155: 9D 00 C1    STA $C100,X
CPU State: PC:8158 A:EA X:2D Y:00 SP:FD Status:A5 (NV-B DIZC)
RAM State: $00:00 $01:00 $02:00
Timing: Current Emulated Cycle: 2027, Last IRQ Trigger Cycle: 0, Cycles Since Last IRQ: 2027
Emulated Cycles: 2027

8158: E8          INX
CPU State: PC:8159 A:EA X:2E Y:00 SP:FD Status:25 (NV-B DIZC)
RAM State: $00:00 $01:00 $02:00
Timing: Current Emulated Cycle: 2029, Last IRQ Trigger Cycle: 0, Cycles Since Last IRQ: 2029
Emulated Cycles: 2029

8159: D0 F8       BNE $8153
CPU State: PC:8153 A:EA X:2E Y:00 SP:FD Status:25 (NV-B DIZC)
RAM State: $00:00 $01:00 $02:00
Timing: Current Emulated Cycle: 2032, Last IRQ Trigger Cycle: 0, Cycles Since Last IRQ: 2032
Emulated Cycles: 2032

8153: A9 EA       LDA #$EA
CPU State: PC:8155 A:EA X:2E Y:00 SP:FD Status:A5 (NV-B DIZC)
RAM State: $00:00 $01:00 $02:00
Timing: Current Emulated Cycle: 2034, Last IRQ Trigger Cycle: 0, Cycles Since Last IRQ: 2034
Emulated Cycles: 2034

8155: 9D 00 C1    STA $C100,X
CPU State: PC:8158 A:EA X:2E Y:00 SP:FD Status:A5 (NV-B DIZC)
RAM State: $00:00 $01:00 $02:00
Timing: Current Emulated Cycle: 2039, Last IRQ Trigger Cycle: 0, Cycles Since Last IRQ: 2039
Emulated Cycles: 2039

8158: E8          INX
CPU State: PC:8159 A:EA X:2F Y:00 SP:FD Status:25 (NV-B DIZC)
RAM State: $00:00 $01:00 $02:00
Timing: Current Emulated Cycle: 2041, Last IRQ Trigger Cycle: 0, Cycles Since Last IRQ: 2041
Emulated Cycles: 2041

8159: D0 F8       BNE $8153
CPU State: PC:8153 A:EA X:2F Y:00 SP:FD Status:25 (NV-B DIZC)
RAM State: $00:00 $01:00 $02:00
Timing: Current Emulated Cycle: 2044, Last IRQ Trigger Cycle: 0, Cycles Since Last IRQ: 2044
Emulated Cycles: 2044

8153: A9 EA       LDA #$EA
CPU State: PC:8155 A:EA X:2F Y:00 SP:FD Status:A5 (NV-B DIZC)
RAM State: $00:00 $01:00 $02:00
Timing: Current Emulated Cycle: 2046, Last IRQ Trigger Cycle: 0, Cycles Since Last IRQ: 2046
Emulated Cycles: 2046

8155: 9D 00 C1    STA $C100,X
CPU State: PC:8158 A:EA X:2F Y:00 SP:FD Status:A5 (NV-B DIZC)
RAM State: $00:00 $01:00 $02:00
Timing: Current Emulated Cycle: 2051, Last IRQ Trigger Cycle: 0, Cycles Since Last IRQ: 2051
Emulated Cycles: 2051

8158: E8          INX
CPU State: PC:8159 A:EA X:30 Y:00 SP:FD Status:25 (NV-B DIZC)
RAM State: $00:00 $01:00 $02:00
Timing: Current Emulated Cycle: 2053, Last IRQ Trigger Cycle: 0, Cycles Since Last IRQ: 2053
Emulated Cycles: 2053

8159: D0 F8       BNE $8153
CPU State: PC:8153 A:EA X:30 Y:00 SP:FD Status:25 (NV-B DIZC)
RAM State: $00:00 $01:00 $02:00
Timing: Current Emulated Cycle: 2056, Last IRQ Trigger Cycle: 0, Cycles Since Last IRQ: 2056
Emulated Cycles: 2056

8153: A9 EA       LDA #$EA
CPU State: PC:8155 A:EA X:30 Y:00 SP:FD Status:A5 (NV-B DIZC)
RAM State: $00:00 $01:00 $02:00
Timing: Current Emulated Cycle: 2058, Last IRQ Trigger Cycle: 0, Cycles Since Last IRQ: 2058
Emulated Cycles: 2058

8155: 9D 00 C1    STA $C100,X
CPU State: PC:8158 A:EA X:30 Y:00 SP:FD Status:A5 (NV-B DIZC)
RAM State: $00:00 $01:00 $02:00
Timing: Current Emulated Cycle: 2063, Last IRQ Trigger Cycle: 0, Cycles Since Last IRQ: 2063
Emulated Cycles: 2063

8158: E8          INX
CPU State: PC:8159 A:EA X:31 Y:00 SP:FD Status:25 (NV-B DIZC)
RAM State: $00:00 $01:00 $02:00
Timing: Current Emulated Cycle: 2065, Last IRQ Trigger Cycle: 0, Cycles Since Last IRQ: 2065
Emulated Cycles: 2065

8159: D0 F8       BNE $8153
CPU State: PC:8153 A:EA X:31 Y:00 SP:FD Status:25 (NV-B DIZC)
RAM State: $00:00 $01:00 $02:00
Timing: Current Emulated Cycle: 2068, Last IRQ Trigger Cycle: 0, Cycles Since Last IRQ: 2068
Emulated Cycles: 2068

8153: A9 EA       LDA #$EA
CPU State: PC:8155 A:EA X:31 Y:00 SP:FD Status:A5 (NV-B DIZC)
RAM State: $00:00 $01:00 $02:00
Timing: Current Emulated Cycle: 2070, Last IRQ Trigger Cycle: 0, Cycles Since Last IRQ: 2070
Emulated Cycles: 2070

8155: 9D 00 C1    STA $C100,X
CPU State: PC:8158 A:EA X:31 Y:00 SP:FD Status:A5 (NV-B DIZC)
RAM State: $00:00 $01:00 $02:00
Timing: Current Emulated Cycle: 2075, Last IRQ Trigger Cycle: 0, Cycles Since Last IRQ: 2075
Emulated Cycles: 2075

8158: E8          INX
CPU State: PC:8159 A:EA X:32 Y:00 SP:FD Status:25 (NV-B DIZC)
RAM State: $00:00 $01:00 $02:00
Timing: Current Emulated Cycle: 2077, Last IRQ Trigger Cycle: 0, Cycles Since Last IRQ: 2077
Emulated Cycles: 2077

8159: D0 F8       BNE $8153
CPU State: PC:8153 A:EA X:32 Y:00 SP:FD Status:25 (NV-B DIZC)
RAM State: $00:00 $01:00 $02:00
Timing: Current Emulated Cycle: 2080, Last IRQ Trigger Cycle: 0, Cycles Since Last IRQ: 2080
Emulated Cycles: 2080

8153: A9 EA       LDA #$EA
CPU State: PC:8155 A:EA X:32 Y:00 SP:FD Status:A5 (NV-B DIZC)
RAM State: $00:00 $01:00 $02:00
Timing: Current Emulated Cycle: 2082, Last IRQ Trigger Cycle: 0, Cycles Since Last IRQ: 2082
Emulated Cycles: 2082

8155: 9D 00 C1    STA $C100,X
CPU State: PC:8158 A:EA X:32 Y:00 SP:FD Status:A5 (NV-B DIZC)
RAM State: $00:00 $01:00 $02:00
Timing: Current Emulated Cycle: 2087, Last IRQ Trigger Cycle: 0, Cycles Since Last IRQ: 2087
Emulated Cycles: 2087

8158: E8          INX
CPU State: PC:8159 A:EA X:33 Y:00 SP:FD Status:25 (NV-B DIZC)
RAM State: $00:00 $01:00 $02:00
Timing: Current Emulated Cycle: 2089, Last IRQ Trigger Cycle: 0, Cycles Since Last IRQ: 2089
Emulated Cycles: 2089

8159: D0 F8       BNE $8153
CPU State: PC:8153 A:EA X:33 Y:00 SP:FD Status:25 (NV-B DIZC)
RAM State: $00:00 $01:00 $02:00
Timing: Current Emulated Cycle: 2092, Last IRQ Trigger Cycle: 0, Cycles Since Last IRQ: 2092
Emulated Cycles: 2092

8153: A9 EA       LDA #$EA
CPU State: PC:8155 A:EA X:33 Y:00 SP:FD Status:A5 (NV-B DIZC)
RAM State: $00:00 $01:00 $02:00
Timing: Current Emulated Cycle: 2094, Last IRQ Trigger Cycle: 0, Cycles Since Last IRQ: 2094
Emulated Cycles: 2094

8155: 9D 00 C1    STA $C100,X
CPU State: PC:8158 A:EA X:33 Y:00 SP:FD Status:A5 (NV-B DIZC)
RAM State: $00:00 $01:00 $02:00
Timing: Current Emulated Cycle: 2099, Last IRQ Trigger Cycle: 0, Cycles Since Last IRQ: 2099
Emulated Cycles: 2099

8158: E8          INX
CPU State: PC:8159 A:EA X:34 Y:00 SP:FD Status:25 (NV-B DIZC)
RAM State: $00:00 $01:00 $02:00
Timing: Current Emulated Cycle: 2101, Last IRQ Trigger Cycle: 0, Cycles Since Last IRQ: 2101
Emulated Cycles: 2101

8159: D0 F8       BNE $8153
CPU State: PC:8153 A:EA X:34 Y:00 SP:FD Status:25 (NV-B DIZC)
RAM State: $00:00 $01:00 $02:00
Timing: Current Emulated Cycle: 2104, Last IRQ Trigger Cycle: 0, Cycles Since Last IRQ: 2104
Emulated Cycles: 2104

8153: A9 EA       LDA #$EA
CPU State: PC:8155 A:EA X:34 Y:00 SP:FD Status:A5 (NV-B DIZC)
RAM State: $00:00 $01:00 $02:00
Timing: Current Emulated Cycle: 2106, Last IRQ Trigger Cycle: 0, Cycles Since Last IRQ: 2106
Emulated Cycles: 2106

8155: 9D 00 C1    STA $C100,X
CPU State: PC:8158 A:EA X:34 Y:00 SP:FD Status:A5 (NV-B DIZC)
RAM State: $00:00 $01:00 $02:00
Timing: Current Emulated Cycle: 2111, Last IRQ Trigger Cycle: 0, Cycles Since Last IRQ: 2111
Emulated Cycles: 2111

8158: E8          INX
CPU State: PC:8159 A:EA X:35 Y:00 SP:FD Status:25 (NV-B DIZC)
RAM State: $00:00 $01:00 $02:00
Timing: Current Emulated Cycle: 2113, Last IRQ Trigger Cycle: 0, Cycles Since Last IRQ: 2113
Emulated Cycles: 2113

8159: D0 F8       BNE $8153
CPU State: PC:8153 A:EA X:35 Y:00 SP:FD Status:25 (NV-B DIZC)
RAM State: $00:00 $01:00 $02:00
Timing: Current Emulated Cycle: 2116, Last IRQ Trigger Cycle: 0, Cycles Since Last IRQ: 2116
Emulated Cycles: 2116

8153: A9 EA       LDA #$EA
CPU State: PC:8155 A:EA X:35 Y:00 SP:FD Status:A5 (NV-B DIZC)
RAM State: $00:00 $01:00 $02:00
Timing: Current Emulated Cycle: 2118, Last IRQ Trigger Cycle: 0, Cycles Since Last IRQ: 2118
Emulated Cycles: 2118

8155: 9D 00 C1    STA $C100,X
CPU State: PC:8158 A:EA X:35 Y:00 SP:FD Status:A5 (NV-B DIZC)
RAM State: $00:00 $01:00 $02:00
Timing: Current Emulated Cycle: 2123, Last IRQ Trigger Cycle: 0, Cycles Since Last IRQ: 2123
Emulated Cycles: 2123

8158: E8          INX
CPU State: PC:8159 A:EA X:36 Y:00 SP:FD Status:25 (NV-B DIZC)
RAM State: $00:00 $01:00 $02:00
Timing: Current Emulated Cycle: 2125, Last IRQ Trigger Cycle: 0, Cycles Since Last IRQ: 2125
Emulated Cycles: 2125

8159: D0 F8       BNE $8153
CPU State: PC:8153 A:EA X:36 Y:00 SP:FD Status:25 (NV-B DIZC)
RAM State: $00:00 $01:00 $02:00
Timing: Current Emulated Cycle: 2128, Last IRQ Trigger Cycle: 0, Cycles Since Last IRQ: 2128
Emulated Cycles: 2128

8153: A9 EA       LDA #$EA
CPU State: PC:8155 A:EA X:36 Y:00 SP:FD Status:A5 (NV-B DIZC)
RAM State: $00:00 $01:00 $02:00
Timing: Current Emulated Cycle: 2130, Last IRQ Trigger Cycle: 0, Cycles Since Last IRQ: 2130
Emulated Cycles: 2130

8155: 9D 00 C1    STA $C100,X
CPU State: PC:8158 A:EA X:36 Y:00 SP:FD Status:A5 (NV-B DIZC)
RAM State: $00:00 $01:00 $02:00
Timing: Current Emulated Cycle: 2135, Last IRQ Trigger Cycle: 0, Cycles Since Last IRQ: 2135
Emulated Cycles: 2135

8158: E8          INX
CPU State: PC:8159 A:EA X:37 Y:00 SP:FD Status:25 (NV-B DIZC)
RAM State: $00:00 $01:00 $02:00
Timing: Current Emulated Cycle: 2137, Last IRQ Trigger Cycle: 0, Cycles Since Last IRQ: 2137
Emulated Cycles: 2137

8159: D0 F8       BNE $8153
CPU State: PC:8153 A:EA X:37 Y:00 SP:FD Status:25 (NV-B DIZC)
RAM State: $00:00 $01:00 $02:00
Timing: Current Emulated Cycle: 2140, Last IRQ Trigger Cycle: 0, Cycles Since Last IRQ: 2140
Emulated Cycles: 2140

8153: A9 EA       LDA #$EA
CPU State: PC:8155 A:EA X:37 Y:00 SP:FD Status:A5 (NV-B DIZC)
RAM State: $00:00 $01:00 $02:00
Timing: Current Emulated Cycle: 2142, Last IRQ Trigger Cycle: 0, Cycles Since Last IRQ: 2142
Emulated Cycles: 2142

8155: 9D 00 C1    STA $C100,X
CPU State: PC:8158 A:EA X:37 Y:00 SP:FD Status:A5 (NV-B DIZC)
RAM State: $00:00 $01:00 $02:00
Timing: Current Emulated Cycle: 2147, Last IRQ Trigger Cycle: 0, Cycles Since Last IRQ: 2147
Emulated Cycles: 2147

8158: E8          INX
CPU State: PC:8159 A:EA X:38 Y:00 SP:FD Status:25 (NV-B DIZC)
RAM State: $00:00 $01:00 $02:00
Timing: Current Emulated Cycle: 2149, Last IRQ Trigger Cycle: 0, Cycles Since Last IRQ: 2149
Emulated Cycles: 2149

8159: D0 F8       BNE $8153
CPU State: PC:8153 A:EA X:38 Y:00 SP:FD Status:25 (NV-B DIZC)
RAM State: $00:00 $01:00 $02:00
Timing: Current Emulated Cycle: 2152, Last IRQ Trigger Cycle: 0, Cycles Since Last IRQ: 2152
Emulated Cycles: 2152

8153: A9 EA       LDA #$EA
CPU State: PC:8155 A:EA X:38 Y:00 SP:FD Status:A5 (NV-B DIZC)
RAM State: $00:00 $01:00 $02:00
Timing: Current Emulated Cycle: 2154, Last IRQ Trigger Cycle: 0, Cycles Since Last IRQ: 2154
Emulated Cycles: 2154

8155: 9D 00 C1    STA $C100,X
CPU State: PC:8158 A:EA X:38 Y:00 SP:FD Status:A5 (NV-B DIZC)
RAM State: $00:00 $01:00 $02:00
Timing: Current Emulated Cycle: 2159, Last IRQ Trigger Cycle: 0, Cycles Since Last IRQ: 2159
Emulated Cycles: 2159

8158: E8          INX
CPU State: PC:8159 A:EA X:39 Y:00 SP:FD Status:25 (NV-B DIZC)
RAM State: $00:00 $01:00 $02:00
Timing: Current Emulated Cycle: 2161, Last IRQ Trigger Cycle: 0, Cycles Since Last IRQ: 2161
Emulated Cycles: 2161

8159: D0 F8       BNE $8153
CPU State: PC:8153 A:EA X:39 Y:00 SP:FD Status:25 (NV-B DIZC)
RAM State: $00:00 $01:00 $02:00
Timing: Current Emulated Cycle: 2164, Last IRQ Trigger Cycle: 0, Cycles Since Last IRQ: 2164
Emulated Cycles: 2164

8153: A9 EA       LDA #$EA
CPU State: PC:8155 A:EA X:39 Y:00 SP:FD Status:A5 (NV-B DIZC)
RAM State: $00:00 $01:00 $02:00
Timing: Current Emulated Cycle: 2166, Last IRQ Trigger Cycle: 0, Cycles Since Last IRQ: 2166
Emulated Cycles: 2166

8155: 9D 00 C1    STA $C100,X
CPU State: PC:8158 A:EA X:39 Y:00 SP:FD Status:A5 (NV-B DIZC)
RAM State: $00:00 $01:00 $02:00
Timing: Current Emulated Cycle: 2171, Last IRQ Trigger Cycle: 0, Cycles Since Last IRQ: 2171
Emulated Cycles: 2171

8158: E8          INX
CPU State: PC:8159 A:EA X:3A Y:00 SP:FD Status:25 (NV-B DIZC)
RAM State: $00:00 $01:00 $02:00
Timing: Current Emulated Cycle: 2173, Last IRQ Trigger Cycle: 0, Cycles Since Last IRQ: 2173
Emulated Cycles: 2173

8159: D0 F8       BNE $8153
CPU State: PC:8153 A:EA X:3A Y:00 SP:FD Status:25 (NV-B DIZC)
RAM State: $00:00 $01:00 $02:00
Timing: Current Emulated Cycle: 2176, Last IRQ Trigger Cycle: 0, Cycles Since Last IRQ: 2176
Emulated Cycles: 2176

8153: A9 EA       LDA #$EA
CPU State: PC:8155 A:EA X:3A Y:00 SP:FD Status:A5 (NV-B DIZC)
RAM State: $00:00 $01:00 $02:00
Timing: Current Emulated Cycle: 2178, Last IRQ Trigger Cycle: 0, Cycles Since Last IRQ: 2178
Emulated Cycles: 2178

8155: 9D 00 C1    STA $C100,X
CPU State: PC:8158 A:EA X:3A Y:00 SP:FD Status:A5 (NV-B DIZC)
RAM State: $00:00 $01:00 $02:00
Timing: Current Emulated Cycle: 2183, Last IRQ Trigger Cycle: 0, Cycles Since Last IRQ: 2183
Emulated Cycles: 2183

8158: E8          INX
CPU State: PC:8159 A:EA X:3B Y:00 SP:FD Status:25 (NV-B DIZC)
RAM State: $00:00 $01:00 $02:00
Timing: Current Emulated Cycle: 2185, Last IRQ Trigger Cycle: 0, Cycles Since Last IRQ: 2185
Emulated Cycles: 2185

8159: D0 F8       BNE $8153
CPU State: PC:8153 A:EA X:3B Y:00 SP:FD Status:25 (NV-B DIZC)
RAM State: $00:00 $01:00 $02:00
Timing: Current Emulated Cycle: 2188, Last IRQ Trigger Cycle: 0, Cycles Since Last IRQ: 2188
Emulated Cycles: 2188

8153: A9 EA       LDA #$EA
CPU State: PC:8155 A:EA X:3B Y:00 SP:FD Status:A5 (NV-B DIZC)
RAM State: $00:00 $01:00 $02:00
Timing: Current Emulated Cycle: 2190, Last IRQ Trigger Cycle: 0, Cycles Since Last IRQ: 2190
Emulated Cycles: 2190

8155: 9D 00 C1    STA $C100,X
CPU State: PC:8158 A:EA X:3B Y:00 SP:FD Status:A5 (NV-B DIZC)
RAM State: $00:00 $01:00 $02:00
Timing: Current Emulated Cycle: 2195, Last IRQ Trigger Cycle: 0, Cycles Since Last IRQ: 2195
Emulated Cycles: 2195

8158: E8          INX
CPU State: PC:8159 A:EA X:3C Y:00 SP:FD Status:25 (NV-B DIZC)
RAM State: $00:00 $01:00 $02:00
Timing: Current Emulated Cycle: 2197, Last IRQ Trigger Cycle: 0, Cycles Since Last IRQ: 2197
Emulated Cycles: 2197

8159: D0 F8       BNE $8153
CPU State: PC:8153 A:EA X:3C Y:00 SP:FD Status:25 (NV-B DIZC)
RAM State: $00:00 $01:00 $02:00
Timing: Current Emulated Cycle: 2200, Last IRQ Trigger Cycle: 0, Cycles Since Last IRQ: 2200
Emulated Cycles: 2200

8153: A9 EA       LDA #$EA
CPU State: PC:8155 A:EA X:3C Y:00 SP:FD Status:A5 (NV-B DIZC)
RAM State: $00:00 $01:00 $02:00
Timing: Current Emulated Cycle: 2202, Last IRQ Trigger Cycle: 0, Cycles Since Last IRQ: 2202
Emulated Cycles: 2202

8155: 9D 00 C1    STA $C100,X
CPU State: PC:8158 A:EA X:3C Y:00 SP:FD Status:A5 (NV-B DIZC)
RAM State: $00:00 $01:00 $02:00
Timing: Current Emulated Cycle: 2207, Last IRQ Trigger Cycle: 0, Cycles Since Last IRQ: 2207
Emulated Cycles: 2207

8158: E8          INX
CPU State: PC:8159 A:EA X:3D Y:00 SP:FD Status:25 (NV-B DIZC)
RAM State: $00:00 $01:00 $02:00
Timing: Current Emulated Cycle: 2209, Last IRQ Trigger Cycle: 0, Cycles Since Last IRQ: 2209
Emulated Cycles: 2209

8159: D0 F8       BNE $8153
CPU State: PC:8153 A:EA X:3D Y:00 SP:FD Status:25 (NV-B DIZC)
RAM State: $00:00 $01:00 $02:00
Timing: Current Emulated Cycle: 2212, Last IRQ Trigger Cycle: 0, Cycles Since Last IRQ: 2212
Emulated Cycles: 2212

8153: A9 EA       LDA #$EA
CPU State: PC:8155 A:EA X:3D Y:00 SP:FD Status:A5 (NV-B DIZC)
RAM State: $00:00 $01:00 $02:00
Timing: Current Emulated Cycle: 2214, Last IRQ Trigger Cycle: 0, Cycles Since Last IRQ: 2214
Emulated Cycles: 2214

8155: 9D 00 C1    STA $C100,X
CPU State: PC:8158 A:EA X:3D Y:00 SP:FD Status:A5 (NV-B DIZC)
RAM State: $00:00 $01:00 $02:00
Timing: Current Emulated Cycle: 2219, Last IRQ Trigger Cycle: 0, Cycles Since Last IRQ: 2219
Emulated Cycles: 2219

8158: E8          INX
CPU State: PC:8159 A:EA X:3E Y:00 SP:FD Status:25 (NV-B DIZC)
RAM State: $00:00 $01:00 $02:00
Timing: Current Emulated Cycle: 2221, Last IRQ Trigger Cycle: 0, Cycles Since Last IRQ: 2221
Emulated Cycles: 2221

8159: D0 F8       BNE $8153
CPU State: PC:8153 A:EA X:3E Y:00 SP:FD Status:25 (NV-B DIZC)
RAM State: $00:00 $01:00 $02:00
Timing: Current Emulated Cycle: 2224, Last IRQ Trigger Cycle: 0, Cycles Since Last IRQ: 2224
Emulated Cycles: 2224

8153: A9 EA       LDA #$EA
CPU State: PC:8155 A:EA X:3E Y:00 SP:FD Status:A5 (NV-B DIZC)
RAM State: $00:00 $01:00 $02:00
Timing: Current Emulated Cycle: 2226, Last IRQ Trigger Cycle: 0, Cycles Since Last IRQ: 2226
Emulated Cycles: 2226

8155: 9D 00 C1    STA $C100,X
CPU State: PC:8158 A:EA X:3E Y:00 SP:FD Status:A5 (NV-B DIZC)
RAM State: $00:00 $01:00 $02:00
Timing: Current Emulated Cycle: 2231, Last IRQ Trigger Cycle: 0, Cycles Since Last IRQ: 2231
Emulated Cycles: 2231

8158: E8          INX
CPU State: PC:8159 A:EA X:3F Y:00 SP:FD Status:25 (NV-B DIZC)
RAM State: $00:00 $01:00 $02:00
Timing: Current Emulated Cycle: 2233, Last IRQ Trigger Cycle: 0, Cycles Since Last IRQ: 2233
Emulated Cycles: 2233

8159: D0 F8       BNE $8153
CPU State: PC:8153 A:EA X:3F Y:00 SP:FD Status:25 (NV-B DIZC)
RAM State: $00:00 $01:00 $02:00
Timing: Current Emulated Cycle: 2236, Last IRQ Trigger Cycle: 0, Cycles Since Last IRQ: 2236
Emulated Cycles: 2236

8153: A9 EA       LDA #$EA
CPU State: PC:8155 A:EA X:3F Y:00 SP:FD Status:A5 (NV-B DIZC)
RAM State: $00:00 $01:00 $02:00
Timing: Current Emulated Cycle: 2238, Last IRQ Trigger Cycle: 0, Cycles Since Last IRQ: 2238
Emulated Cycles: 2238

8155: 9D 00 C1    STA $C100,X
CPU State: PC:8158 A:EA X:3F Y:00 SP:FD Status:A5 (NV-B DIZC)
RAM State: $00:00 $01:00 $02:00
Timing: Current Emulated Cycle: 2243, Last IRQ Trigger Cycle: 0, Cycles Since Last IRQ: 2243
Emulated Cycles: 2243

8158: E8          INX
CPU State: PC:8159 A:EA X:40 Y:00 SP:FD Status:25 (NV-B DIZC)
RAM State: $00:00 $01:00 $02:00
Timing: Current Emulated Cycle: 2245, Last IRQ Trigger Cycle: 0, Cycles Since Last IRQ: 2245
Emulated Cycles: 2245

8159: D0 F8       BNE $8153
CPU State: PC:8153 A:EA X:40 Y:00 SP:FD Status:25 (NV-B DIZC)
RAM State: $00:00 $01:00 $02:00
Timing: Current Emulated Cycle: 2248, Last IRQ Trigger Cycle: 0, Cycles Since Last IRQ: 2248
Emulated Cycles: 2248

8153: A9 EA       LDA #$EA
CPU State: PC:8155 A:EA X:40 Y:00 SP:FD Status:A5 (NV-B DIZC)
RAM State: $00:00 $01:00 $02:00
Timing: Current Emulated Cycle: 2250, Last IRQ Trigger Cycle: 0, Cycles Since Last IRQ: 2250
Emulated Cycles: 2250

8155: 9D 00 C1    STA $C100,X
CPU State: PC:8158 A:EA X:40 Y:00 SP:FD Status:A5 (NV-B DIZC)
RAM State: $00:00 $01:00 $02:00
Timing: Current Emulated Cycle: 2255, Last IRQ Trigger Cycle: 0, Cycles Since Last IRQ: 2255
Emulated Cycles: 2255

8158: E8          INX
CPU State: PC:8159 A:EA X:41 Y:00 SP:FD Status:25 (NV-B DIZC)
RAM State: $00:00 $01:00 $02:00
Timing: Current Emulated Cycle: 2257, Last IRQ Trigger Cycle: 0, Cycles Since Last IRQ: 2257
Emulated Cycles: 2257

8159: D0 F8       BNE $8153
CPU State: PC:8153 A:EA X:41 Y:00 SP:FD Status:25 (NV-B DIZC)
RAM State: $00:00 $01:00 $02:00
Timing: Current Emulated Cycle: 2260, Last IRQ Trigger Cycle: 0, Cycles Since Last IRQ: 2260
Emulated Cycles: 2260

8153: A9 EA       LDA #$EA
CPU State: PC:8155 A:EA X:41 Y:00 SP:FD Status:A5 (NV-B DIZC)
RAM State: $00:00 $01:00 $02:00
Timing: Current Emulated Cycle: 2262, Last IRQ Trigger Cycle: 0, Cycles Since Last IRQ: 2262
Emulated Cycles: 2262

8155: 9D 00 C1    STA $C100,X
CPU State: PC:8158 A:EA X:41 Y:00 SP:FD Status:A5 (NV-B DIZC)
RAM State: $00:00 $01:00 $02:00
Timing: Current Emulated Cycle: 2267, Last IRQ Trigger Cycle: 0, Cycles Since Last IRQ: 2267
Emulated Cycles: 2267

8158: E8          INX
CPU State: PC:8159 A:EA X:42 Y:00 SP:FD Status:25 (NV-B DIZC)
RAM State: $00:00 $01:00 $02:00
Timing: Current Emulated Cycle: 2269, Last IRQ Trigger Cycle: 0, Cycles Since Last IRQ: 2269
Emulated Cycles: 2269

8159: D0 F8       BNE $8153
CPU State: PC:8153 A:EA X:42 Y:00 SP:FD Status:25 (NV-B DIZC)
RAM State: $00:00 $01:00 $02:00
Timing: Current Emulated Cycle: 2272, Last IRQ Trigger Cycle: 0, Cycles Since Last IRQ: 2272
Emulated Cycles: 2272

8153: A9 EA       LDA #$EA
CPU State: PC:8155 A:EA X:42 Y:00 SP:FD Status:A5 (NV-B DIZC)
RAM State: $00:00 $01:00 $02:00
Timing: Current Emulated Cycle: 2274, Last IRQ Trigger Cycle: 0, Cycles Since Last IRQ: 2274
Emulated Cycles: 2274

8155: 9D 00 C1    STA $C100,X
CPU State: PC:8158 A:EA X:42 Y:00 SP:FD Status:A5 (NV-B DIZC)
RAM State: $00:00 $01:00 $02:00
Timing: Current Emulated Cycle: 2279, Last IRQ Trigger Cycle: 0, Cycles Since Last IRQ: 2279
Emulated Cycles: 2279

8158: E8          INX
CPU State: PC:8159 A:EA X:43 Y:00 SP:FD Status:25 (NV-B DIZC)
RAM State: $00:00 $01:00 $02:00
Timing: Current Emulated Cycle: 2281, Last IRQ Trigger Cycle: 0, Cycles Since Last IRQ: 2281
Emulated Cycles: 2281

8159: D0 F8       BNE $8153
CPU State: PC:8153 A:EA X:43 Y:00 SP:FD Status:25 (NV-B DIZC)
RAM State: $00:00 $01:00 $02:00
Timing: Current Emulated Cycle: 2284, Last IRQ Trigger Cycle: 0, Cycles Since Last IRQ: 2284
Emulated Cycles: 2284

8153: A9 EA       LDA #$EA
CPU State: PC:8155 A:EA X:43 Y:00 SP:FD Status:A5 (NV-B DIZC)
RAM State: $00:00 $01:00 $02:00
Timing: Current Emulated Cycle: 2286, Last IRQ Trigger Cycle: 0, Cycles Since Last IRQ: 2286
Emulated Cycles: 2286

8155: 9D 00 C1    STA $C100,X
CPU State: PC:8158 A:EA X:43 Y:00 SP:FD Status:A5 (NV-B DIZC)
RAM State: $00:00 $01:00 $02:00
Timing: Current Emulated Cycle: 2291, Last IRQ Trigger Cycle: 0, Cycles Since Last IRQ: 2291
Emulated Cycles: 2291

8158: E8          INX
CPU State: PC:8159 A:EA X:44 Y:00 SP:FD Status:25 (NV-B DIZC)
RAM State: $00:00 $01:00 $02:00
Timing: Current Emulated Cycle: 2293, Last IRQ Trigger Cycle: 0, Cycles Since Last IRQ: 2293
Emulated Cycles: 2293

8159: D0 F8       BNE $8153
CPU State: PC:8153 A:EA X:44 Y:00 SP:FD Status:25 (NV-B DIZC)
RAM State: $00:00 $01:00 $02:00
Timing: Current Emulated Cycle: 2296, Last IRQ Trigger Cycle: 0, Cycles Since Last IRQ: 2296
Emulated Cycles: 2296

8153: A9 EA       LDA #$EA
CPU State: PC:8155 A:EA X:44 Y:00 SP:FD Status:A5 (NV-B DIZC)
RAM State: $00:00 $01:00 $02:00
Timing: Current Emulated Cycle: 2298, Last IRQ Trigger Cycle: 0, Cycles Since Last IRQ: 2298
Emulated Cycles: 2298

8155: 9D 00 C1    STA $C100,X
CPU State: PC:8158 A:EA X:44 Y:00 SP:FD Status:A5 (NV-B DIZC)
RAM State: $00:00 $01:00 $02:00
Timing: Current Emulated Cycle: 2303, Last IRQ Trigger Cycle: 0, Cycles Since Last IRQ: 2303
Emulated Cycles: 2303

8158: E8          INX
CPU State: PC:8159 A:EA X:45 Y:00 SP:FD Status:25 (NV-B DIZC)
RAM State: $00:00 $01:00 $02:00
Timing: Current Emulated Cycle: 2305, Last IRQ Trigger Cycle: 0, Cycles Since Last IRQ: 2305
Emulated Cycles: 2305

8159: D0 F8       BNE $8153
CPU State: PC:8153 A:EA X:45 Y:00 SP:FD Status:25 (NV-B DIZC)
RAM State: $00:00 $01:00 $02:00
Timing: Current Emulated Cycle: 2308, Last IRQ Trigger Cycle: 0, Cycles Since Last IRQ: 2308
Emulated Cycles: 2308

8153: A9 EA       LDA #$EA
CPU State: PC:8155 A:EA X:45 Y:00 SP:FD Status:A5 (NV-B DIZC)
RAM State: $00:00 $01:00 $02:00
Timing: Current Emulated Cycle: 2310, Last IRQ Trigger Cycle: 0, Cycles Since Last IRQ: 2310
Emulated Cycles: 2310

8155: 9D 00 C1    STA $C100,X
CPU State: PC:8158 A:EA X:45 Y:00 SP:FD Status:A5 (NV-B DIZC)
RAM State: $00:00 $01:00 $02:00
Timing: Current Emulated Cycle: 2315, Last IRQ Trigger Cycle: 0, Cycles Since Last IRQ: 2315
Emulated Cycles: 2315

8158: E8          INX
CPU State: PC:8159 A:EA X:46 Y:00 SP:FD Status:25 (NV-B DIZC)
RAM State: $00:00 $01:00 $02:00
Timing: Current Emulated Cycle: 2317, Last IRQ Trigger Cycle: 0, Cycles Since Last IRQ: 2317
Emulated Cycles: 2317

8159: D0 F8       BNE $8153
CPU State: PC:8153 A:EA X:46 Y:00 SP:FD Status:25 (NV-B DIZC)
RAM State: $00:00 $01:00 $02:00
Timing: Current Emulated Cycle: 2320, Last IRQ Trigger Cycle: 0, Cycles Since Last IRQ: 2320
Emulated Cycles: 2320

8153: A9 EA       LDA #$EA
CPU State: PC:8155 A:EA X:46 Y:00 SP:FD Status:A5 (NV-B DIZC)
RAM State: $00:00 $01:00 $02:00
Timing: Current Emulated Cycle: 2322, Last IRQ Trigger Cycle: 0, Cycles Since Last IRQ: 2322
Emulated Cycles: 2322

8155: 9D 00 C1    STA $C100,X
CPU State: PC:8158 A:EA X:46 Y:00 SP:FD Status:A5 (NV-B DIZC)
RAM State: $00:00 $01:00 $02:00
Timing: Current Emulated Cycle: 2327, Last IRQ Trigger Cycle: 0, Cycles Since Last IRQ: 2327
Emulated Cycles: 2327

8158: E8          INX
CPU State: PC:8159 A:EA X:47 Y:00 SP:FD Status:25 (NV-B DIZC)
RAM State: $00:00 $01:00 $02:00
Timing: Current Emulated Cycle: 2329, Last IRQ Trigger Cycle: 0, Cycles Since Last IRQ: 2329
Emulated Cycles: 2329

8159: D0 F8       BNE $8153
CPU State: PC:8153 A:EA X:47 Y:00 SP:FD Status:25 (NV-B DIZC)
RAM State: $00:00 $01:00 $02:00
Timing: Current Emulated Cycle: 2332, Last IRQ Trigger Cycle: 0, Cycles Since Last IRQ: 2332
Emulated Cycles: 2332

8153: A9 EA       LDA #$EA
CPU State: PC:8155 A:EA X:47 Y:00 SP:FD Status:A5 (NV-B DIZC)
RAM State: $00:00 $01:00 $02:00
Timing: Current Emulated Cycle: 2334, Last IRQ Trigger Cycle: 0, Cycles Since Last IRQ: 2334
Emulated Cycles: 2334

8155: 9D 00 C1    STA $C100,X
CPU State: PC:8158 A:EA X:47 Y:00 SP:FD Status:A5 (NV-B DIZC)
RAM State: $00:00 $01:00 $02:00
Timing: Current Emulated Cycle: 2339, Last IRQ Trigger Cycle: 0, Cycles Since Last IRQ: 2339
Emulated Cycles: 2339

8158: E8          INX
CPU State: PC:8159 A:EA X:48 Y:00 SP:FD Status:25 (NV-B DIZC)
RAM State: $00:00 $01:00 $02:00
Timing: Current Emulated Cycle: 2341, Last IRQ Trigger Cycle: 0, Cycles Since Last IRQ: 2341
Emulated Cycles: 2341

8159: D0 F8       BNE $8153
CPU State: PC:8153 A:EA X:48 Y:00 SP:FD Status:25 (NV-B DIZC)
RAM State: $00:00 $01:00 $02:00
Timing: Current Emulated Cycle: 2344, Last IRQ Trigger Cycle: 0, Cycles Since Last IRQ: 2344
Emulated Cycles: 2344

8153: A9 EA       LDA #$EA
CPU State: PC:8155 A:EA X:48 Y:00 SP:FD Status:A5 (NV-B DIZC)
RAM State: $00:00 $01:00 $02:00
Timing: Current Emulated Cycle: 2346, Last IRQ Trigger Cycle: 0, Cycles Since Last IRQ: 2346
Emulated Cycles: 2346

8155: 9D 00 C1    STA $C100,X
CPU State: PC:8158 A:EA X:48 Y:00 SP:FD Status:A5 (NV-B DIZC)
RAM State: $00:00 $01:00 $02:00
Timing: Current Emulated Cycle: 2351, Last IRQ Trigger Cycle: 0, Cycles Since Last IRQ: 2351
Emulated Cycles: 2351

8158: E8          INX
CPU State: PC:8159 A:EA X:49 Y:00 SP:FD Status:25 (NV-B DIZC)
RAM State: $00:00 $01:00 $02:00
Timing: Current Emulated Cycle: 2353, Last IRQ Trigger Cycle: 0, Cycles Since Last IRQ: 2353
Emulated Cycles: 2353

8159: D0 F8       BNE $8153
CPU State: PC:8153 A:EA X:49 Y:00 SP:FD Status:25 (NV-B DIZC)
RAM State: $00:00 $01:00 $02:00
Timing: Current Emulated Cycle: 2356, Last IRQ Trigger Cycle: 0, Cycles Since Last IRQ: 2356
Emulated Cycles: 2356

8153: A9 EA       LDA #$EA
CPU State: PC:8155 A:EA X:49 Y:00 SP:FD Status:A5 (NV-B DIZC)
RAM State: $00:00 $01:00 $02:00
Timing: Current Emulated Cycle: 2358, Last IRQ Trigger Cycle: 0, Cycles Since Last IRQ: 2358
Emulated Cycles: 2358

8155: 9D 00 C1    STA $C100,X
CPU State: PC:8158 A:EA X:49 Y:00 SP:FD Status:A5 (NV-B DIZC)
RAM State: $00:00 $01:00 $02:00
Timing: Current Emulated Cycle: 2363, Last IRQ Trigger Cycle: 0, Cycles Since Last IRQ: 2363
Emulated Cycles: 2363

8158: E8          INX
CPU State: PC:8159 A:EA X:4A Y:00 SP:FD Status:25 (NV-B DIZC)
RAM State: $00:00 $01:00 $02:00
Timing: Current Emulated Cycle: 2365, Last IRQ Trigger Cycle: 0, Cycles Since Last IRQ: 2365
Emulated Cycles: 2365

8159: D0 F8       BNE $8153
CPU State: PC:8153 A:EA X:4A Y:00 SP:FD Status:25 (NV-B DIZC)
RAM State: $00:00 $01:00 $02:00
Timing: Current Emulated Cycle: 2368, Last IRQ Trigger Cycle: 0, Cycles Since Last IRQ: 2368
Emulated Cycles: 2368

8153: A9 EA       LDA #$EA
CPU State: PC:8155 A:EA X:4A Y:00 SP:FD Status:A5 (NV-B DIZC)
RAM State: $00:00 $01:00 $02:00
Timing: Current Emulated Cycle: 2370, Last IRQ Trigger Cycle: 0, Cycles Since Last IRQ: 2370
Emulated Cycles: 2370

8155: 9D 00 C1    STA $C100,X
CPU State: PC:8158 A:EA X:4A Y:00 SP:FD Status:A5 (NV-B DIZC)
RAM State: $00:00 $01:00 $02:00
Timing: Current Emulated Cycle: 2375, Last IRQ Trigger Cycle: 0, Cycles Since Last IRQ: 2375
Emulated Cycles: 2375

8158: E8          INX
CPU State: PC:8159 A:EA X:4B Y:00 SP:FD Status:25 (NV-B DIZC)
RAM State: $00:00 $01:00 $02:00
Timing: Current Emulated Cycle: 2377, Last IRQ Trigger Cycle: 0, Cycles Since Last IRQ: 2377
Emulated Cycles: 2377

8159: D0 F8       BNE $8153
CPU State: PC:8153 A:EA X:4B Y:00 SP:FD Status:25 (NV-B DIZC)
RAM State: $00:00 $01:00 $02:00
Timing: Current Emulated Cycle: 2380, Last IRQ Trigger Cycle: 0, Cycles Since Last IRQ: 2380
Emulated Cycles: 2380

8153: A9 EA       LDA #$EA
CPU State: PC:8155 A:EA X:4B Y:00 SP:FD Status:A5 (NV-B DIZC)
RAM State: $00:00 $01:00 $02:00
Timing: Current Emulated Cycle: 2382, Last IRQ Trigger Cycle: 0, Cycles Since Last IRQ: 2382
Emulated Cycles: 2382

8155: 9D 00 C1    STA $C100,X
CPU State: PC:8158 A:EA X:4B Y:00 SP:FD Status:A5 (NV-B DIZC)
RAM State: $00:00 $01:00 $02:00
Timing: Current Emulated Cycle: 2387, Last IRQ Trigger Cycle: 0, Cycles Since Last IRQ: 2387
Emulated Cycles: 2387

8158: E8          INX
CPU State: PC:8159 A:EA X:4C Y:00 SP:FD Status:25 (NV-B DIZC)
RAM State: $00:00 $01:00 $02:00
Timing: Current Emulated Cycle: 2389, Last IRQ Trigger Cycle: 0, Cycles Since Last IRQ: 2389
Emulated Cycles: 2389

8159: D0 F8       BNE $8153
CPU State: PC:8153 A:EA X:4C Y:00 SP:FD Status:25 (NV-B DIZC)
RAM State: $00:00 $01:00 $02:00
Timing: Current Emulated Cycle: 2392, Last IRQ Trigger Cycle: 0, Cycles Since Last IRQ: 2392
Emulated Cycles: 2392

8153: A9 EA       LDA #$EA
CPU State: PC:8155 A:EA X:4C Y:00 SP:FD Status:A5 (NV-B DIZC)
RAM State: $00:00 $01:00 $02:00
Timing: Current Emulated Cycle: 2394, Last IRQ Trigger Cycle: 0, Cycles Since Last IRQ: 2394
Emulated Cycles: 2394

8155: 9D 00 C1    STA $C100,X
CPU State: PC:8158 A:EA X:4C Y:00 SP:FD Status:A5 (NV-B DIZC)
RAM State: $00:00 $01:00 $02:00
Timing: Current Emulated Cycle: 2399, Last IRQ Trigger Cycle: 0, Cycles Since Last IRQ: 2399
Emulated Cycles: 2399

8158: E8          INX
CPU State: PC:8159 A:EA X:4D Y:00 SP:FD Status:25 (NV-B DIZC)
RAM State: $00:00 $01:00 $02:00
Timing: Current Emulated Cycle: 2401, Last IRQ Trigger Cycle: 0, Cycles Since Last IRQ: 2401
Emulated Cycles: 2401

8159: D0 F8       BNE $8153
CPU State: PC:8153 A:EA X:4D Y:00 SP:FD Status:25 (NV-B DIZC)
RAM State: $00:00 $01:00 $02:00
Timing: Current Emulated Cycle: 2404, Last IRQ Trigger Cycle: 0, Cycles Since Last IRQ: 2404
Emulated Cycles: 2404

8153: A9 EA       LDA #$EA
CPU State: PC:8155 A:EA X:4D Y:00 SP:FD Status:A5 (NV-B DIZC)
RAM State: $00:00 $01:00 $02:00
Timing: Current Emulated Cycle: 2406, Last IRQ Trigger Cycle: 0, Cycles Since Last IRQ: 2406
Emulated Cycles: 2406

8155: 9D 00 C1    STA $C100,X
CPU State: PC:8158 A:EA X:4D Y:00 SP:FD Status:A5 (NV-B DIZC)
RAM State: $00:00 $01:00 $02:00
Timing: Current Emulated Cycle: 2411, Last IRQ Trigger Cycle: 0, Cycles Since Last IRQ: 2411
Emulated Cycles: 2411

8158: E8          INX
CPU State: PC:8159 A:EA X:4E Y:00 SP:FD Status:25 (NV-B DIZC)
RAM State: $00:00 $01:00 $02:00
Timing: Current Emulated Cycle: 2413, Last IRQ Trigger Cycle: 0, Cycles Since Last IRQ: 2413
Emulated Cycles: 2413

8159: D0 F8       BNE $8153
CPU State: PC:8153 A:EA X:4E Y:00 SP:FD Status:25 (NV-B DIZC)
RAM State: $00:00 $01:00 $02:00
Timing: Current Emulated Cycle: 2416, Last IRQ Trigger Cycle: 0, Cycles Since Last IRQ: 2416
Emulated Cycles: 2416

8153: A9 EA       LDA #$EA
CPU State: PC:8155 A:EA X:4E Y:00 SP:FD Status:A5 (NV-B DIZC)
RAM State: $00:00 $01:00 $02:00
Timing: Current Emulated Cycle: 2418, Last IRQ Trigger Cycle: 0, Cycles Since Last IRQ: 2418
Emulated Cycles: 2418

8155: 9D 00 C1    STA $C100,X
CPU State: PC:8158 A:EA X:4E Y:00 SP:FD Status:A5 (NV-B DIZC)
RAM State: $00:00 $01:00 $02:00
Timing: Current Emulated Cycle: 2423, Last IRQ Trigger Cycle: 0, Cycles Since Last IRQ: 2423
Emulated Cycles: 2423

8158: E8          INX
CPU State: PC:8159 A:EA X:4F Y:00 SP:FD Status:25 (NV-B DIZC)
RAM State: $00:00 $01:00 $02:00
Timing: Current Emulated Cycle: 2425, Last IRQ Trigger Cycle: 0, Cycles Since Last IRQ: 2425
Emulated Cycles: 2425

8159: D0 F8       BNE $8153
CPU State: PC:8153 A:EA X:4F Y:00 SP:FD Status:25 (NV-B DIZC)
RAM State: $00:00 $01:00 $02:00
Timing: Current Emulated Cycle: 2428, Last IRQ Trigger Cycle: 0, Cycles Since Last IRQ: 2428
Emulated Cycles: 2428

8153: A9 EA       LDA #$EA
CPU State: PC:8155 A:EA X:4F Y:00 SP:FD Status:A5 (NV-B DIZC)
RAM State: $00:00 $01:00 $02:00
Timing: Current Emulated Cycle: 2430, Last IRQ Trigger Cycle: 0, Cycles Since Last IRQ: 2430
Emulated Cycles: 2430

8155: 9D 00 C1    STA $C100,X
CPU State: PC:8158 A:EA X:4F Y:00 SP:FD Status:A5 (NV-B DIZC)
RAM State: $00:00 $01:00 $02:00
Timing: Current Emulated Cycle: 2435, Last IRQ Trigger Cycle: 0, Cycles Since Last IRQ: 2435
Emulated Cycles: 2435

8158: E8          INX
CPU State: PC:8159 A:EA X:50 Y:00 SP:FD Status:25 (NV-B DIZC)
RAM State: $00:00 $01:00 $02:00
Timing: Current Emulated Cycle: 2437, Last IRQ Trigger Cycle: 0, Cycles Since Last IRQ: 2437
Emulated Cycles: 2437

8159: D0 F8       BNE $8153
CPU State: PC:8153 A:EA X:50 Y:00 SP:FD Status:25 (NV-B DIZC)
RAM State: $00:00 $01:00 $02:00
Timing: Current Emulated Cycle: 2440, Last IRQ Trigger Cycle: 0, Cycles Since Last IRQ: 2440
Emulated Cycles: 2440

8153: A9 EA       LDA #$EA
CPU State: PC:8155 A:EA X:50 Y:00 SP:FD Status:A5 (NV-B DIZC)
RAM State: $00:00 $01:00 $02:00
Timing: Current Emulated Cycle: 2442, Last IRQ Trigger Cycle: 0, Cycles Since Last IRQ: 2442
Emulated Cycles: 2442

8155: 9D 00 C1    STA $C100,X
CPU State: PC:8158 A:EA X:50 Y:00 SP:FD Status:A5 (NV-B DIZC)
RAM State: $00:00 $01:00 $02:00
Timing: Current Emulated Cycle: 2447, Last IRQ Trigger Cycle: 0, Cycles Since Last IRQ: 2447
Emulated Cycles: 2447

8158: E8          INX
CPU State: PC:8159 A:EA X:51 Y:00 SP:FD Status:25 (NV-B DIZC)
RAM State: $00:00 $01:00 $02:00
Timing: Current Emulated Cycle: 2449, Last IRQ Trigger Cycle: 0, Cycles Since Last IRQ: 2449
Emulated Cycles: 2449

8159: D0 F8       BNE $8153
CPU State: PC:8153 A:EA X:51 Y:00 SP:FD Status:25 (NV-B DIZC)
RAM State: $00:00 $01:00 $02:00
Timing: Current Emulated Cycle: 2452, Last IRQ Trigger Cycle: 0, Cycles Since Last IRQ: 2452
Emulated Cycles: 2452

8153: A9 EA       LDA #$EA
CPU State: PC:8155 A:EA X:51 Y:00 SP:FD Status:A5 (NV-B DIZC)
RAM State: $00:00 $01:00 $02:00
Timing: Current Emulated Cycle: 2454, Last IRQ Trigger Cycle: 0, Cycles Since Last IRQ: 2454
Emulated Cycles: 2454

8155: 9D 00 C1    STA $C100,X
CPU State: PC:8158 A:EA X:51 Y:00 SP:FD Status:A5 (NV-B DIZC)
RAM State: $00:00 $01:00 $02:00
Timing: Current Emulated Cycle: 2459, Last IRQ Trigger Cycle: 0, Cycles Since Last IRQ: 2459
Emulated Cycles: 2459

8158: E8          INX
CPU State: PC:8159 A:EA X:52 Y:00 SP:FD Status:25 (NV-B DIZC)
RAM State: $00:00 $01:00 $02:00
Timing: Current Emulated Cycle: 2461, Last IRQ Trigger Cycle: 0, Cycles Since Last IRQ: 2461
Emulated Cycles: 2461

8159: D0 F8       BNE $8153
CPU State: PC:8153 A:EA X:52 Y:00 SP:FD Status:25 (NV-B DIZC)
RAM State: $00:00 $01:00 $02:00
Timing: Current Emulated Cycle: 2464, Last IRQ Trigger Cycle: 0, Cycles Since Last IRQ: 2464
Emulated Cycles: 2464

8153: A9 EA       LDA #$EA
CPU State: PC:8155 A:EA X:52 Y:00 SP:FD Status:A5 (NV-B DIZC)
RAM State: $00:00 $01:00 $02:00
Timing: Current Emulated Cycle: 2466, Last IRQ Trigger Cycle: 0, Cycles Since Last IRQ: 2466
Emulated Cycles: 2466

8155: 9D 00 C1    STA $C100,X
CPU State: PC:8158 A:EA X:52 Y:00 SP:FD Status:A5 (NV-B DIZC)
RAM State: $00:00 $01:00 $02:00
Timing: Current Emulated Cycle: 2471, Last IRQ Trigger Cycle: 0, Cycles Since Last IRQ: 2471
Emulated Cycles: 2471

8158: E8          INX
CPU State: PC:8159 A:EA X:53 Y:00 SP:FD Status:25 (NV-B DIZC)
RAM State: $00:00 $01:00 $02:00
Timing: Current Emulated Cycle: 2473, Last IRQ Trigger Cycle: 0, Cycles Since Last IRQ: 2473
Emulated Cycles: 2473

8159: D0 F8       BNE $8153
CPU State: PC:8153 A:EA X:53 Y:00 SP:FD Status:25 (NV-B DIZC)
RAM State: $00:00 $01:00 $02:00
Timing: Current Emulated Cycle: 2476, Last IRQ Trigger Cycle: 0, Cycles Since Last IRQ: 2476
Emulated Cycles: 2476

8153: A9 EA       LDA #$EA
CPU State: PC:8155 A:EA X:53 Y:00 SP:FD Status:A5 (NV-B DIZC)
RAM State: $00:00 $01:00 $02:00
Timing: Current Emulated Cycle: 2478, Last IRQ Trigger Cycle: 0, Cycles Since Last IRQ: 2478
Emulated Cycles: 2478

8155: 9D 00 C1    STA $C100,X
CPU State: PC:8158 A:EA X:53 Y:00 SP:FD Status:A5 (NV-B DIZC)
RAM State: $00:00 $01:00 $02:00
Timing: Current Emulated Cycle: 2483, Last IRQ Trigger Cycle: 0, Cycles Since Last IRQ: 2483
Emulated Cycles: 2483

8158: E8          INX
CPU State: PC:8159 A:EA X:54 Y:00 SP:FD Status:25 (NV-B DIZC)
RAM State: $00:00 $01:00 $02:00
Timing: Current Emulated Cycle: 2485, Last IRQ Trigger Cycle: 0, Cycles Since Last IRQ: 2485
Emulated Cycles: 2485

8159: D0 F8       BNE $8153
CPU State: PC:8153 A:EA X:54 Y:00 SP:FD Status:25 (NV-B DIZC)
RAM State: $00:00 $01:00 $02:00
Timing: Current Emulated Cycle: 2488, Last IRQ Trigger Cycle: 0, Cycles Since Last IRQ: 2488
Emulated Cycles: 2488

8153: A9 EA       LDA #$EA
CPU State: PC:8155 A:EA X:54 Y:00 SP:FD Status:A5 (NV-B DIZC)
RAM State: $00:00 $01:00 $02:00
Timing: Current Emulated Cycle: 2490, Last IRQ Trigger Cycle: 0, Cycles Since Last IRQ: 2490
Emulated Cycles: 2490

8155: 9D 00 C1    STA $C100,X
CPU State: PC:8158 A:EA X:54 Y:00 SP:FD Status:A5 (NV-B DIZC)
RAM State: $00:00 $01:00 $02:00
Timing: Current Emulated Cycle: 2495, Last IRQ Trigger Cycle: 0, Cycles Since Last IRQ: 2495
Emulated Cycles: 2495

8158: E8          INX
CPU State: PC:8159 A:EA X:55 Y:00 SP:FD Status:25 (NV-B DIZC)
RAM State: $00:00 $01:00 $02:00
Timing: Current Emulated Cycle: 2497, Last IRQ Trigger Cycle: 0, Cycles Since Last IRQ: 2497
Emulated Cycles: 2497

8159: D0 F8       BNE $8153
CPU State: PC:8153 A:EA X:55 Y:00 SP:FD Status:25 (NV-B DIZC)
RAM State: $00:00 $01:00 $02:00
Timing: Current Emulated Cycle: 2500, Last IRQ Trigger Cycle: 0, Cycles Since Last IRQ: 2500
Emulated Cycles: 2500

8153: A9 EA       LDA #$EA
CPU State: PC:8155 A:EA X:55 Y:00 SP:FD Status:A5 (NV-B DIZC)
RAM State: $00:00 $01:00 $02:00
Timing: Current Emulated Cycle: 2502, Last IRQ Trigger Cycle: 0, Cycles Since Last IRQ: 2502
Emulated Cycles: 2502

8155: 9D 00 C1    STA $C100,X
CPU State: PC:8158 A:EA X:55 Y:00 SP:FD Status:A5 (NV-B DIZC)
RAM State: $00:00 $01:00 $02:00
Timing: Current Emulated Cycle: 2507, Last IRQ Trigger Cycle: 0, Cycles Since Last IRQ: 2507
Emulated Cycles: 2507

8158: E8          INX
CPU State: PC:8159 A:EA X:56 Y:00 SP:FD Status:25 (NV-B DIZC)
RAM State: $00:00 $01:00 $02:00
Timing: Current Emulated Cycle: 2509, Last IRQ Trigger Cycle: 0, Cycles Since Last IRQ: 2509
Emulated Cycles: 2509

8159: D0 F8       BNE $8153
CPU State: PC:8153 A:EA X:56 Y:00 SP:FD Status:25 (NV-B DIZC)
RAM State: $00:00 $01:00 $02:00
Timing: Current Emulated Cycle: 2512, Last IRQ Trigger Cycle: 0, Cycles Since Last IRQ: 2512
Emulated Cycles: 2512

8153: A9 EA       LDA #$EA
CPU State: PC:8155 A:EA X:56 Y:00 SP:FD Status:A5 (NV-B DIZC)
RAM State: $00:00 $01:00 $02:00
Timing: Current Emulated Cycle: 2514, Last IRQ Trigger Cycle: 0, Cycles Since Last IRQ: 2514
Emulated Cycles: 2514

8155: 9D 00 C1    STA $C100,X
CPU State: PC:8158 A:EA X:56 Y:00 SP:FD Status:A5 (NV-B DIZC)
RAM State: $00:00 $01:00 $02:00
Timing: Current Emulated Cycle: 2519, Last IRQ Trigger Cycle: 0, Cycles Since Last IRQ: 2519
Emulated Cycles: 2519

8158: E8          INX
CPU State: PC:8159 A:EA X:57 Y:00 SP:FD Status:25 (NV-B DIZC)
RAM State: $00:00 $01:00 $02:00
Timing: Current Emulated Cycle: 2521, Last IRQ Trigger Cycle: 0, Cycles Since Last IRQ: 2521
Emulated Cycles: 2521

8159: D0 F8       BNE $8153
CPU State: PC:8153 A:EA X:57 Y:00 SP:FD Status:25 (NV-B DIZC)
RAM State: $00:00 $01:00 $02:00
Timing: Current Emulated Cycle: 2524, Last IRQ Trigger Cycle: 0, Cycles Since Last IRQ: 2524
Emulated Cycles: 2524

8153: A9 EA       LDA #$EA
CPU State: PC:8155 A:EA X:57 Y:00 SP:FD Status:A5 (NV-B DIZC)
RAM State: $00:00 $01:00 $02:00
Timing: Current Emulated Cycle: 2526, Last IRQ Trigger Cycle: 0, Cycles Since Last IRQ: 2526
Emulated Cycles: 2526

8155: 9D 00 C1    STA $C100,X
CPU State: PC:8158 A:EA X:57 Y:00 SP:FD Status:A5 (NV-B DIZC)
RAM State: $00:00 $01:00 $02:00
Timing: Current Emulated Cycle: 2531, Last IRQ Trigger Cycle: 0, Cycles Since Last IRQ: 2531
Emulated Cycles: 2531

8158: E8          INX
CPU State: PC:8159 A:EA X:58 Y:00 SP:FD Status:25 (NV-B DIZC)
RAM State: $00:00 $01:00 $02:00
Timing: Current Emulated Cycle: 2533, Last IRQ Trigger Cycle: 0, Cycles Since Last IRQ: 2533
Emulated Cycles: 2533

8159: D0 F8       BNE $8153
CPU State: PC:8153 A:EA X:58 Y:00 SP:FD Status:25 (NV-B DIZC)
RAM State: $00:00 $01:00 $02:00
Timing: Current Emulated Cycle: 2536, Last IRQ Trigger Cycle: 0, Cycles Since Last IRQ: 2536
Emulated Cycles: 2536

8153: A9 EA       LDA #$EA
CPU State: PC:8155 A:EA X:58 Y:00 SP:FD Status:A5 (NV-B DIZC)
RAM State: $00:00 $01:00 $02:00
Timing: Current Emulated Cycle: 2538, Last IRQ Trigger Cycle: 0, Cycles Since Last IRQ: 2538
Emulated Cycles: 2538

8155: 9D 00 C1    STA $C100,X
CPU State: PC:8158 A:EA X:58 Y:00 SP:FD Status:A5 (NV-B DIZC)
RAM State: $00:00 $01:00 $02:00
Timing: Current Emulated Cycle: 2543, Last IRQ Trigger Cycle: 0, Cycles Since Last IRQ: 2543
Emulated Cycles: 2543

8158: E8          INX
CPU State: PC:8159 A:EA X:59 Y:00 SP:FD Status:25 (NV-B DIZC)
RAM State: $00:00 $01:00 $02:00
Timing: Current Emulated Cycle: 2545, Last IRQ Trigger Cycle: 0, Cycles Since Last IRQ: 2545
Emulated Cycles: 2545

8159: D0 F8       BNE $8153
CPU State: PC:8153 A:EA X:59 Y:00 SP:FD Status:25 (NV-B DIZC)
RAM State: $00:00 $01:00 $02:00
Timing: Current Emulated Cycle: 2548, Last IRQ Trigger Cycle: 0, Cycles Since Last IRQ: 2548
Emulated Cycles: 2548

8153: A9 EA       LDA #$EA
CPU State: PC:8155 A:EA X:59 Y:00 SP:FD Status:A5 (NV-B DIZC)
RAM State: $00:00 $01:00 $02:00
Timing: Current Emulated Cycle: 2550, Last IRQ Trigger Cycle: 0, Cycles Since Last IRQ: 2550
Emulated Cycles: 2550

8155: 9D 00 C1    STA $C100,X
CPU State: PC:8158 A:EA X:59 Y:00 SP:FD Status:A5 (NV-B DIZC)
RAM State: $00:00 $01:00 $02:00
Timing: Current Emulated Cycle: 2555, Last IRQ Trigger Cycle: 0, Cycles Since Last IRQ: 2555
Emulated Cycles: 2555

8158: E8          INX
CPU State: PC:8159 A:EA X:5A Y:00 SP:FD Status:25 (NV-B DIZC)
RAM State: $00:00 $01:00 $02:00
Timing: Current Emulated Cycle: 2557, Last IRQ Trigger Cycle: 0, Cycles Since Last IRQ: 2557
Emulated Cycles: 2557

8159: D0 F8       BNE $8153
CPU State: PC:8153 A:EA X:5A Y:00 SP:FD Status:25 (NV-B DIZC)
RAM State: $00:00 $01:00 $02:00
Timing: Current Emulated Cycle: 2560, Last IRQ Trigger Cycle: 0, Cycles Since Last IRQ: 2560
Emulated Cycles: 2560

8153: A9 EA       LDA #$EA
CPU State: PC:8155 A:EA X:5A Y:00 SP:FD Status:A5 (NV-B DIZC)
RAM State: $00:00 $01:00 $02:00
Timing: Current Emulated Cycle: 2562, Last IRQ Trigger Cycle: 0, Cycles Since Last IRQ: 2562
Emulated Cycles: 2562

8155: 9D 00 C1    STA $C100,X
CPU State: PC:8158 A:EA X:5A Y:00 SP:FD Status:A5 (NV-B DIZC)
RAM State: $00:00 $01:00 $02:00
Timing: Current Emulated Cycle: 2567, Last IRQ Trigger Cycle: 0, Cycles Since Last IRQ: 2567
Emulated Cycles: 2567

8158: E8          INX
CPU State: PC:8159 A:EA X:5B Y:00 SP:FD Status:25 (NV-B DIZC)
RAM State: $00:00 $01:00 $02:00
Timing: Current Emulated Cycle: 2569, Last IRQ Trigger Cycle: 0, Cycles Since Last IRQ: 2569
Emulated Cycles: 2569

8159: D0 F8       BNE $8153
CPU State: PC:8153 A:EA X:5B Y:00 SP:FD Status:25 (NV-B DIZC)
RAM State: $00:00 $01:00 $02:00
Timing: Current Emulated Cycle: 2572, Last IRQ Trigger Cycle: 0, Cycles Since Last IRQ: 2572
Emulated Cycles: 2572

8153: A9 EA       LDA #$EA
CPU State: PC:8155 A:EA X:5B Y:00 SP:FD Status:A5 (NV-B DIZC)
RAM State: $00:00 $01:00 $02:00
Timing: Current Emulated Cycle: 2574, Last IRQ Trigger Cycle: 0, Cycles Since Last IRQ: 2574
Emulated Cycles: 2574

8155: 9D 00 C1    STA $C100,X
CPU State: PC:8158 A:EA X:5B Y:00 SP:FD Status:A5 (NV-B DIZC)
RAM State: $00:00 $01:00 $02:00
Timing: Current Emulated Cycle: 2579, Last IRQ Trigger Cycle: 0, Cycles Since Last IRQ: 2579
Emulated Cycles: 2579

8158: E8          INX
CPU State: PC:8159 A:EA X:5C Y:00 SP:FD Status:25 (NV-B DIZC)
RAM State: $00:00 $01:00 $02:00
Timing: Current Emulated Cycle: 2581, Last IRQ Trigger Cycle: 0, Cycles Since Last IRQ: 2581
Emulated Cycles: 2581

8159: D0 F8       BNE $8153
CPU State: PC:8153 A:EA X:5C Y:00 SP:FD Status:25 (NV-B DIZC)
RAM State: $00:00 $01:00 $02:00
Timing: Current Emulated Cycle: 2584, Last IRQ Trigger Cycle: 0, Cycles Since Last IRQ: 2584
Emulated Cycles: 2584

8153: A9 EA       LDA #$EA
CPU State: PC:8155 A:EA X:5C Y:00 SP:FD Status:A5 (NV-B DIZC)
RAM State: $00:00 $01:00 $02:00
Timing: Current Emulated Cycle: 2586, Last IRQ Trigger Cycle: 0, Cycles Since Last IRQ: 2586
Emulated Cycles: 2586

8155: 9D 00 C1    STA $C100,X
CPU State: PC:8158 A:EA X:5C Y:00 SP:FD Status:A5 (NV-B DIZC)
RAM State: $00:00 $01:00 $02:00
Timing: Current Emulated Cycle: 2591, Last IRQ Trigger Cycle: 0, Cycles Since Last IRQ: 2591
Emulated Cycles: 2591

8158: E8          INX
CPU State: PC:8159 A:EA X:5D Y:00 SP:FD Status:25 (NV-B DIZC)
RAM State: $00:00 $01:00 $02:00
Timing: Current Emulated Cycle: 2593, Last IRQ Trigger Cycle: 0, Cycles Since Last IRQ: 2593
Emulated Cycles: 2593

8159: D0 F8       BNE $8153
CPU State: PC:8153 A:EA X:5D Y:00 SP:FD Status:25 (NV-B DIZC)
RAM State: $00:00 $01:00 $02:00
Timing: Current Emulated Cycle: 2596, Last IRQ Trigger Cycle: 0, Cycles Since Last IRQ: 2596
Emulated Cycles: 2596

8153: A9 EA       LDA #$EA
CPU State: PC:8155 A:EA X:5D Y:00 SP:FD Status:A5 (NV-B DIZC)
RAM State: $00:00 $01:00 $02:00
Timing: Current Emulated Cycle: 2598, Last IRQ Trigger Cycle: 0, Cycles Since Last IRQ: 2598
Emulated Cycles: 2598

8155: 9D 00 C1    STA $C100,X
CPU State: PC:8158 A:EA X:5D Y:00 SP:FD Status:A5 (NV-B DIZC)
RAM State: $00:00 $01:00 $02:00
Timing: Current Emulated Cycle: 2603, Last IRQ Trigger Cycle: 0, Cycles Since Last IRQ: 2603
Emulated Cycles: 2603

8158: E8          INX
CPU State: PC:8159 A:EA X:5E Y:00 SP:FD Status:25 (NV-B DIZC)
RAM State: $00:00 $01:00 $02:00
Timing: Current Emulated Cycle: 2605, Last IRQ Trigger Cycle: 0, Cycles Since Last IRQ: 2605
Emulated Cycles: 2605

8159: D0 F8       BNE $8153
CPU State: PC:8153 A:EA X:5E Y:00 SP:FD Status:25 (NV-B DIZC)
RAM State: $00:00 $01:00 $02:00
Timing: Current Emulated Cycle: 2608, Last IRQ Trigger Cycle: 0, Cycles Since Last IRQ: 2608
Emulated Cycles: 2608

8153: A9 EA       LDA #$EA
CPU State: PC:8155 A:EA X:5E Y:00 SP:FD Status:A5 (NV-B DIZC)
RAM State: $00:00 $01:00 $02:00
Timing: Current Emulated Cycle: 2610, Last IRQ Trigger Cycle: 0, Cycles Since Last IRQ: 2610
Emulated Cycles: 2610

8155: 9D 00 C1    STA $C100,X
CPU State: PC:8158 A:EA X:5E Y:00 SP:FD Status:A5 (NV-B DIZC)
RAM State: $00:00 $01:00 $02:00
Timing: Current Emulated Cycle: 2615, Last IRQ Trigger Cycle: 0, Cycles Since Last IRQ: 2615
Emulated Cycles: 2615

8158: E8          INX
CPU State: PC:8159 A:EA X:5F Y:00 SP:FD Status:25 (NV-B DIZC)
RAM State: $00:00 $01:00 $02:00
Timing: Current Emulated Cycle: 2617, Last IRQ Trigger Cycle: 0, Cycles Since Last IRQ: 2617
Emulated Cycles: 2617

8159: D0 F8       BNE $8153
CPU State: PC:8153 A:EA X:5F Y:00 SP:FD Status:25 (NV-B DIZC)
RAM State: $00:00 $01:00 $02:00
Timing: Current Emulated Cycle: 2620, Last IRQ Trigger Cycle: 0, Cycles Since Last IRQ: 2620
Emulated Cycles: 2620

8153: A9 EA       LDA #$EA
CPU State: PC:8155 A:EA X:5F Y:00 SP:FD Status:A5 (NV-B DIZC)
RAM State: $00:00 $01:00 $02:00
Timing: Current Emulated Cycle: 2622, Last IRQ Trigger Cycle: 0, Cycles Since Last IRQ: 2622
Emulated Cycles: 2622

8155: 9D 00 C1    STA $C100,X
CPU State: PC:8158 A:EA X:5F Y:00 SP:FD Status:A5 (NV-B DIZC)
RAM State: $00:00 $01:00 $02:00
Timing: Current Emulated Cycle: 2627, Last IRQ Trigger Cycle: 0, Cycles Since Last IRQ: 2627
Emulated Cycles: 2627

8158: E8          INX
CPU State: PC:8159 A:EA X:60 Y:00 SP:FD Status:25 (NV-B DIZC)
RAM State: $00:00 $01:00 $02:00
Timing: Current Emulated Cycle: 2629, Last IRQ Trigger Cycle: 0, Cycles Since Last IRQ: 2629
Emulated Cycles: 2629

8159: D0 F8       BNE $8153
CPU State: PC:8153 A:EA X:60 Y:00 SP:FD Status:25 (NV-B DIZC)
RAM State: $00:00 $01:00 $02:00
Timing: Current Emulated Cycle: 2632, Last IRQ Trigger Cycle: 0, Cycles Since Last IRQ: 2632
Emulated Cycles: 2632

8153: A9 EA       LDA #$EA
CPU State: PC:8155 A:EA X:60 Y:00 SP:FD Status:A5 (NV-B DIZC)
RAM State: $00:00 $01:00 $02:00
Timing: Current Emulated Cycle: 2634, Last IRQ Trigger Cycle: 0, Cycles Since Last IRQ: 2634
Emulated Cycles: 2634

8155: 9D 00 C1    STA $C100,X
CPU State: PC:8158 A:EA X:60 Y:00 SP:FD Status:A5 (NV-B DIZC)
RAM State: $00:00 $01:00 $02:00
Timing: Current Emulated Cycle: 2639, Last IRQ Trigger Cycle: 0, Cycles Since Last IRQ: 2639
Emulated Cycles: 2639

8158: E8          INX
CPU State: PC:8159 A:EA X:61 Y:00 SP:FD Status:25 (NV-B DIZC)
RAM State: $00:00 $01:00 $02:00
Timing: Current Emulated Cycle: 2641, Last IRQ Trigger Cycle: 0, Cycles Since Last IRQ: 2641
Emulated Cycles: 2641

8159: D0 F8       BNE $8153
CPU State: PC:8153 A:EA X:61 Y:00 SP:FD Status:25 (NV-B DIZC)
RAM State: $00:00 $01:00 $02:00
Timing: Current Emulated Cycle: 2644, Last IRQ Trigger Cycle: 0, Cycles Since Last IRQ: 2644
Emulated Cycles: 2644

8153: A9 EA       LDA #$EA
CPU State: PC:8155 A:EA X:61 Y:00 SP:FD Status:A5 (NV-B DIZC)
RAM State: $00:00 $01:00 $02:00
Timing: Current Emulated Cycle: 2646, Last IRQ Trigger Cycle: 0, Cycles Since Last IRQ: 2646
Emulated Cycles: 2646

8155: 9D 00 C1    STA $C100,X
CPU State: PC:8158 A:EA X:61 Y:00 SP:FD Status:A5 (NV-B DIZC)
RAM State: $00:00 $01:00 $02:00
Timing: Current Emulated Cycle: 2651, Last IRQ Trigger Cycle: 0, Cycles Since Last IRQ: 2651
Emulated Cycles: 2651

8158: E8          INX
CPU State: PC:8159 A:EA X:62 Y:00 SP:FD Status:25 (NV-B DIZC)
RAM State: $00:00 $01:00 $02:00
Timing: Current Emulated Cycle: 2653, Last IRQ Trigger Cycle: 0, Cycles Since Last IRQ: 2653
Emulated Cycles: 2653

8159: D0 F8       BNE $8153
CPU State: PC:8153 A:EA X:62 Y:00 SP:FD Status:25 (NV-B DIZC)
RAM State: $00:00 $01:00 $02:00
Timing: Current Emulated Cycle: 2656, Last IRQ Trigger Cycle: 0, Cycles Since Last IRQ: 2656
Emulated Cycles: 2656

8153: A9 EA       LDA #$EA
CPU State: PC:8155 A:EA X:62 Y:00 SP:FD Status:A5 (NV-B DIZC)
RAM State: $00:00 $01:00 $02:00
Timing: Current Emulated Cycle: 2658, Last IRQ Trigger Cycle: 0, Cycles Since Last IRQ: 2658
Emulated Cycles: 2658

8155: 9D 00 C1    STA $C100,X
CPU State: PC:8158 A:EA X:62 Y:00 SP:FD Status:A5 (NV-B DIZC)
RAM State: $00:00 $01:00 $02:00
Timing: Current Emulated Cycle: 2663, Last IRQ Trigger Cycle: 0, Cycles Since Last IRQ: 2663
Emulated Cycles: 2663

8158: E8          INX
CPU State: PC:8159 A:EA X:63 Y:00 SP:FD Status:25 (NV-B DIZC)
RAM State: $00:00 $01:00 $02:00
Timing: Current Emulated Cycle: 2665, Last IRQ Trigger Cycle: 0, Cycles Since Last IRQ: 2665
Emulated Cycles: 2665

8159: D0 F8       BNE $8153
CPU State: PC:8153 A:EA X:63 Y:00 SP:FD Status:25 (NV-B DIZC)
RAM State: $00:00 $01:00 $02:00
Timing: Current Emulated Cycle: 2668, Last IRQ Trigger Cycle: 0, Cycles Since Last IRQ: 2668
Emulated Cycles: 2668

8153: A9 EA       LDA #$EA
CPU State: PC:8155 A:EA X:63 Y:00 SP:FD Status:A5 (NV-B DIZC)
RAM State: $00:00 $01:00 $02:00
Timing: Current Emulated Cycle: 2670, Last IRQ Trigger Cycle: 0, Cycles Since Last IRQ: 2670
Emulated Cycles: 2670

8155: 9D 00 C1    STA $C100,X
CPU State: PC:8158 A:EA X:63 Y:00 SP:FD Status:A5 (NV-B DIZC)
RAM State: $00:00 $01:00 $02:00
Timing: Current Emulated Cycle: 2675, Last IRQ Trigger Cycle: 0, Cycles Since Last IRQ: 2675
Emulated Cycles: 2675

8158: E8          INX
CPU State: PC:8159 A:EA X:64 Y:00 SP:FD Status:25 (NV-B DIZC)
RAM State: $00:00 $01:00 $02:00
Timing: Current Emulated Cycle: 2677, Last IRQ Trigger Cycle: 0, Cycles Since Last IRQ: 2677
Emulated Cycles: 2677

8159: D0 F8       BNE $8153
CPU State: PC:8153 A:EA X:64 Y:00 SP:FD Status:25 (NV-B DIZC)
RAM State: $00:00 $01:00 $02:00
Timing: Current Emulated Cycle: 2680, Last IRQ Trigger Cycle: 0, Cycles Since Last IRQ: 2680
Emulated Cycles: 2680

8153: A9 EA       LDA #$EA
CPU State: PC:8155 A:EA X:64 Y:00 SP:FD Status:A5 (NV-B DIZC)
RAM State: $00:00 $01:00 $02:00
Timing: Current Emulated Cycle: 2682, Last IRQ Trigger Cycle: 0, Cycles Since Last IRQ: 2682
Emulated Cycles: 2682

8155: 9D 00 C1    STA $C100,X
CPU State: PC:8158 A:EA X:64 Y:00 SP:FD Status:A5 (NV-B DIZC)
RAM State: $00:00 $01:00 $02:00
Timing: Current Emulated Cycle: 2687, Last IRQ Trigger Cycle: 0, Cycles Since Last IRQ: 2687
Emulated Cycles: 2687

8158: E8          INX
CPU State: PC:8159 A:EA X:65 Y:00 SP:FD Status:25 (NV-B DIZC)
RAM State: $00:00 $01:00 $02:00
Timing: Current Emulated Cycle: 2689, Last IRQ Trigger Cycle: 0, Cycles Since Last IRQ: 2689
Emulated Cycles: 2689

8159: D0 F8       BNE $8153
CPU State: PC:8153 A:EA X:65 Y:00 SP:FD Status:25 (NV-B DIZC)
RAM State: $00:00 $01:00 $02:00
Timing: Current Emulated Cycle: 2692, Last IRQ Trigger Cycle: 0, Cycles Since Last IRQ: 2692
Emulated Cycles: 2692

8153: A9 EA       LDA #$EA
CPU State: PC:8155 A:EA X:65 Y:00 SP:FD Status:A5 (NV-B DIZC)
RAM State: $00:00 $01:00 $02:00
Timing: Current Emulated Cycle: 2694, Last IRQ Trigger Cycle: 0, Cycles Since Last IRQ: 2694
Emulated Cycles: 2694

8155: 9D 00 C1    STA $C100,X
CPU State: PC:8158 A:EA X:65 Y:00 SP:FD Status:A5 (NV-B DIZC)
RAM State: $00:00 $01:00 $02:00
Timing: Current Emulated Cycle: 2699, Last IRQ Trigger Cycle: 0, Cycles Since Last IRQ: 2699
Emulated Cycles: 2699

8158: E8          INX
CPU State: PC:8159 A:EA X:66 Y:00 SP:FD Status:25 (NV-B DIZC)
RAM State: $00:00 $01:00 $02:00
Timing: Current Emulated Cycle: 2701, Last IRQ Trigger Cycle: 0, Cycles Since Last IRQ: 2701
Emulated Cycles: 2701

8159: D0 F8       BNE $8153
CPU State: PC:8153 A:EA X:66 Y:00 SP:FD Status:25 (NV-B DIZC)
RAM State: $00:00 $01:00 $02:00
Timing: Current Emulated Cycle: 2704, Last IRQ Trigger Cycle: 0, Cycles Since Last IRQ: 2704
Emulated Cycles: 2704

8153: A9 EA       LDA #$EA
CPU State: PC:8155 A:EA X:66 Y:00 SP:FD Status:A5 (NV-B DIZC)
RAM State: $00:00 $01:00 $02:00
Timing: Current Emulated Cycle: 2706, Last IRQ Trigger Cycle: 0, Cycles Since Last IRQ: 2706
Emulated Cycles: 2706

8155: 9D 00 C1    STA $C100,X
CPU State: PC:8158 A:EA X:66 Y:00 SP:FD Status:A5 (NV-B DIZC)
RAM State: $00:00 $01:00 $02:00
Timing: Current Emulated Cycle: 2711, Last IRQ Trigger Cycle: 0, Cycles Since Last IRQ: 2711
Emulated Cycles: 2711

8158: E8          INX
CPU State: PC:8159 A:EA X:67 Y:00 SP:FD Status:25 (NV-B DIZC)
RAM State: $00:00 $01:00 $02:00
Timing: Current Emulated Cycle: 2713, Last IRQ Trigger Cycle: 0, Cycles Since Last IRQ: 2713
Emulated Cycles: 2713

8159: D0 F8       BNE $8153
CPU State: PC:8153 A:EA X:67 Y:00 SP:FD Status:25 (NV-B DIZC)
RAM State: $00:00 $01:00 $02:00
Timing: Current Emulated Cycle: 2716, Last IRQ Trigger Cycle: 0, Cycles Since Last IRQ: 2716
Emulated Cycles: 2716

8153: A9 EA       LDA #$EA
CPU State: PC:8155 A:EA X:67 Y:00 SP:FD Status:A5 (NV-B DIZC)
RAM State: $00:00 $01:00 $02:00
Timing: Current Emulated Cycle: 2718, Last IRQ Trigger Cycle: 0, Cycles Since Last IRQ: 2718
Emulated Cycles: 2718

8155: 9D 00 C1    STA $C100,X
CPU State: PC:8158 A:EA X:67 Y:00 SP:FD Status:A5 (NV-B DIZC)
RAM State: $00:00 $01:00 $02:00
Timing: Current Emulated Cycle: 2723, Last IRQ Trigger Cycle: 0, Cycles Since Last IRQ: 2723
Emulated Cycles: 2723

8158: E8          INX
CPU State: PC:8159 A:EA X:68 Y:00 SP:FD Status:25 (NV-B DIZC)
RAM State: $00:00 $01:00 $02:00
Timing: Current Emulated Cycle: 2725, Last IRQ Trigger Cycle: 0, Cycles Since Last IRQ: 2725
Emulated Cycles: 2725

8159: D0 F8       BNE $8153
CPU State: PC:8153 A:EA X:68 Y:00 SP:FD Status:25 (NV-B DIZC)
RAM State: $00:00 $01:00 $02:00
Timing: Current Emulated Cycle: 2728, Last IRQ Trigger Cycle: 0, Cycles Since Last IRQ: 2728
Emulated Cycles: 2728

8153: A9 EA       LDA #$EA
CPU State: PC:8155 A:EA X:68 Y:00 SP:FD Status:A5 (NV-B DIZC)
RAM State: $00:00 $01:00 $02:00
Timing: Current Emulated Cycle: 2730, Last IRQ Trigger Cycle: 0, Cycles Since Last IRQ: 2730
Emulated Cycles: 2730

8155: 9D 00 C1    STA $C100,X
CPU State: PC:8158 A:EA X:68 Y:00 SP:FD Status:A5 (NV-B DIZC)
RAM State: $00:00 $01:00 $02:00
Timing: Current Emulated Cycle: 2735, Last IRQ Trigger Cycle: 0, Cycles Since Last IRQ: 2735
Emulated Cycles: 2735

8158: E8          INX
CPU State: PC:8159 A:EA X:69 Y:00 SP:FD Status:25 (NV-B DIZC)
RAM State: $00:00 $01:00 $02:00
Timing: Current Emulated Cycle: 2737, Last IRQ Trigger Cycle: 0, Cycles Since Last IRQ: 2737
Emulated Cycles: 2737

8159: D0 F8       BNE $8153
CPU State: PC:8153 A:EA X:69 Y:00 SP:FD Status:25 (NV-B DIZC)
RAM State: $00:00 $01:00 $02:00
Timing: Current Emulated Cycle: 2740, Last IRQ Trigger Cycle: 0, Cycles Since Last IRQ: 2740
Emulated Cycles: 2740

8153: A9 EA       LDA #$EA
CPU State: PC:8155 A:EA X:69 Y:00 SP:FD Status:A5 (NV-B DIZC)
RAM State: $00:00 $01:00 $02:00
Timing: Current Emulated Cycle: 2742, Last IRQ Trigger Cycle: 0, Cycles Since Last IRQ: 2742
Emulated Cycles: 2742

8155: 9D 00 C1    STA $C100,X
CPU State: PC:8158 A:EA X:69 Y:00 SP:FD Status:A5 (NV-B DIZC)
RAM State: $00:00 $01:00 $02:00
Timing: Current Emulated Cycle: 2747, Last IRQ Trigger Cycle: 0, Cycles Since Last IRQ: 2747
Emulated Cycles: 2747

8158: E8          INX
CPU State: PC:8159 A:EA X:6A Y:00 SP:FD Status:25 (NV-B DIZC)
RAM State: $00:00 $01:00 $02:00
Timing: Current Emulated Cycle: 2749, Last IRQ Trigger Cycle: 0, Cycles Since Last IRQ: 2749
Emulated Cycles: 2749

8159: D0 F8       BNE $8153
CPU State: PC:8153 A:EA X:6A Y:00 SP:FD Status:25 (NV-B DIZC)
RAM State: $00:00 $01:00 $02:00
Timing: Current Emulated Cycle: 2752, Last IRQ Trigger Cycle: 0, Cycles Since Last IRQ: 2752
Emulated Cycles: 2752

8153: A9 EA       LDA #$EA
CPU State: PC:8155 A:EA X:6A Y:00 SP:FD Status:A5 (NV-B DIZC)
RAM State: $00:00 $01:00 $02:00
Timing: Current Emulated Cycle: 2754, Last IRQ Trigger Cycle: 0, Cycles Since Last IRQ: 2754
Emulated Cycles: 2754

8155: 9D 00 C1    STA $C100,X
CPU State: PC:8158 A:EA X:6A Y:00 SP:FD Status:A5 (NV-B DIZC)
RAM State: $00:00 $01:00 $02:00
Timing: Current Emulated Cycle: 2759, Last IRQ Trigger Cycle: 0, Cycles Since Last IRQ: 2759
Emulated Cycles: 2759

8158: E8          INX
CPU State: PC:8159 A:EA X:6B Y:00 SP:FD Status:25 (NV-B DIZC)
RAM State: $00:00 $01:00 $02:00
Timing: Current Emulated Cycle: 2761, Last IRQ Trigger Cycle: 0, Cycles Since Last IRQ: 2761
Emulated Cycles: 2761

8159: D0 F8       BNE $8153
CPU State: PC:8153 A:EA X:6B Y:00 SP:FD Status:25 (NV-B DIZC)
RAM State: $00:00 $01:00 $02:00
Timing: Current Emulated Cycle: 2764, Last IRQ Trigger Cycle: 0, Cycles Since Last IRQ: 2764
Emulated Cycles: 2764

8153: A9 EA       LDA #$EA
CPU State: PC:8155 A:EA X:6B Y:00 SP:FD Status:A5 (NV-B DIZC)
RAM State: $00:00 $01:00 $02:00
Timing: Current Emulated Cycle: 2766, Last IRQ Trigger Cycle: 0, Cycles Since Last IRQ: 2766
Emulated Cycles: 2766

8155: 9D 00 C1    STA $C100,X
CPU State: PC:8158 A:EA X:6B Y:00 SP:FD Status:A5 (NV-B DIZC)
RAM State: $00:00 $01:00 $02:00
Timing: Current Emulated Cycle: 2771, Last IRQ Trigger Cycle: 0, Cycles Since Last IRQ: 2771
Emulated Cycles: 2771

8158: E8          INX
CPU State: PC:8159 A:EA X:6C Y:00 SP:FD Status:25 (NV-B DIZC)
RAM State: $00:00 $01:00 $02:00
Timing: Current Emulated Cycle: 2773, Last IRQ Trigger Cycle: 0, Cycles Since Last IRQ: 2773
Emulated Cycles: 2773

8159: D0 F8       BNE $8153
CPU State: PC:8153 A:EA X:6C Y:00 SP:FD Status:25 (NV-B DIZC)
RAM State: $00:00 $01:00 $02:00
Timing: Current Emulated Cycle: 2776, Last IRQ Trigger Cycle: 0, Cycles Since Last IRQ: 2776
Emulated Cycles: 2776

8153: A9 EA       LDA #$EA
CPU State: PC:8155 A:EA X:6C Y:00 SP:FD Status:A5 (NV-B DIZC)
RAM State: $00:00 $01:00 $02:00
Timing: Current Emulated Cycle: 2778, Last IRQ Trigger Cycle: 0, Cycles Since Last IRQ: 2778
Emulated Cycles: 2778

8155: 9D 00 C1    STA $C100,X
CPU State: PC:8158 A:EA X:6C Y:00 SP:FD Status:A5 (NV-B DIZC)
RAM State: $00:00 $01:00 $02:00
Timing: Current Emulated Cycle: 2783, Last IRQ Trigger Cycle: 0, Cycles Since Last IRQ: 2783
Emulated Cycles: 2783

8158: E8          INX
CPU State: PC:8159 A:EA X:6D Y:00 SP:FD Status:25 (NV-B DIZC)
RAM State: $00:00 $01:00 $02:00
Timing: Current Emulated Cycle: 2785, Last IRQ Trigger Cycle: 0, Cycles Since Last IRQ: 2785
Emulated Cycles: 2785

8159: D0 F8       BNE $8153
CPU State: PC:8153 A:EA X:6D Y:00 SP:FD Status:25 (NV-B DIZC)
RAM State: $00:00 $01:00 $02:00
Timing: Current Emulated Cycle: 2788, Last IRQ Trigger Cycle: 0, Cycles Since Last IRQ: 2788
Emulated Cycles: 2788

8153: A9 EA       LDA #$EA
CPU State: PC:8155 A:EA X:6D Y:00 SP:FD Status:A5 (NV-B DIZC)
RAM State: $00:00 $01:00 $02:00
Timing: Current Emulated Cycle: 2790, Last IRQ Trigger Cycle: 0, Cycles Since Last IRQ: 2790
Emulated Cycles: 2790

8155: 9D 00 C1    STA $C100,X
CPU State: PC:8158 A:EA X:6D Y:00 SP:FD Status:A5 (NV-B DIZC)
RAM State: $00:00 $01:00 $02:00
Timing: Current Emulated Cycle: 2795, Last IRQ Trigger Cycle: 0, Cycles Since Last IRQ: 2795
Emulated Cycles: 2795

8158: E8          INX
CPU State: PC:8159 A:EA X:6E Y:00 SP:FD Status:25 (NV-B DIZC)
RAM State: $00:00 $01:00 $02:00
Timing: Current Emulated Cycle: 2797, Last IRQ Trigger Cycle: 0, Cycles Since Last IRQ: 2797
Emulated Cycles: 2797

8159: D0 F8       BNE $8153
CPU State: PC:8153 A:EA X:6E Y:00 SP:FD Status:25 (NV-B DIZC)
RAM State: $00:00 $01:00 $02:00
Timing: Current Emulated Cycle: 2800, Last IRQ Trigger Cycle: 0, Cycles Since Last IRQ: 2800
Emulated Cycles: 2800

8153: A9 EA       LDA #$EA
CPU State: PC:8155 A:EA X:6E Y:00 SP:FD Status:A5 (NV-B DIZC)
RAM State: $00:00 $01:00 $02:00
Timing: Current Emulated Cycle: 2802, Last IRQ Trigger Cycle: 0, Cycles Since Last IRQ: 2802
Emulated Cycles: 2802

8155: 9D 00 C1    STA $C100,X
CPU State: PC:8158 A:EA X:6E Y:00 SP:FD Status:A5 (NV-B DIZC)
RAM State: $00:00 $01:00 $02:00
Timing: Current Emulated Cycle: 2807, Last IRQ Trigger Cycle: 0, Cycles Since Last IRQ: 2807
Emulated Cycles: 2807

8158: E8          INX
CPU State: PC:8159 A:EA X:6F Y:00 SP:FD Status:25 (NV-B DIZC)
RAM State: $00:00 $01:00 $02:00
Timing: Current Emulated Cycle: 2809, Last IRQ Trigger Cycle: 0, Cycles Since Last IRQ: 2809
Emulated Cycles: 2809

8159: D0 F8       BNE $8153
CPU State: PC:8153 A:EA X:6F Y:00 SP:FD Status:25 (NV-B DIZC)
RAM State: $00:00 $01:00 $02:00
Timing: Current Emulated Cycle: 2812, Last IRQ Trigger Cycle: 0, Cycles Since Last IRQ: 2812
Emulated Cycles: 2812

8153: A9 EA       LDA #$EA
CPU State: PC:8155 A:EA X:6F Y:00 SP:FD Status:A5 (NV-B DIZC)
RAM State: $00:00 $01:00 $02:00
Timing: Current Emulated Cycle: 2814, Last IRQ Trigger Cycle: 0, Cycles Since Last IRQ: 2814
Emulated Cycles: 2814

8155: 9D 00 C1    STA $C100,X
CPU State: PC:8158 A:EA X:6F Y:00 SP:FD Status:A5 (NV-B DIZC)
RAM State: $00:00 $01:00 $02:00
Timing: Current Emulated Cycle: 2819, Last IRQ Trigger Cycle: 0, Cycles Since Last IRQ: 2819
Emulated Cycles: 2819

8158: E8          INX
CPU State: PC:8159 A:EA X:70 Y:00 SP:FD Status:25 (NV-B DIZC)
RAM State: $00:00 $01:00 $02:00
Timing: Current Emulated Cycle: 2821, Last IRQ Trigger Cycle: 0, Cycles Since Last IRQ: 2821
Emulated Cycles: 2821

8159: D0 F8       BNE $8153
CPU State: PC:8153 A:EA X:70 Y:00 SP:FD Status:25 (NV-B DIZC)
RAM State: $00:00 $01:00 $02:00
Timing: Current Emulated Cycle: 2824, Last IRQ Trigger Cycle: 0, Cycles Since Last IRQ: 2824
Emulated Cycles: 2824

8153: A9 EA       LDA #$EA
CPU State: PC:8155 A:EA X:70 Y:00 SP:FD Status:A5 (NV-B DIZC)
RAM State: $00:00 $01:00 $02:00
Timing: Current Emulated Cycle: 2826, Last IRQ Trigger Cycle: 0, Cycles Since Last IRQ: 2826
Emulated Cycles: 2826

8155: 9D 00 C1    STA $C100,X
CPU State: PC:8158 A:EA X:70 Y:00 SP:FD Status:A5 (NV-B DIZC)
RAM State: $00:00 $01:00 $02:00
Timing: Current Emulated Cycle: 2831, Last IRQ Trigger Cycle: 0, Cycles Since Last IRQ: 2831
Emulated Cycles: 2831

8158: E8          INX
CPU State: PC:8159 A:EA X:71 Y:00 SP:FD Status:25 (NV-B DIZC)
RAM State: $00:00 $01:00 $02:00
Timing: Current Emulated Cycle: 2833, Last IRQ Trigger Cycle: 0, Cycles Since Last IRQ: 2833
Emulated Cycles: 2833

8159: D0 F8       BNE $8153
CPU State: PC:8153 A:EA X:71 Y:00 SP:FD Status:25 (NV-B DIZC)
RAM State: $00:00 $01:00 $02:00
Timing: Current Emulated Cycle: 2836, Last IRQ Trigger Cycle: 0, Cycles Since Last IRQ: 2836
Emulated Cycles: 2836

8153: A9 EA       LDA #$EA
CPU State: PC:8155 A:EA X:71 Y:00 SP:FD Status:A5 (NV-B DIZC)
RAM State: $00:00 $01:00 $02:00
Timing: Current Emulated Cycle: 2838, Last IRQ Trigger Cycle: 0, Cycles Since Last IRQ: 2838
Emulated Cycles: 2838

8155: 9D 00 C1    STA $C100,X
CPU State: PC:8158 A:EA X:71 Y:00 SP:FD Status:A5 (NV-B DIZC)
RAM State: $00:00 $01:00 $02:00
Timing: Current Emulated Cycle: 2843, Last IRQ Trigger Cycle: 0, Cycles Since Last IRQ: 2843
Emulated Cycles: 2843

8158: E8          INX
CPU State: PC:8159 A:EA X:72 Y:00 SP:FD Status:25 (NV-B DIZC)
RAM State: $00:00 $01:00 $02:00
Timing: Current Emulated Cycle: 2845, Last IRQ Trigger Cycle: 0, Cycles Since Last IRQ: 2845
Emulated Cycles: 2845

8159: D0 F8       BNE $8153
CPU State: PC:8153 A:EA X:72 Y:00 SP:FD Status:25 (NV-B DIZC)
RAM State: $00:00 $01:00 $02:00
Timing: Current Emulated Cycle: 2848, Last IRQ Trigger Cycle: 0, Cycles Since Last IRQ: 2848
Emulated Cycles: 2848

8153: A9 EA       LDA #$EA
CPU State: PC:8155 A:EA X:72 Y:00 SP:FD Status:A5 (NV-B DIZC)
RAM State: $00:00 $01:00 $02:00
Timing: Current Emulated Cycle: 2850, Last IRQ Trigger Cycle: 0, Cycles Since Last IRQ: 2850
Emulated Cycles: 2850

8155: 9D 00 C1    STA $C100,X
CPU State: PC:8158 A:EA X:72 Y:00 SP:FD Status:A5 (NV-B DIZC)
RAM State: $00:00 $01:00 $02:00
Timing: Current Emulated Cycle: 2855, Last IRQ Trigger Cycle: 0, Cycles Since Last IRQ: 2855
Emulated Cycles: 2855

8158: E8          INX
CPU State: PC:8159 A:EA X:73 Y:00 SP:FD Status:25 (NV-B DIZC)
RAM State: $00:00 $01:00 $02:00
Timing: Current Emulated Cycle: 2857, Last IRQ Trigger Cycle: 0, Cycles Since Last IRQ: 2857
Emulated Cycles: 2857

8159: D0 F8       BNE $8153
CPU State: PC:8153 A:EA X:73 Y:00 SP:FD Status:25 (NV-B DIZC)
RAM State: $00:00 $01:00 $02:00
Timing: Current Emulated Cycle: 2860, Last IRQ Trigger Cycle: 0, Cycles Since Last IRQ: 2860
Emulated Cycles: 2860

8153: A9 EA       LDA #$EA
CPU State: PC:8155 A:EA X:73 Y:00 SP:FD Status:A5 (NV-B DIZC)
RAM State: $00:00 $01:00 $02:00
Timing: Current Emulated Cycle: 2862, Last IRQ Trigger Cycle: 0, Cycles Since Last IRQ: 2862
Emulated Cycles: 2862

8155: 9D 00 C1    STA $C100,X
CPU State: PC:8158 A:EA X:73 Y:00 SP:FD Status:A5 (NV-B DIZC)
RAM State: $00:00 $01:00 $02:00
Timing: Current Emulated Cycle: 2867, Last IRQ Trigger Cycle: 0, Cycles Since Last IRQ: 2867
Emulated Cycles: 2867

8158: E8          INX
CPU State: PC:8159 A:EA X:74 Y:00 SP:FD Status:25 (NV-B DIZC)
RAM State: $00:00 $01:00 $02:00
Timing: Current Emulated Cycle: 2869, Last IRQ Trigger Cycle: 0, Cycles Since Last IRQ: 2869
Emulated Cycles: 2869

8159: D0 F8       BNE $8153
CPU State: PC:8153 A:EA X:74 Y:00 SP:FD Status:25 (NV-B DIZC)
RAM State: $00:00 $01:00 $02:00
Timing: Current Emulated Cycle: 2872, Last IRQ Trigger Cycle: 0, Cycles Since Last IRQ: 2872
Emulated Cycles: 2872

8153: A9 EA       LDA #$EA
CPU State: PC:8155 A:EA X:74 Y:00 SP:FD Status:A5 (NV-B DIZC)
RAM State: $00:00 $01:00 $02:00
Timing: Current Emulated Cycle: 2874, Last IRQ Trigger Cycle: 0, Cycles Since Last IRQ: 2874
Emulated Cycles: 2874

8155: 9D 00 C1    STA $C100,X
CPU State: PC:8158 A:EA X:74 Y:00 SP:FD Status:A5 (NV-B DIZC)
RAM State: $00:00 $01:00 $02:00
Timing: Current Emulated Cycle: 2879, Last IRQ Trigger Cycle: 0, Cycles Since Last IRQ: 2879
Emulated Cycles: 2879

8158: E8          INX
CPU State: PC:8159 A:EA X:75 Y:00 SP:FD Status:25 (NV-B DIZC)
RAM State: $00:00 $01:00 $02:00
Timing: Current Emulated Cycle: 2881, Last IRQ Trigger Cycle: 0, Cycles Since Last IRQ: 2881
Emulated Cycles: 2881

8159: D0 F8       BNE $8153
CPU State: PC:8153 A:EA X:75 Y:00 SP:FD Status:25 (NV-B DIZC)
RAM State: $00:00 $01:00 $02:00
Timing: Current Emulated Cycle: 2884, Last IRQ Trigger Cycle: 0, Cycles Since Last IRQ: 2884
Emulated Cycles: 2884

8153: A9 EA       LDA #$EA
CPU State: PC:8155 A:EA X:75 Y:00 SP:FD Status:A5 (NV-B DIZC)
RAM State: $00:00 $01:00 $02:00
Timing: Current Emulated Cycle: 2886, Last IRQ Trigger Cycle: 0, Cycles Since Last IRQ: 2886
Emulated Cycles: 2886

8155: 9D 00 C1    STA $C100,X
CPU State: PC:8158 A:EA X:75 Y:00 SP:FD Status:A5 (NV-B DIZC)
RAM State: $00:00 $01:00 $02:00
Timing: Current Emulated Cycle: 2891, Last IRQ Trigger Cycle: 0, Cycles Since Last IRQ: 2891
Emulated Cycles: 2891

8158: E8          INX
CPU State: PC:8159 A:EA X:76 Y:00 SP:FD Status:25 (NV-B DIZC)
RAM State: $00:00 $01:00 $02:00
Timing: Current Emulated Cycle: 2893, Last IRQ Trigger Cycle: 0, Cycles Since Last IRQ: 2893
Emulated Cycles: 2893

8159: D0 F8       BNE $8153
CPU State: PC:8153 A:EA X:76 Y:00 SP:FD Status:25 (NV-B DIZC)
RAM State: $00:00 $01:00 $02:00
Timing: Current Emulated Cycle: 2896, Last IRQ Trigger Cycle: 0, Cycles Since Last IRQ: 2896
Emulated Cycles: 2896

8153: A9 EA       LDA #$EA
CPU State: PC:8155 A:EA X:76 Y:00 SP:FD Status:A5 (NV-B DIZC)
RAM State: $00:00 $01:00 $02:00
Timing: Current Emulated Cycle: 2898, Last IRQ Trigger Cycle: 0, Cycles Since Last IRQ: 2898
Emulated Cycles: 2898

8155: 9D 00 C1    STA $C100,X
CPU State: PC:8158 A:EA X:76 Y:00 SP:FD Status:A5 (NV-B DIZC)
RAM State: $00:00 $01:00 $02:00
Timing: Current Emulated Cycle: 2903, Last IRQ Trigger Cycle: 0, Cycles Since Last IRQ: 2903
Emulated Cycles: 2903

8158: E8          INX
CPU State: PC:8159 A:EA X:77 Y:00 SP:FD Status:25 (NV-B DIZC)
RAM State: $00:00 $01:00 $02:00
Timing: Current Emulated Cycle: 2905, Last IRQ Trigger Cycle: 0, Cycles Since Last IRQ: 2905
Emulated Cycles: 2905

8159: D0 F8       BNE $8153
CPU State: PC:8153 A:EA X:77 Y:00 SP:FD Status:25 (NV-B DIZC)
RAM State: $00:00 $01:00 $02:00
Timing: Current Emulated Cycle: 2908, Last IRQ Trigger Cycle: 0, Cycles Since Last IRQ: 2908
Emulated Cycles: 2908

8153: A9 EA       LDA #$EA
CPU State: PC:8155 A:EA X:77 Y:00 SP:FD Status:A5 (NV-B DIZC)
RAM State: $00:00 $01:00 $02:00
Timing: Current Emulated Cycle: 2910, Last IRQ Trigger Cycle: 0, Cycles Since Last IRQ: 2910
Emulated Cycles: 2910

8155: 9D 00 C1    STA $C100,X
CPU State: PC:8158 A:EA X:77 Y:00 SP:FD Status:A5 (NV-B DIZC)
RAM State: $00:00 $01:00 $02:00
Timing: Current Emulated Cycle: 2915, Last IRQ Trigger Cycle: 0, Cycles Since Last IRQ: 2915
Emulated Cycles: 2915

8158: E8          INX
CPU State: PC:8159 A:EA X:78 Y:00 SP:FD Status:25 (NV-B DIZC)
RAM State: $00:00 $01:00 $02:00
Timing: Current Emulated Cycle: 2917, Last IRQ Trigger Cycle: 0, Cycles Since Last IRQ: 2917
Emulated Cycles: 2917

8159: D0 F8       BNE $8153
CPU State: PC:8153 A:EA X:78 Y:00 SP:FD Status:25 (NV-B DIZC)
RAM State: $00:00 $01:00 $02:00
Timing: Current Emulated Cycle: 2920, Last IRQ Trigger Cycle: 0, Cycles Since Last IRQ: 2920
Emulated Cycles: 2920

8153: A9 EA       LDA #$EA
CPU State: PC:8155 A:EA X:78 Y:00 SP:FD Status:A5 (NV-B DIZC)
RAM State: $00:00 $01:00 $02:00
Timing: Current Emulated Cycle: 2922, Last IRQ Trigger Cycle: 0, Cycles Since Last IRQ: 2922
Emulated Cycles: 2922

8155: 9D 00 C1    STA $C100,X
CPU State: PC:8158 A:EA X:78 Y:00 SP:FD Status:A5 (NV-B DIZC)
RAM State: $00:00 $01:00 $02:00
Timing: Current Emulated Cycle: 2927, Last IRQ Trigger Cycle: 0, Cycles Since Last IRQ: 2927
Emulated Cycles: 2927

8158: E8          INX
CPU State: PC:8159 A:EA X:79 Y:00 SP:FD Status:25 (NV-B DIZC)
RAM State: $00:00 $01:00 $02:00
Timing: Current Emulated Cycle: 2929, Last IRQ Trigger Cycle: 0, Cycles Since Last IRQ: 2929
Emulated Cycles: 2929

8159: D0 F8       BNE $8153
CPU State: PC:8153 A:EA X:79 Y:00 SP:FD Status:25 (NV-B DIZC)
RAM State: $00:00 $01:00 $02:00
Timing: Current Emulated Cycle: 2932, Last IRQ Trigger Cycle: 0, Cycles Since Last IRQ: 2932
Emulated Cycles: 2932

8153: A9 EA       LDA #$EA
CPU State: PC:8155 A:EA X:79 Y:00 SP:FD Status:A5 (NV-B DIZC)
RAM State: $00:00 $01:00 $02:00
Timing: Current Emulated Cycle: 2934, Last IRQ Trigger Cycle: 0, Cycles Since Last IRQ: 2934
Emulated Cycles: 2934

8155: 9D 00 C1    STA $C100,X
CPU State: PC:8158 A:EA X:79 Y:00 SP:FD Status:A5 (NV-B DIZC)
RAM State: $00:00 $01:00 $02:00
Timing: Current Emulated Cycle: 2939, Last IRQ Trigger Cycle: 0, Cycles Since Last IRQ: 2939
Emulated Cycles: 2939

8158: E8          INX
CPU State: PC:8159 A:EA X:7A Y:00 SP:FD Status:25 (NV-B DIZC)
RAM State: $00:00 $01:00 $02:00
Timing: Current Emulated Cycle: 2941, Last IRQ Trigger Cycle: 0, Cycles Since Last IRQ: 2941
Emulated Cycles: 2941

8159: D0 F8       BNE $8153
CPU State: PC:8153 A:EA X:7A Y:00 SP:FD Status:25 (NV-B DIZC)
RAM State: $00:00 $01:00 $02:00
Timing: Current Emulated Cycle: 2944, Last IRQ Trigger Cycle: 0, Cycles Since Last IRQ: 2944
Emulated Cycles: 2944

8153: A9 EA       LDA #$EA
CPU State: PC:8155 A:EA X:7A Y:00 SP:FD Status:A5 (NV-B DIZC)
RAM State: $00:00 $01:00 $02:00
Timing: Current Emulated Cycle: 2946, Last IRQ Trigger Cycle: 0, Cycles Since Last IRQ: 2946
Emulated Cycles: 2946

8155: 9D 00 C1    STA $C100,X
CPU State: PC:8158 A:EA X:7A Y:00 SP:FD Status:A5 (NV-B DIZC)
RAM State: $00:00 $01:00 $02:00
Timing: Current Emulated Cycle: 2951, Last IRQ Trigger Cycle: 0, Cycles Since Last IRQ: 2951
Emulated Cycles: 2951

8158: E8          INX
CPU State: PC:8159 A:EA X:7B Y:00 SP:FD Status:25 (NV-B DIZC)
RAM State: $00:00 $01:00 $02:00
Timing: Current Emulated Cycle: 2953, Last IRQ Trigger Cycle: 0, Cycles Since Last IRQ: 2953
Emulated Cycles: 2953

8159: D0 F8       BNE $8153
CPU State: PC:8153 A:EA X:7B Y:00 SP:FD Status:25 (NV-B DIZC)
RAM State: $00:00 $01:00 $02:00
Timing: Current Emulated Cycle: 2956, Last IRQ Trigger Cycle: 0, Cycles Since Last IRQ: 2956
Emulated Cycles: 2956

8153: A9 EA       LDA #$EA
CPU State: PC:8155 A:EA X:7B Y:00 SP:FD Status:A5 (NV-B DIZC)
RAM State: $00:00 $01:00 $02:00
Timing: Current Emulated Cycle: 2958, Last IRQ Trigger Cycle: 0, Cycles Since Last IRQ: 2958
Emulated Cycles: 2958

8155: 9D 00 C1    STA $C100,X
CPU State: PC:8158 A:EA X:7B Y:00 SP:FD Status:A5 (NV-B DIZC)
RAM State: $00:00 $01:00 $02:00
Timing: Current Emulated Cycle: 2963, Last IRQ Trigger Cycle: 0, Cycles Since Last IRQ: 2963
Emulated Cycles: 2963

8158: E8          INX
CPU State: PC:8159 A:EA X:7C Y:00 SP:FD Status:25 (NV-B DIZC)
RAM State: $00:00 $01:00 $02:00
Timing: Current Emulated Cycle: 2965, Last IRQ Trigger Cycle: 0, Cycles Since Last IRQ: 2965
Emulated Cycles: 2965

8159: D0 F8       BNE $8153
CPU State: PC:8153 A:EA X:7C Y:00 SP:FD Status:25 (NV-B DIZC)
RAM State: $00:00 $01:00 $02:00
Timing: Current Emulated Cycle: 2968, Last IRQ Trigger Cycle: 0, Cycles Since Last IRQ: 2968
Emulated Cycles: 2968

8153: A9 EA       LDA #$EA
CPU State: PC:8155 A:EA X:7C Y:00 SP:FD Status:A5 (NV-B DIZC)
RAM State: $00:00 $01:00 $02:00
Timing: Current Emulated Cycle: 2970, Last IRQ Trigger Cycle: 0, Cycles Since Last IRQ: 2970
Emulated Cycles: 2970

8155: 9D 00 C1    STA $C100,X
CPU State: PC:8158 A:EA X:7C Y:00 SP:FD Status:A5 (NV-B DIZC)
RAM State: $00:00 $01:00 $02:00
Timing: Current Emulated Cycle: 2975, Last IRQ Trigger Cycle: 0, Cycles Since Last IRQ: 2975
Emulated Cycles: 2975

8158: E8          INX
CPU State: PC:8159 A:EA X:7D Y:00 SP:FD Status:25 (NV-B DIZC)
RAM State: $00:00 $01:00 $02:00
Timing: Current Emulated Cycle: 2977, Last IRQ Trigger Cycle: 0, Cycles Since Last IRQ: 2977
Emulated Cycles: 2977

8159: D0 F8       BNE $8153
CPU State: PC:8153 A:EA X:7D Y:00 SP:FD Status:25 (NV-B DIZC)
RAM State: $00:00 $01:00 $02:00
Timing: Current Emulated Cycle: 2980, Last IRQ Trigger Cycle: 0, Cycles Since Last IRQ: 2980
Emulated Cycles: 2980

8153: A9 EA       LDA #$EA
CPU State: PC:8155 A:EA X:7D Y:00 SP:FD Status:A5 (NV-B DIZC)
RAM State: $00:00 $01:00 $02:00
Timing: Current Emulated Cycle: 2982, Last IRQ Trigger Cycle: 0, Cycles Since Last IRQ: 2982
Emulated Cycles: 2982

8155: 9D 00 C1    STA $C100,X
CPU State: PC:8158 A:EA X:7D Y:00 SP:FD Status:A5 (NV-B DIZC)
RAM State: $00:00 $01:00 $02:00
Timing: Current Emulated Cycle: 2987, Last IRQ Trigger Cycle: 0, Cycles Since Last IRQ: 2987
Emulated Cycles: 2987

8158: E8          INX
CPU State: PC:8159 A:EA X:7E Y:00 SP:FD Status:25 (NV-B DIZC)
RAM State: $00:00 $01:00 $02:00
Timing: Current Emulated Cycle: 2989, Last IRQ Trigger Cycle: 0, Cycles Since Last IRQ: 2989
Emulated Cycles: 2989

8159: D0 F8       BNE $8153
CPU State: PC:8153 A:EA X:7E Y:00 SP:FD Status:25 (NV-B DIZC)
RAM State: $00:00 $01:00 $02:00
Timing: Current Emulated Cycle: 2992, Last IRQ Trigger Cycle: 0, Cycles Since Last IRQ: 2992
Emulated Cycles: 2992

8153: A9 EA       LDA #$EA
CPU State: PC:8155 A:EA X:7E Y:00 SP:FD Status:A5 (NV-B DIZC)
RAM State: $00:00 $01:00 $02:00
Timing: Current Emulated Cycle: 2994, Last IRQ Trigger Cycle: 0, Cycles Since Last IRQ: 2994
Emulated Cycles: 2994

8155: 9D 00 C1    STA $C100,X
CPU State: PC:8158 A:EA X:7E Y:00 SP:FD Status:A5 (NV-B DIZC)
RAM State: $00:00 $01:00 $02:00
Timing: Current Emulated Cycle: 2999, Last IRQ Trigger Cycle: 0, Cycles Since Last IRQ: 2999
Emulated Cycles: 2999

8158: E8          INX
CPU State: PC:8159 A:EA X:7F Y:00 SP:FD Status:25 (NV-B DIZC)
RAM State: $00:00 $01:00 $02:00
Timing: Current Emulated Cycle: 3001, Last IRQ Trigger Cycle: 0, Cycles Since Last IRQ: 3001
Emulated Cycles: 3001

8159: D0 F8       BNE $8153
CPU State: PC:8153 A:EA X:7F Y:00 SP:FD Status:25 (NV-B DIZC)
RAM State: $00:00 $01:00 $02:00
Timing: Current Emulated Cycle: 3004, Last IRQ Trigger Cycle: 0, Cycles Since Last IRQ: 3004
Emulated Cycles: 3004

8153: A9 EA       LDA #$EA
CPU State: PC:8155 A:EA X:7F Y:00 SP:FD Status:A5 (NV-B DIZC)
RAM State: $00:00 $01:00 $02:00
Timing: Current Emulated Cycle: 3006, Last IRQ Trigger Cycle: 0, Cycles Since Last IRQ: 3006
Emulated Cycles: 3006

8155: 9D 00 C1    STA $C100,X
CPU State: PC:8158 A:EA X:7F Y:00 SP:FD Status:A5 (NV-B DIZC)
RAM State: $00:00 $01:00 $02:00
Timing: Current Emulated Cycle: 3011, Last IRQ Trigger Cycle: 0, Cycles Since Last IRQ: 3011
Emulated Cycles: 3011

8158: E8          INX
CPU State: PC:8159 A:EA X:80 Y:00 SP:FD Status:A5 (NV-B DIZC)
RAM State: $00:00 $01:00 $02:00
Timing: Current Emulated Cycle: 3013, Last IRQ Trigger Cycle: 0, Cycles Since Last IRQ: 3013
Emulated Cycles: 3013

8159: D0 F8       BNE $8153
CPU State: PC:8153 A:EA X:80 Y:00 SP:FD Status:A5 (NV-B DIZC)
RAM State: $00:00 $01:00 $02:00
Timing: Current Emulated Cycle: 3016, Last IRQ Trigger Cycle: 0, Cycles Since Last IRQ: 3016
Emulated Cycles: 3016

8153: A9 EA       LDA #$EA
CPU State: PC:8155 A:EA X:80 Y:00 SP:FD Status:A5 (NV-B DIZC)
RAM State: $00:00 $01:00 $02:00
Timing: Current Emulated Cycle: 3018, Last IRQ Trigger Cycle: 0, Cycles Since Last IRQ: 3018
Emulated Cycles: 3018

8155: 9D 00 C1    STA $C100,X
CPU State: PC:8158 A:EA X:80 Y:00 SP:FD Status:A5 (NV-B DIZC)
RAM State: $00:00 $01:00 $02:00
Timing: Current Emulated Cycle: 3023, Last IRQ Trigger Cycle: 0, Cycles Since Last IRQ: 3023
Emulated Cycles: 3023

8158: E8          INX
CPU State: PC:8159 A:EA X:81 Y:00 SP:FD Status:A5 (NV-B DIZC)
RAM State: $00:00 $01:00 $02:00
Timing: Current Emulated Cycle: 3025, Last IRQ Trigger Cycle: 0, Cycles Since Last IRQ: 3025
Emulated Cycles: 3025

8159: D0 F8       BNE $8153
CPU State: PC:8153 A:EA X:81 Y:00 SP:FD Status:A5 (NV-B DIZC)
RAM State: $00:00 $01:00 $02:00
Timing: Current Emulated Cycle: 3028, Last IRQ Trigger Cycle: 0, Cycles Since Last IRQ: 3028
Emulated Cycles: 3028

8153: A9 EA       LDA #$EA
CPU State: PC:8155 A:EA X:81 Y:00 SP:FD Status:A5 (NV-B DIZC)
RAM State: $00:00 $01:00 $02:00
Timing: Current Emulated Cycle: 3030, Last IRQ Trigger Cycle: 0, Cycles Since Last IRQ: 3030
Emulated Cycles: 3030

8155: 9D 00 C1    STA $C100,X
CPU State: PC:8158 A:EA X:81 Y:00 SP:FD Status:A5 (NV-B DIZC)
RAM State: $00:00 $01:00 $02:00
Timing: Current Emulated Cycle: 3035, Last IRQ Trigger Cycle: 0, Cycles Since Last IRQ: 3035
Emulated Cycles: 3035

8158: E8          INX
CPU State: PC:8159 A:EA X:82 Y:00 SP:FD Status:A5 (NV-B DIZC)
RAM State: $00:00 $01:00 $02:00
Timing: Current Emulated Cycle: 3037, Last IRQ Trigger Cycle: 0, Cycles Since Last IRQ: 3037
Emulated Cycles: 3037

8159: D0 F8       BNE $8153
CPU State: PC:8153 A:EA X:82 Y:00 SP:FD Status:A5 (NV-B DIZC)
RAM State: $00:00 $01:00 $02:00
Timing: Current Emulated Cycle: 3040, Last IRQ Trigger Cycle: 0, Cycles Since Last IRQ: 3040
Emulated Cycles: 3040

8153: A9 EA       LDA #$EA
CPU State: PC:8155 A:EA X:82 Y:00 SP:FD Status:A5 (NV-B DIZC)
RAM State: $00:00 $01:00 $02:00
Timing: Current Emulated Cycle: 3042, Last IRQ Trigger Cycle: 0, Cycles Since Last IRQ: 3042
Emulated Cycles: 3042

8155: 9D 00 C1    STA $C100,X
CPU State: PC:8158 A:EA X:82 Y:00 SP:FD Status:A5 (NV-B DIZC)
RAM State: $00:00 $01:00 $02:00
Timing: Current Emulated Cycle: 3047, Last IRQ Trigger Cycle: 0, Cycles Since Last IRQ: 3047
Emulated Cycles: 3047

8158: E8          INX
CPU State: PC:8159 A:EA X:83 Y:00 SP:FD Status:A5 (NV-B DIZC)
RAM State: $00:00 $01:00 $02:00
Timing: Current Emulated Cycle: 3049, Last IRQ Trigger Cycle: 0, Cycles Since Last IRQ: 3049
Emulated Cycles: 3049

8159: D0 F8       BNE $8153
CPU State: PC:8153 A:EA X:83 Y:00 SP:FD Status:A5 (NV-B DIZC)
RAM State: $00:00 $01:00 $02:00
Timing: Current Emulated Cycle: 3052, Last IRQ Trigger Cycle: 0, Cycles Since Last IRQ: 3052
Emulated Cycles: 3052

8153: A9 EA       LDA #$EA
CPU State: PC:8155 A:EA X:83 Y:00 SP:FD Status:A5 (NV-B DIZC)
RAM State: $00:00 $01:00 $02:00
Timing: Current Emulated Cycle: 3054, Last IRQ Trigger Cycle: 0, Cycles Since Last IRQ: 3054
Emulated Cycles: 3054

8155: 9D 00 C1    STA $C100,X
CPU State: PC:8158 A:EA X:83 Y:00 SP:FD Status:A5 (NV-B DIZC)
RAM State: $00:00 $01:00 $02:00
Timing: Current Emulated Cycle: 3059, Last IRQ Trigger Cycle: 0, Cycles Since Last IRQ: 3059
Emulated Cycles: 3059

8158: E8          INX
CPU State: PC:8159 A:EA X:84 Y:00 SP:FD Status:A5 (NV-B DIZC)
RAM State: $00:00 $01:00 $02:00
Timing: Current Emulated Cycle: 3061, Last IRQ Trigger Cycle: 0, Cycles Since Last IRQ: 3061
Emulated Cycles: 3061

8159: D0 F8       BNE $8153
CPU State: PC:8153 A:EA X:84 Y:00 SP:FD Status:A5 (NV-B DIZC)
RAM State: $00:00 $01:00 $02:00
Timing: Current Emulated Cycle: 3064, Last IRQ Trigger Cycle: 0, Cycles Since Last IRQ: 3064
Emulated Cycles: 3064

8153: A9 EA       LDA #$EA
CPU State: PC:8155 A:EA X:84 Y:00 SP:FD Status:A5 (NV-B DIZC)
RAM State: $00:00 $01:00 $02:00
Timing: Current Emulated Cycle: 3066, Last IRQ Trigger Cycle: 0, Cycles Since Last IRQ: 3066
Emulated Cycles: 3066

8155: 9D 00 C1    STA $C100,X
CPU State: PC:8158 A:EA X:84 Y:00 SP:FD Status:A5 (NV-B DIZC)
RAM State: $00:00 $01:00 $02:00
Timing: Current Emulated Cycle: 3071, Last IRQ Trigger Cycle: 0, Cycles Since Last IRQ: 3071
Emulated Cycles: 3071

8158: E8          INX
CPU State: PC:8159 A:EA X:85 Y:00 SP:FD Status:A5 (NV-B DIZC)
RAM State: $00:00 $01:00 $02:00
Timing: Current Emulated Cycle: 3073, Last IRQ Trigger Cycle: 0, Cycles Since Last IRQ: 3073
Emulated Cycles: 3073

8159: D0 F8       BNE $8153
CPU State: PC:8153 A:EA X:85 Y:00 SP:FD Status:A5 (NV-B DIZC)
RAM State: $00:00 $01:00 $02:00
Timing: Current Emulated Cycle: 3076, Last IRQ Trigger Cycle: 0, Cycles Since Last IRQ: 3076
Emulated Cycles: 3076

8153: A9 EA       LDA #$EA
CPU State: PC:8155 A:EA X:85 Y:00 SP:FD Status:A5 (NV-B DIZC)
RAM State: $00:00 $01:00 $02:00
Timing: Current Emulated Cycle: 3078, Last IRQ Trigger Cycle: 0, Cycles Since Last IRQ: 3078
Emulated Cycles: 3078

8155: 9D 00 C1    STA $C100,X
CPU State: PC:8158 A:EA X:85 Y:00 SP:FD Status:A5 (NV-B DIZC)
RAM State: $00:00 $01:00 $02:00
Timing: Current Emulated Cycle: 3083, Last IRQ Trigger Cycle: 0, Cycles Since Last IRQ: 3083
Emulated Cycles: 3083

8158: E8          INX
CPU State: PC:8159 A:EA X:86 Y:00 SP:FD Status:A5 (NV-B DIZC)
RAM State: $00:00 $01:00 $02:00
Timing: Current Emulated Cycle: 3085, Last IRQ Trigger Cycle: 0, Cycles Since Last IRQ: 3085
Emulated Cycles: 3085

8159: D0 F8       BNE $8153
CPU State: PC:8153 A:EA X:86 Y:00 SP:FD Status:A5 (NV-B DIZC)
RAM State: $00:00 $01:00 $02:00
Timing: Current Emulated Cycle: 3088, Last IRQ Trigger Cycle: 0, Cycles Since Last IRQ: 3088
Emulated Cycles: 3088

8153: A9 EA       LDA #$EA
CPU State: PC:8155 A:EA X:86 Y:00 SP:FD Status:A5 (NV-B DIZC)
RAM State: $00:00 $01:00 $02:00
Timing: Current Emulated Cycle: 3090, Last IRQ Trigger Cycle: 0, Cycles Since Last IRQ: 3090
Emulated Cycles: 3090

8155: 9D 00 C1    STA $C100,X
CPU State: PC:8158 A:EA X:86 Y:00 SP:FD Status:A5 (NV-B DIZC)
RAM State: $00:00 $01:00 $02:00
Timing: Current Emulated Cycle: 3095, Last IRQ Trigger Cycle: 0, Cycles Since Last IRQ: 3095
Emulated Cycles: 3095

8158: E8          INX
CPU State: PC:8159 A:EA X:87 Y:00 SP:FD Status:A5 (NV-B DIZC)
RAM State: $00:00 $01:00 $02:00
Timing: Current Emulated Cycle: 3097, Last IRQ Trigger Cycle: 0, Cycles Since Last IRQ: 3097
Emulated Cycles: 3097

8159: D0 F8       BNE $8153
CPU State: PC:8153 A:EA X:87 Y:00 SP:FD Status:A5 (NV-B DIZC)
RAM State: $00:00 $01:00 $02:00
Timing: Current Emulated Cycle: 3100, Last IRQ Trigger Cycle: 0, Cycles Since Last IRQ: 3100
Emulated Cycles: 3100

8153: A9 EA       LDA #$EA
CPU State: PC:8155 A:EA X:87 Y:00 SP:FD Status:A5 (NV-B DIZC)
RAM State: $00:00 $01:00 $02:00
Timing: Current Emulated Cycle: 3102, Last IRQ Trigger Cycle: 0, Cycles Since Last IRQ: 3102
Emulated Cycles: 3102

8155: 9D 00 C1    STA $C100,X
CPU State: PC:8158 A:EA X:87 Y:00 SP:FD Status:A5 (NV-B DIZC)
RAM State: $00:00 $01:00 $02:00
Timing: Current Emulated Cycle: 3107, Last IRQ Trigger Cycle: 0, Cycles Since Last IRQ: 3107
Emulated Cycles: 3107

8158: E8          INX
CPU State: PC:8159 A:EA X:88 Y:00 SP:FD Status:A5 (NV-B DIZC)
RAM State: $00:00 $01:00 $02:00
Timing: Current Emulated Cycle: 3109, Last IRQ Trigger Cycle: 0, Cycles Since Last IRQ: 3109
Emulated Cycles: 3109

8159: D0 F8       BNE $8153
CPU State: PC:8153 A:EA X:88 Y:00 SP:FD Status:A5 (NV-B DIZC)
RAM State: $00:00 $01:00 $02:00
Timing: Current Emulated Cycle: 3112, Last IRQ Trigger Cycle: 0, Cycles Since Last IRQ: 3112
Emulated Cycles: 3112

8153: A9 EA       LDA #$EA
CPU State: PC:8155 A:EA X:88 Y:00 SP:FD Status:A5 (NV-B DIZC)
RAM State: $00:00 $01:00 $02:00
Timing: Current Emulated Cycle: 3114, Last IRQ Trigger Cycle: 0, Cycles Since Last IRQ: 3114
Emulated Cycles: 3114

8155: 9D 00 C1    STA $C100,X
CPU State: PC:8158 A:EA X:88 Y:00 SP:FD Status:A5 (NV-B DIZC)
RAM State: $00:00 $01:00 $02:00
Timing: Current Emulated Cycle: 3119, Last IRQ Trigger Cycle: 0, Cycles Since Last IRQ: 3119
Emulated Cycles: 3119

8158: E8          INX
CPU State: PC:8159 A:EA X:89 Y:00 SP:FD Status:A5 (NV-B DIZC)
RAM State: $00:00 $01:00 $02:00
Timing: Current Emulated Cycle: 3121, Last IRQ Trigger Cycle: 0, Cycles Since Last IRQ: 3121
Emulated Cycles: 3121

8159: D0 F8       BNE $8153
CPU State: PC:8153 A:EA X:89 Y:00 SP:FD Status:A5 (NV-B DIZC)
RAM State: $00:00 $01:00 $02:00
Timing: Current Emulated Cycle: 3124, Last IRQ Trigger Cycle: 0, Cycles Since Last IRQ: 3124
Emulated Cycles: 3124

8153: A9 EA       LDA #$EA
CPU State: PC:8155 A:EA X:89 Y:00 SP:FD Status:A5 (NV-B DIZC)
RAM State: $00:00 $01:00 $02:00
Timing: Current Emulated Cycle: 3126, Last IRQ Trigger Cycle: 0, Cycles Since Last IRQ: 3126
Emulated Cycles: 3126

8155: 9D 00 C1    STA $C100,X
CPU State: PC:8158 A:EA X:89 Y:00 SP:FD Status:A5 (NV-B DIZC)
RAM State: $00:00 $01:00 $02:00
Timing: Current Emulated Cycle: 3131, Last IRQ Trigger Cycle: 0, Cycles Since Last IRQ: 3131
Emulated Cycles: 3131

8158: E8          INX
CPU State: PC:8159 A:EA X:8A Y:00 SP:FD Status:A5 (NV-B DIZC)
RAM State: $00:00 $01:00 $02:00
Timing: Current Emulated Cycle: 3133, Last IRQ Trigger Cycle: 0, Cycles Since Last IRQ: 3133
Emulated Cycles: 3133

8159: D0 F8       BNE $8153
CPU State: PC:8153 A:EA X:8A Y:00 SP:FD Status:A5 (NV-B DIZC)
RAM State: $00:00 $01:00 $02:00
Timing: Current Emulated Cycle: 3136, Last IRQ Trigger Cycle: 0, Cycles Since Last IRQ: 3136
Emulated Cycles: 3136

8153: A9 EA       LDA #$EA
CPU State: PC:8155 A:EA X:8A Y:00 SP:FD Status:A5 (NV-B DIZC)
RAM State: $00:00 $01:00 $02:00
Timing: Current Emulated Cycle: 3138, Last IRQ Trigger Cycle: 0, Cycles Since Last IRQ: 3138
Emulated Cycles: 3138

8155: 9D 00 C1    STA $C100,X
CPU State: PC:8158 A:EA X:8A Y:00 SP:FD Status:A5 (NV-B DIZC)
RAM State: $00:00 $01:00 $02:00
Timing: Current Emulated Cycle: 3143, Last IRQ Trigger Cycle: 0, Cycles Since Last IRQ: 3143
Emulated Cycles: 3143

8158: E8          INX
CPU State: PC:8159 A:EA X:8B Y:00 SP:FD Status:A5 (NV-B DIZC)
RAM State: $00:00 $01:00 $02:00
Timing: Current Emulated Cycle: 3145, Last IRQ Trigger Cycle: 0, Cycles Since Last IRQ: 3145
Emulated Cycles: 3145

8159: D0 F8       BNE $8153
CPU State: PC:8153 A:EA X:8B Y:00 SP:FD Status:A5 (NV-B DIZC)
RAM State: $00:00 $01:00 $02:00
Timing: Current Emulated Cycle: 3148, Last IRQ Trigger Cycle: 0, Cycles Since Last IRQ: 3148
Emulated Cycles: 3148

8153: A9 EA       LDA #$EA
CPU State: PC:8155 A:EA X:8B Y:00 SP:FD Status:A5 (NV-B DIZC)
RAM State: $00:00 $01:00 $02:00
Timing: Current Emulated Cycle: 3150, Last IRQ Trigger Cycle: 0, Cycles Since Last IRQ: 3150
Emulated Cycles: 3150

8155: 9D 00 C1    STA $C100,X
CPU State: PC:8158 A:EA X:8B Y:00 SP:FD Status:A5 (NV-B DIZC)
RAM State: $00:00 $01:00 $02:00
Timing: Current Emulated Cycle: 3155, Last IRQ Trigger Cycle: 0, Cycles Since Last IRQ: 3155
Emulated Cycles: 3155

8158: E8          INX
CPU State: PC:8159 A:EA X:8C Y:00 SP:FD Status:A5 (NV-B DIZC)
RAM State: $00:00 $01:00 $02:00
Timing: Current Emulated Cycle: 3157, Last IRQ Trigger Cycle: 0, Cycles Since Last IRQ: 3157
Emulated Cycles: 3157

8159: D0 F8       BNE $8153
CPU State: PC:8153 A:EA X:8C Y:00 SP:FD Status:A5 (NV-B DIZC)
RAM State: $00:00 $01:00 $02:00
Timing: Current Emulated Cycle: 3160, Last IRQ Trigger Cycle: 0, Cycles Since Last IRQ: 3160
Emulated Cycles: 3160

8153: A9 EA       LDA #$EA
CPU State: PC:8155 A:EA X:8C Y:00 SP:FD Status:A5 (NV-B DIZC)
RAM State: $00:00 $01:00 $02:00
Timing: Current Emulated Cycle: 3162, Last IRQ Trigger Cycle: 0, Cycles Since Last IRQ: 3162
Emulated Cycles: 3162

8155: 9D 00 C1    STA $C100,X
CPU State: PC:8158 A:EA X:8C Y:00 SP:FD Status:A5 (NV-B DIZC)
RAM State: $00:00 $01:00 $02:00
Timing: Current Emulated Cycle: 3167, Last IRQ Trigger Cycle: 0, Cycles Since Last IRQ: 3167
Emulated Cycles: 3167

8158: E8          INX
CPU State: PC:8159 A:EA X:8D Y:00 SP:FD Status:A5 (NV-B DIZC)
RAM State: $00:00 $01:00 $02:00
Timing: Current Emulated Cycle: 3169, Last IRQ Trigger Cycle: 0, Cycles Since Last IRQ: 3169
Emulated Cycles: 3169

8159: D0 F8       BNE $8153
CPU State: PC:8153 A:EA X:8D Y:00 SP:FD Status:A5 (NV-B DIZC)
RAM State: $00:00 $01:00 $02:00
Timing: Current Emulated Cycle: 3172, Last IRQ Trigger Cycle: 0, Cycles Since Last IRQ: 3172
Emulated Cycles: 3172

8153: A9 EA       LDA #$EA
CPU State: PC:8155 A:EA X:8D Y:00 SP:FD Status:A5 (NV-B DIZC)
RAM State: $00:00 $01:00 $02:00
Timing: Current Emulated Cycle: 3174, Last IRQ Trigger Cycle: 0, Cycles Since Last IRQ: 3174
Emulated Cycles: 3174

8155: 9D 00 C1    STA $C100,X
CPU State: PC:8158 A:EA X:8D Y:00 SP:FD Status:A5 (NV-B DIZC)
RAM State: $00:00 $01:00 $02:00
Timing: Current Emulated Cycle: 3179, Last IRQ Trigger Cycle: 0, Cycles Since Last IRQ: 3179
Emulated Cycles: 3179

8158: E8          INX
CPU State: PC:8159 A:EA X:8E Y:00 SP:FD Status:A5 (NV-B DIZC)
RAM State: $00:00 $01:00 $02:00
Timing: Current Emulated Cycle: 3181, Last IRQ Trigger Cycle: 0, Cycles Since Last IRQ: 3181
Emulated Cycles: 3181

8159: D0 F8       BNE $8153
CPU State: PC:8153 A:EA X:8E Y:00 SP:FD Status:A5 (NV-B DIZC)
RAM State: $00:00 $01:00 $02:00
Timing: Current Emulated Cycle: 3184, Last IRQ Trigger Cycle: 0, Cycles Since Last IRQ: 3184
Emulated Cycles: 3184

8153: A9 EA       LDA #$EA
CPU State: PC:8155 A:EA X:8E Y:00 SP:FD Status:A5 (NV-B DIZC)
RAM State: $00:00 $01:00 $02:00
Timing: Current Emulated Cycle: 3186, Last IRQ Trigger Cycle: 0, Cycles Since Last IRQ: 3186
Emulated Cycles: 3186

8155: 9D 00 C1    STA $C100,X
CPU State: PC:8158 A:EA X:8E Y:00 SP:FD Status:A5 (NV-B DIZC)
RAM State: $00:00 $01:00 $02:00
Timing: Current Emulated Cycle: 3191, Last IRQ Trigger Cycle: 0, Cycles Since Last IRQ: 3191
Emulated Cycles: 3191

8158: E8          INX
CPU State: PC:8159 A:EA X:8F Y:00 SP:FD Status:A5 (NV-B DIZC)
RAM State: $00:00 $01:00 $02:00
Timing: Current Emulated Cycle: 3193, Last IRQ Trigger Cycle: 0, Cycles Since Last IRQ: 3193
Emulated Cycles: 3193

8159: D0 F8       BNE $8153
CPU State: PC:8153 A:EA X:8F Y:00 SP:FD Status:A5 (NV-B DIZC)
RAM State: $00:00 $01:00 $02:00
Timing: Current Emulated Cycle: 3196, Last IRQ Trigger Cycle: 0, Cycles Since Last IRQ: 3196
Emulated Cycles: 3196

8153: A9 EA       LDA #$EA
CPU State: PC:8155 A:EA X:8F Y:00 SP:FD Status:A5 (NV-B DIZC)
RAM State: $00:00 $01:00 $02:00
Timing: Current Emulated Cycle: 3198, Last IRQ Trigger Cycle: 0, Cycles Since Last IRQ: 3198
Emulated Cycles: 3198

8155: 9D 00 C1    STA $C100,X
CPU State: PC:8158 A:EA X:8F Y:00 SP:FD Status:A5 (NV-B DIZC)
RAM State: $00:00 $01:00 $02:00
Timing: Current Emulated Cycle: 3203, Last IRQ Trigger Cycle: 0, Cycles Since Last IRQ: 3203
Emulated Cycles: 3203

8158: E8          INX
CPU State: PC:8159 A:EA X:90 Y:00 SP:FD Status:A5 (NV-B DIZC)
RAM State: $00:00 $01:00 $02:00
Timing: Current Emulated Cycle: 3205, Last IRQ Trigger Cycle: 0, Cycles Since Last IRQ: 3205
Emulated Cycles: 3205

8159: D0 F8       BNE $8153
CPU State: PC:8153 A:EA X:90 Y:00 SP:FD Status:A5 (NV-B DIZC)
RAM State: $00:00 $01:00 $02:00
Timing: Current Emulated Cycle: 3208, Last IRQ Trigger Cycle: 0, Cycles Since Last IRQ: 3208
Emulated Cycles: 3208

8153: A9 EA       LDA #$EA
CPU State: PC:8155 A:EA X:90 Y:00 SP:FD Status:A5 (NV-B DIZC)
RAM State: $00:00 $01:00 $02:00
Timing: Current Emulated Cycle: 3210, Last IRQ Trigger Cycle: 0, Cycles Since Last IRQ: 3210
Emulated Cycles: 3210

8155: 9D 00 C1    STA $C100,X
CPU State: PC:8158 A:EA X:90 Y:00 SP:FD Status:A5 (NV-B DIZC)
RAM State: $00:00 $01:00 $02:00
Timing: Current Emulated Cycle: 3215, Last IRQ Trigger Cycle: 0, Cycles Since Last IRQ: 3215
Emulated Cycles: 3215

8158: E8          INX
CPU State: PC:8159 A:EA X:91 Y:00 SP:FD Status:A5 (NV-B DIZC)
RAM State: $00:00 $01:00 $02:00
Timing: Current Emulated Cycle: 3217, Last IRQ Trigger Cycle: 0, Cycles Since Last IRQ: 3217
Emulated Cycles: 3217

8159: D0 F8       BNE $8153
CPU State: PC:8153 A:EA X:91 Y:00 SP:FD Status:A5 (NV-B DIZC)
RAM State: $00:00 $01:00 $02:00
Timing: Current Emulated Cycle: 3220, Last IRQ Trigger Cycle: 0, Cycles Since Last IRQ: 3220
Emulated Cycles: 3220

8153: A9 EA       LDA #$EA
CPU State: PC:8155 A:EA X:91 Y:00 SP:FD Status:A5 (NV-B DIZC)
RAM State: $00:00 $01:00 $02:00
Timing: Current Emulated Cycle: 3222, Last IRQ Trigger Cycle: 0, Cycles Since Last IRQ: 3222
Emulated Cycles: 3222

8155: 9D 00 C1    STA $C100,X
CPU State: PC:8158 A:EA X:91 Y:00 SP:FD Status:A5 (NV-B DIZC)
RAM State: $00:00 $01:00 $02:00
Timing: Current Emulated Cycle: 3227, Last IRQ Trigger Cycle: 0, Cycles Since Last IRQ: 3227
Emulated Cycles: 3227

8158: E8          INX
CPU State: PC:8159 A:EA X:92 Y:00 SP:FD Status:A5 (NV-B DIZC)
RAM State: $00:00 $01:00 $02:00
Timing: Current Emulated Cycle: 3229, Last IRQ Trigger Cycle: 0, Cycles Since Last IRQ: 3229
Emulated Cycles: 3229

8159: D0 F8       BNE $8153
CPU State: PC:8153 A:EA X:92 Y:00 SP:FD Status:A5 (NV-B DIZC)
RAM State: $00:00 $01:00 $02:00
Timing: Current Emulated Cycle: 3232, Last IRQ Trigger Cycle: 0, Cycles Since Last IRQ: 3232
Emulated Cycles: 3232

8153: A9 EA       LDA #$EA
CPU State: PC:8155 A:EA X:92 Y:00 SP:FD Status:A5 (NV-B DIZC)
RAM State: $00:00 $01:00 $02:00
Timing: Current Emulated Cycle: 3234, Last IRQ Trigger Cycle: 0, Cycles Since Last IRQ: 3234
Emulated Cycles: 3234

8155: 9D 00 C1    STA $C100,X
CPU State: PC:8158 A:EA X:92 Y:00 SP:FD Status:A5 (NV-B DIZC)
RAM State: $00:00 $01:00 $02:00
Timing: Current Emulated Cycle: 3239, Last IRQ Trigger Cycle: 0, Cycles Since Last IRQ: 3239
Emulated Cycles: 3239

8158: E8          INX
CPU State: PC:8159 A:EA X:93 Y:00 SP:FD Status:A5 (NV-B DIZC)
RAM State: $00:00 $01:00 $02:00
Timing: Current Emulated Cycle: 3241, Last IRQ Trigger Cycle: 0, Cycles Since Last IRQ: 3241
Emulated Cycles: 3241

8159: D0 F8       BNE $8153
CPU State: PC:8153 A:EA X:93 Y:00 SP:FD Status:A5 (NV-B DIZC)
RAM State: $00:00 $01:00 $02:00
Timing: Current Emulated Cycle: 3244, Last IRQ Trigger Cycle: 0, Cycles Since Last IRQ: 3244
Emulated Cycles: 3244

8153: A9 EA       LDA #$EA
CPU State: PC:8155 A:EA X:93 Y:00 SP:FD Status:A5 (NV-B DIZC)
RAM State: $00:00 $01:00 $02:00
Timing: Current Emulated Cycle: 3246, Last IRQ Trigger Cycle: 0, Cycles Since Last IRQ: 3246
Emulated Cycles: 3246

8155: 9D 00 C1    STA $C100,X
CPU State: PC:8158 A:EA X:93 Y:00 SP:FD Status:A5 (NV-B DIZC)
RAM State: $00:00 $01:00 $02:00
Timing: Current Emulated Cycle: 3251, Last IRQ Trigger Cycle: 0, Cycles Since Last IRQ: 3251
Emulated Cycles: 3251

8158: E8          INX
CPU State: PC:8159 A:EA X:94 Y:00 SP:FD Status:A5 (NV-B DIZC)
RAM State: $00:00 $01:00 $02:00
Timing: Current Emulated Cycle: 3253, Last IRQ Trigger Cycle: 0, Cycles Since Last IRQ: 3253
Emulated Cycles: 3253

8159: D0 F8       BNE $8153
CPU State: PC:8153 A:EA X:94 Y:00 SP:FD Status:A5 (NV-B DIZC)
RAM State: $00:00 $01:00 $02:00
Timing: Current Emulated Cycle: 3256, Last IRQ Trigger Cycle: 0, Cycles Since Last IRQ: 3256
Emulated Cycles: 3256

8153: A9 EA       LDA #$EA
CPU State: PC:8155 A:EA X:94 Y:00 SP:FD Status:A5 (NV-B DIZC)
RAM State: $00:00 $01:00 $02:00
Timing: Current Emulated Cycle: 3258, Last IRQ Trigger Cycle: 0, Cycles Since Last IRQ: 3258
Emulated Cycles: 3258

8155: 9D 00 C1    STA $C100,X
CPU State: PC:8158 A:EA X:94 Y:00 SP:FD Status:A5 (NV-B DIZC)
RAM State: $00:00 $01:00 $02:00
Timing: Current Emulated Cycle: 3263, Last IRQ Trigger Cycle: 0, Cycles Since Last IRQ: 3263
Emulated Cycles: 3263

8158: E8          INX
CPU State: PC:8159 A:EA X:95 Y:00 SP:FD Status:A5 (NV-B DIZC)
RAM State: $00:00 $01:00 $02:00
Timing: Current Emulated Cycle: 3265, Last IRQ Trigger Cycle: 0, Cycles Since Last IRQ: 3265
Emulated Cycles: 3265

8159: D0 F8       BNE $8153
CPU State: PC:8153 A:EA X:95 Y:00 SP:FD Status:A5 (NV-B DIZC)
RAM State: $00:00 $01:00 $02:00
Timing: Current Emulated Cycle: 3268, Last IRQ Trigger Cycle: 0, Cycles Since Last IRQ: 3268
Emulated Cycles: 3268

8153: A9 EA       LDA #$EA
CPU State: PC:8155 A:EA X:95 Y:00 SP:FD Status:A5 (NV-B DIZC)
RAM State: $00:00 $01:00 $02:00
Timing: Current Emulated Cycle: 3270, Last IRQ Trigger Cycle: 0, Cycles Since Last IRQ: 3270
Emulated Cycles: 3270

8155: 9D 00 C1    STA $C100,X
CPU State: PC:8158 A:EA X:95 Y:00 SP:FD Status:A5 (NV-B DIZC)
RAM State: $00:00 $01:00 $02:00
Timing: Current Emulated Cycle: 3275, Last IRQ Trigger Cycle: 0, Cycles Since Last IRQ: 3275
Emulated Cycles: 3275

8158: E8          INX
CPU State: PC:8159 A:EA X:96 Y:00 SP:FD Status:A5 (NV-B DIZC)
RAM State: $00:00 $01:00 $02:00
Timing: Current Emulated Cycle: 3277, Last IRQ Trigger Cycle: 0, Cycles Since Last IRQ: 3277
Emulated Cycles: 3277

8159: D0 F8       BNE $8153
CPU State: PC:8153 A:EA X:96 Y:00 SP:FD Status:A5 (NV-B DIZC)
RAM State: $00:00 $01:00 $02:00
Timing: Current Emulated Cycle: 3280, Last IRQ Trigger Cycle: 0, Cycles Since Last IRQ: 3280
Emulated Cycles: 3280

8153: A9 EA       LDA #$EA
CPU State: PC:8155 A:EA X:96 Y:00 SP:FD Status:A5 (NV-B DIZC)
RAM State: $00:00 $01:00 $02:00
Timing: Current Emulated Cycle: 3282, Last IRQ Trigger Cycle: 0, Cycles Since Last IRQ: 3282
Emulated Cycles: 3282

8155: 9D 00 C1    STA $C100,X
CPU State: PC:8158 A:EA X:96 Y:00 SP:FD Status:A5 (NV-B DIZC)
RAM State: $00:00 $01:00 $02:00
Timing: Current Emulated Cycle: 3287, Last IRQ Trigger Cycle: 0, Cycles Since Last IRQ: 3287
Emulated Cycles: 3287

8158: E8          INX
CPU State: PC:8159 A:EA X:97 Y:00 SP:FD Status:A5 (NV-B DIZC)
RAM State: $00:00 $01:00 $02:00
Timing: Current Emulated Cycle: 3289, Last IRQ Trigger Cycle: 0, Cycles Since Last IRQ: 3289
Emulated Cycles: 3289

8159: D0 F8       BNE $8153
CPU State: PC:8153 A:EA X:97 Y:00 SP:FD Status:A5 (NV-B DIZC)
RAM State: $00:00 $01:00 $02:00
Timing: Current Emulated Cycle: 3292, Last IRQ Trigger Cycle: 0, Cycles Since Last IRQ: 3292
Emulated Cycles: 3292

8153: A9 EA       LDA #$EA
CPU State: PC:8155 A:EA X:97 Y:00 SP:FD Status:A5 (NV-B DIZC)
RAM State: $00:00 $01:00 $02:00
Timing: Current Emulated Cycle: 3294, Last IRQ Trigger Cycle: 0, Cycles Since Last IRQ: 3294
Emulated Cycles: 3294

8155: 9D 00 C1    STA $C100,X
CPU State: PC:8158 A:EA X:97 Y:00 SP:FD Status:A5 (NV-B DIZC)
RAM State: $00:00 $01:00 $02:00
Timing: Current Emulated Cycle: 3299, Last IRQ Trigger Cycle: 0, Cycles Since Last IRQ: 3299
Emulated Cycles: 3299

8158: E8          INX
CPU State: PC:8159 A:EA X:98 Y:00 SP:FD Status:A5 (NV-B DIZC)
RAM State: $00:00 $01:00 $02:00
Timing: Current Emulated Cycle: 3301, Last IRQ Trigger Cycle: 0, Cycles Since Last IRQ: 3301
Emulated Cycles: 3301

8159: D0 F8       BNE $8153
CPU State: PC:8153 A:EA X:98 Y:00 SP:FD Status:A5 (NV-B DIZC)
RAM State: $00:00 $01:00 $02:00
Timing: Current Emulated Cycle: 3304, Last IRQ Trigger Cycle: 0, Cycles Since Last IRQ: 3304
Emulated Cycles: 3304

8153: A9 EA       LDA #$EA
CPU State: PC:8155 A:EA X:98 Y:00 SP:FD Status:A5 (NV-B DIZC)
RAM State: $00:00 $01:00 $02:00
Timing: Current Emulated Cycle: 3306, Last IRQ Trigger Cycle: 0, Cycles Since Last IRQ: 3306
Emulated Cycles: 3306

8155: 9D 00 C1    STA $C100,X
CPU State: PC:8158 A:EA X:98 Y:00 SP:FD Status:A5 (NV-B DIZC)
RAM State: $00:00 $01:00 $02:00
Timing: Current Emulated Cycle: 3311, Last IRQ Trigger Cycle: 0, Cycles Since Last IRQ: 3311
Emulated Cycles: 3311

8158: E8          INX
CPU State: PC:8159 A:EA X:99 Y:00 SP:FD Status:A5 (NV-B DIZC)
RAM State: $00:00 $01:00 $02:00
Timing: Current Emulated Cycle: 3313, Last IRQ Trigger Cycle: 0, Cycles Since Last IRQ: 3313
Emulated Cycles: 3313

8159: D0 F8       BNE $8153
CPU State: PC:8153 A:EA X:99 Y:00 SP:FD Status:A5 (NV-B DIZC)
RAM State: $00:00 $01:00 $02:00
Timing: Current Emulated Cycle: 3316, Last IRQ Trigger Cycle: 0, Cycles Since Last IRQ: 3316
Emulated Cycles: 3316

8153: A9 EA       LDA #$EA
CPU State: PC:8155 A:EA X:99 Y:00 SP:FD Status:A5 (NV-B DIZC)
RAM State: $00:00 $01:00 $02:00
Timing: Current Emulated Cycle: 3318, Last IRQ Trigger Cycle: 0, Cycles Since Last IRQ: 3318
Emulated Cycles: 3318

8155: 9D 00 C1    STA $C100,X
CPU State: PC:8158 A:EA X:99 Y:00 SP:FD Status:A5 (NV-B DIZC)
RAM State: $00:00 $01:00 $02:00
Timing: Current Emulated Cycle: 3323, Last IRQ Trigger Cycle: 0, Cycles Since Last IRQ: 3323
Emulated Cycles: 3323

8158: E8          INX
CPU State: PC:8159 A:EA X:9A Y:00 SP:FD Status:A5 (NV-B DIZC)
RAM State: $00:00 $01:00 $02:00
Timing: Current Emulated Cycle: 3325, Last IRQ Trigger Cycle: 0, Cycles Since Last IRQ: 3325
Emulated Cycles: 3325

8159: D0 F8       BNE $8153
CPU State: PC:8153 A:EA X:9A Y:00 SP:FD Status:A5 (NV-B DIZC)
RAM State: $00:00 $01:00 $02:00
Timing: Current Emulated Cycle: 3328, Last IRQ Trigger Cycle: 0, Cycles Since Last IRQ: 3328
Emulated Cycles: 3328

8153: A9 EA       LDA #$EA
CPU State: PC:8155 A:EA X:9A Y:00 SP:FD Status:A5 (NV-B DIZC)
RAM State: $00:00 $01:00 $02:00
Timing: Current Emulated Cycle: 3330, Last IRQ Trigger Cycle: 0, Cycles Since Last IRQ: 3330
Emulated Cycles: 3330

8155: 9D 00 C1    STA $C100,X
CPU State: PC:8158 A:EA X:9A Y:00 SP:FD Status:A5 (NV-B DIZC)
RAM State: $00:00 $01:00 $02:00
Timing: Current Emulated Cycle: 3335, Last IRQ Trigger Cycle: 0, Cycles Since Last IRQ: 3335
Emulated Cycles: 3335

8158: E8          INX
CPU State: PC:8159 A:EA X:9B Y:00 SP:FD Status:A5 (NV-B DIZC)
RAM State: $00:00 $01:00 $02:00
Timing: Current Emulated Cycle: 3337, Last IRQ Trigger Cycle: 0, Cycles Since Last IRQ: 3337
Emulated Cycles: 3337

8159: D0 F8       BNE $8153
CPU State: PC:8153 A:EA X:9B Y:00 SP:FD Status:A5 (NV-B DIZC)
RAM State: $00:00 $01:00 $02:00
Timing: Current Emulated Cycle: 3340, Last IRQ Trigger Cycle: 0, Cycles Since Last IRQ: 3340
Emulated Cycles: 3340

8153: A9 EA       LDA #$EA
CPU State: PC:8155 A:EA X:9B Y:00 SP:FD Status:A5 (NV-B DIZC)
RAM State: $00:00 $01:00 $02:00
Timing: Current Emulated Cycle: 3342, Last IRQ Trigger Cycle: 0, Cycles Since Last IRQ: 3342
Emulated Cycles: 3342

8155: 9D 00 C1    STA $C100,X
CPU State: PC:8158 A:EA X:9B Y:00 SP:FD Status:A5 (NV-B DIZC)
RAM State: $00:00 $01:00 $02:00
Timing: Current Emulated Cycle: 3347, Last IRQ Trigger Cycle: 0, Cycles Since Last IRQ: 3347
Emulated Cycles: 3347

8158: E8          INX
CPU State: PC:8159 A:EA X:9C Y:00 SP:FD Status:A5 (NV-B DIZC)
RAM State: $00:00 $01:00 $02:00
Timing: Current Emulated Cycle: 3349, Last IRQ Trigger Cycle: 0, Cycles Since Last IRQ: 3349
Emulated Cycles: 3349

8159: D0 F8       BNE $8153
CPU State: PC:8153 A:EA X:9C Y:00 SP:FD Status:A5 (NV-B DIZC)
RAM State: $00:00 $01:00 $02:00
Timing: Current Emulated Cycle: 3352, Last IRQ Trigger Cycle: 0, Cycles Since Last IRQ: 3352
Emulated Cycles: 3352

8153: A9 EA       LDA #$EA
CPU State: PC:8155 A:EA X:9C Y:00 SP:FD Status:A5 (NV-B DIZC)
RAM State: $00:00 $01:00 $02:00
Timing: Current Emulated Cycle: 3354, Last IRQ Trigger Cycle: 0, Cycles Since Last IRQ: 3354
Emulated Cycles: 3354

8155: 9D 00 C1    STA $C100,X
CPU State: PC:8158 A:EA X:9C Y:00 SP:FD Status:A5 (NV-B DIZC)
RAM State: $00:00 $01:00 $02:00
Timing: Current Emulated Cycle: 3359, Last IRQ Trigger Cycle: 0, Cycles Since Last IRQ: 3359
Emulated Cycles: 3359

8158: E8          INX
CPU State: PC:8159 A:EA X:9D Y:00 SP:FD Status:A5 (NV-B DIZC)
RAM State: $00:00 $01:00 $02:00
Timing: Current Emulated Cycle: 3361, Last IRQ Trigger Cycle: 0, Cycles Since Last IRQ: 3361
Emulated Cycles: 3361

8159: D0 F8       BNE $8153
CPU State: PC:8153 A:EA X:9D Y:00 SP:FD Status:A5 (NV-B DIZC)
RAM State: $00:00 $01:00 $02:00
Timing: Current Emulated Cycle: 3364, Last IRQ Trigger Cycle: 0, Cycles Since Last IRQ: 3364
Emulated Cycles: 3364

8153: A9 EA       LDA #$EA
CPU State: PC:8155 A:EA X:9D Y:00 SP:FD Status:A5 (NV-B DIZC)
RAM State: $00:00 $01:00 $02:00
Timing: Current Emulated Cycle: 3366, Last IRQ Trigger Cycle: 0, Cycles Since Last IRQ: 3366
Emulated Cycles: 3366

8155: 9D 00 C1    STA $C100,X
CPU State: PC:8158 A:EA X:9D Y:00 SP:FD Status:A5 (NV-B DIZC)
RAM State: $00:00 $01:00 $02:00
Timing: Current Emulated Cycle: 3371, Last IRQ Trigger Cycle: 0, Cycles Since Last IRQ: 3371
Emulated Cycles: 3371

8158: E8          INX
CPU State: PC:8159 A:EA X:9E Y:00 SP:FD Status:A5 (NV-B DIZC)
RAM State: $00:00 $01:00 $02:00
Timing: Current Emulated Cycle: 3373, Last IRQ Trigger Cycle: 0, Cycles Since Last IRQ: 3373
Emulated Cycles: 3373

8159: D0 F8       BNE $8153
CPU State: PC:8153 A:EA X:9E Y:00 SP:FD Status:A5 (NV-B DIZC)
RAM State: $00:00 $01:00 $02:00
Timing: Current Emulated Cycle: 3376, Last IRQ Trigger Cycle: 0, Cycles Since Last IRQ: 3376
Emulated Cycles: 3376

8153: A9 EA       LDA #$EA
CPU State: PC:8155 A:EA X:9E Y:00 SP:FD Status:A5 (NV-B DIZC)
RAM State: $00:00 $01:00 $02:00
Timing: Current Emulated Cycle: 3378, Last IRQ Trigger Cycle: 0, Cycles Since Last IRQ: 3378
Emulated Cycles: 3378

8155: 9D 00 C1    STA $C100,X
CPU State: PC:8158 A:EA X:9E Y:00 SP:FD Status:A5 (NV-B DIZC)
RAM State: $00:00 $01:00 $02:00
Timing: Current Emulated Cycle: 3383, Last IRQ Trigger Cycle: 0, Cycles Since Last IRQ: 3383
Emulated Cycles: 3383

8158: E8          INX
CPU State: PC:8159 A:EA X:9F Y:00 SP:FD Status:A5 (NV-B DIZC)
RAM State: $00:00 $01:00 $02:00
Timing: Current Emulated Cycle: 3385, Last IRQ Trigger Cycle: 0, Cycles Since Last IRQ: 3385
Emulated Cycles: 3385

8159: D0 F8       BNE $8153
CPU State: PC:8153 A:EA X:9F Y:00 SP:FD Status:A5 (NV-B DIZC)
RAM State: $00:00 $01:00 $02:00
Timing: Current Emulated Cycle: 3388, Last IRQ Trigger Cycle: 0, Cycles Since Last IRQ: 3388
Emulated Cycles: 3388

8153: A9 EA       LDA #$EA
CPU State: PC:8155 A:EA X:9F Y:00 SP:FD Status:A5 (NV-B DIZC)
RAM State: $00:00 $01:00 $02:00
Timing: Current Emulated Cycle: 3390, Last IRQ Trigger Cycle: 0, Cycles Since Last IRQ: 3390
Emulated Cycles: 3390

8155: 9D 00 C1    STA $C100,X
CPU State: PC:8158 A:EA X:9F Y:00 SP:FD Status:A5 (NV-B DIZC)
RAM State: $00:00 $01:00 $02:00
Timing: Current Emulated Cycle: 3395, Last IRQ Trigger Cycle: 0, Cycles Since Last IRQ: 3395
Emulated Cycles: 3395

8158: E8          INX
CPU State: PC:8159 A:EA X:A0 Y:00 SP:FD Status:A5 (NV-B DIZC)
RAM State: $00:00 $01:00 $02:00
Timing: Current Emulated Cycle: 3397, Last IRQ Trigger Cycle: 0, Cycles Since Last IRQ: 3397
Emulated Cycles: 3397

8159: D0 F8       BNE $8153
CPU State: PC:8153 A:EA X:A0 Y:00 SP:FD Status:A5 (NV-B DIZC)
RAM State: $00:00 $01:00 $02:00
Timing: Current Emulated Cycle: 3400, Last IRQ Trigger Cycle: 0, Cycles Since Last IRQ: 3400
Emulated Cycles: 3400

8153: A9 EA       LDA #$EA
CPU State: PC:8155 A:EA X:A0 Y:00 SP:FD Status:A5 (NV-B DIZC)
RAM State: $00:00 $01:00 $02:00
Timing: Current Emulated Cycle: 3402, Last IRQ Trigger Cycle: 0, Cycles Since Last IRQ: 3402
Emulated Cycles: 3402

8155: 9D 00 C1    STA $C100,X
CPU State: PC:8158 A:EA X:A0 Y:00 SP:FD Status:A5 (NV-B DIZC)
RAM State: $00:00 $01:00 $02:00
Timing: Current Emulated Cycle: 3407, Last IRQ Trigger Cycle: 0, Cycles Since Last IRQ: 3407
Emulated Cycles: 3407

8158: E8          INX
CPU State: PC:8159 A:EA X:A1 Y:00 SP:FD Status:A5 (NV-B DIZC)
RAM State: $00:00 $01:00 $02:00
Timing: Current Emulated Cycle: 3409, Last IRQ Trigger Cycle: 0, Cycles Since Last IRQ: 3409
Emulated Cycles: 3409

8159: D0 F8       BNE $8153
CPU State: PC:8153 A:EA X:A1 Y:00 SP:FD Status:A5 (NV-B DIZC)
RAM State: $00:00 $01:00 $02:00
Timing: Current Emulated Cycle: 3412, Last IRQ Trigger Cycle: 0, Cycles Since Last IRQ: 3412
Emulated Cycles: 3412

8153: A9 EA       LDA #$EA
CPU State: PC:8155 A:EA X:A1 Y:00 SP:FD Status:A5 (NV-B DIZC)
RAM State: $00:00 $01:00 $02:00
Timing: Current Emulated Cycle: 3414, Last IRQ Trigger Cycle: 0, Cycles Since Last IRQ: 3414
Emulated Cycles: 3414

8155: 9D 00 C1    STA $C100,X
CPU State: PC:8158 A:EA X:A1 Y:00 SP:FD Status:A5 (NV-B DIZC)
RAM State: $00:00 $01:00 $02:00
Timing: Current Emulated Cycle: 3419, Last IRQ Trigger Cycle: 0, Cycles Since Last IRQ: 3419
Emulated Cycles: 3419

8158: E8          INX
CPU State: PC:8159 A:EA X:A2 Y:00 SP:FD Status:A5 (NV-B DIZC)
RAM State: $00:00 $01:00 $02:00
Timing: Current Emulated Cycle: 3421, Last IRQ Trigger Cycle: 0, Cycles Since Last IRQ: 3421
Emulated Cycles: 3421

8159: D0 F8       BNE $8153
CPU State: PC:8153 A:EA X:A2 Y:00 SP:FD Status:A5 (NV-B DIZC)
RAM State: $00:00 $01:00 $02:00
Timing: Current Emulated Cycle: 3424, Last IRQ Trigger Cycle: 0, Cycles Since Last IRQ: 3424
Emulated Cycles: 3424

8153: A9 EA       LDA #$EA
CPU State: PC:8155 A:EA X:A2 Y:00 SP:FD Status:A5 (NV-B DIZC)
RAM State: $00:00 $01:00 $02:00
Timing: Current Emulated Cycle: 3426, Last IRQ Trigger Cycle: 0, Cycles Since Last IRQ: 3426
Emulated Cycles: 3426

8155: 9D 00 C1    STA $C100,X
CPU State: PC:8158 A:EA X:A2 Y:00 SP:FD Status:A5 (NV-B DIZC)
RAM State: $00:00 $01:00 $02:00
Timing: Current Emulated Cycle: 3431, Last IRQ Trigger Cycle: 0, Cycles Since Last IRQ: 3431
Emulated Cycles: 3431

8158: E8          INX
CPU State: PC:8159 A:EA X:A3 Y:00 SP:FD Status:A5 (NV-B DIZC)
RAM State: $00:00 $01:00 $02:00
Timing: Current Emulated Cycle: 3433, Last IRQ Trigger Cycle: 0, Cycles Since Last IRQ: 3433
Emulated Cycles: 3433

8159: D0 F8       BNE $8153
CPU State: PC:8153 A:EA X:A3 Y:00 SP:FD Status:A5 (NV-B DIZC)
RAM State: $00:00 $01:00 $02:00
Timing: Current Emulated Cycle: 3436, Last IRQ Trigger Cycle: 0, Cycles Since Last IRQ: 3436
Emulated Cycles: 3436

8153: A9 EA       LDA #$EA
CPU State: PC:8155 A:EA X:A3 Y:00 SP:FD Status:A5 (NV-B DIZC)
RAM State: $00:00 $01:00 $02:00
Timing: Current Emulated Cycle: 3438, Last IRQ Trigger Cycle: 0, Cycles Since Last IRQ: 3438
Emulated Cycles: 3438

8155: 9D 00 C1    STA $C100,X
CPU State: PC:8158 A:EA X:A3 Y:00 SP:FD Status:A5 (NV-B DIZC)
RAM State: $00:00 $01:00 $02:00
Timing: Current Emulated Cycle: 3443, Last IRQ Trigger Cycle: 0, Cycles Since Last IRQ: 3443
Emulated Cycles: 3443

8158: E8          INX
CPU State: PC:8159 A:EA X:A4 Y:00 SP:FD Status:A5 (NV-B DIZC)
RAM State: $00:00 $01:00 $02:00
Timing: Current Emulated Cycle: 3445, Last IRQ Trigger Cycle: 0, Cycles Since Last IRQ: 3445
Emulated Cycles: 3445

8159: D0 F8       BNE $8153
CPU State: PC:8153 A:EA X:A4 Y:00 SP:FD Status:A5 (NV-B DIZC)
RAM State: $00:00 $01:00 $02:00
Timing: Current Emulated Cycle: 3448, Last IRQ Trigger Cycle: 0, Cycles Since Last IRQ: 3448
Emulated Cycles: 3448

8153: A9 EA       LDA #$EA
CPU State: PC:8155 A:EA X:A4 Y:00 SP:FD Status:A5 (NV-B DIZC)
RAM State: $00:00 $01:00 $02:00
Timing: Current Emulated Cycle: 3450, Last IRQ Trigger Cycle: 0, Cycles Since Last IRQ: 3450
Emulated Cycles: 3450

8155: 9D 00 C1    STA $C100,X
CPU State: PC:8158 A:EA X:A4 Y:00 SP:FD Status:A5 (NV-B DIZC)
RAM State: $00:00 $01:00 $02:00
Timing: Current Emulated Cycle: 3455, Last IRQ Trigger Cycle: 0, Cycles Since Last IRQ: 3455
Emulated Cycles: 3455

8158: E8          INX
CPU State: PC:8159 A:EA X:A5 Y:00 SP:FD Status:A5 (NV-B DIZC)
RAM State: $00:00 $01:00 $02:00
Timing: Current Emulated Cycle: 3457, Last IRQ Trigger Cycle: 0, Cycles Since Last IRQ: 3457
Emulated Cycles: 3457

8159: D0 F8       BNE $8153
CPU State: PC:8153 A:EA X:A5 Y:00 SP:FD Status:A5 (NV-B DIZC)
RAM State: $00:00 $01:00 $02:00
Timing: Current Emulated Cycle: 3460, Last IRQ Trigger Cycle: 0, Cycles Since Last IRQ: 3460
Emulated Cycles: 3460

8153: A9 EA       LDA #$EA
CPU State: PC:8155 A:EA X:A5 Y:00 SP:FD Status:A5 (NV-B DIZC)
RAM State: $00:00 $01:00 $02:00
Timing: Current Emulated Cycle: 3462, Last IRQ Trigger Cycle: 0, Cycles Since Last IRQ: 3462
Emulated Cycles: 3462

8155: 9D 00 C1    STA $C100,X
CPU State: PC:8158 A:EA X:A5 Y:00 SP:FD Status:A5 (NV-B DIZC)
RAM State: $00:00 $01:00 $02:00
Timing: Current Emulated Cycle: 3467, Last IRQ Trigger Cycle: 0, Cycles Since Last IRQ: 3467
Emulated Cycles: 3467

8158: E8          INX
CPU State: PC:8159 A:EA X:A6 Y:00 SP:FD Status:A5 (NV-B DIZC)
RAM State: $00:00 $01:00 $02:00
Timing: Current Emulated Cycle: 3469, Last IRQ Trigger Cycle: 0, Cycles Since Last IRQ: 3469
Emulated Cycles: 3469

8159: D0 F8       BNE $8153
CPU State: PC:8153 A:EA X:A6 Y:00 SP:FD Status:A5 (NV-B DIZC)
RAM State: $00:00 $01:00 $02:00
Timing: Current Emulated Cycle: 3472, Last IRQ Trigger Cycle: 0, Cycles Since Last IRQ: 3472
Emulated Cycles: 3472

8153: A9 EA       LDA #$EA
CPU State: PC:8155 A:EA X:A6 Y:00 SP:FD Status:A5 (NV-B DIZC)
RAM State: $00:00 $01:00 $02:00
Timing: Current Emulated Cycle: 3474, Last IRQ Trigger Cycle: 0, Cycles Since Last IRQ: 3474
Emulated Cycles: 3474

8155: 9D 00 C1    STA $C100,X
CPU State: PC:8158 A:EA X:A6 Y:00 SP:FD Status:A5 (NV-B DIZC)
RAM State: $00:00 $01:00 $02:00
Timing: Current Emulated Cycle: 3479, Last IRQ Trigger Cycle: 0, Cycles Since Last IRQ: 3479
Emulated Cycles: 3479

8158: E8          INX
CPU State: PC:8159 A:EA X:A7 Y:00 SP:FD Status:A5 (NV-B DIZC)
RAM State: $00:00 $01:00 $02:00
Timing: Current Emulated Cycle: 3481, Last IRQ Trigger Cycle: 0, Cycles Since Last IRQ: 3481
Emulated Cycles: 3481

8159: D0 F8       BNE $8153
CPU State: PC:8153 A:EA X:A7 Y:00 SP:FD Status:A5 (NV-B DIZC)
RAM State: $00:00 $01:00 $02:00
Timing: Current Emulated Cycle: 3484, Last IRQ Trigger Cycle: 0, Cycles Since Last IRQ: 3484
Emulated Cycles: 3484

8153: A9 EA       LDA #$EA
CPU State: PC:8155 A:EA X:A7 Y:00 SP:FD Status:A5 (NV-B DIZC)
RAM State: $00:00 $01:00 $02:00
Timing: Current Emulated Cycle: 3486, Last IRQ Trigger Cycle: 0, Cycles Since Last IRQ: 3486
Emulated Cycles: 3486

8155: 9D 00 C1    STA $C100,X
CPU State: PC:8158 A:EA X:A7 Y:00 SP:FD Status:A5 (NV-B DIZC)
RAM State: $00:00 $01:00 $02:00
Timing: Current Emulated Cycle: 3491, Last IRQ Trigger Cycle: 0, Cycles Since Last IRQ: 3491
Emulated Cycles: 3491

8158: E8          INX
CPU State: PC:8159 A:EA X:A8 Y:00 SP:FD Status:A5 (NV-B DIZC)
RAM State: $00:00 $01:00 $02:00
Timing: Current Emulated Cycle: 3493, Last IRQ Trigger Cycle: 0, Cycles Since Last IRQ: 3493
Emulated Cycles: 3493

8159: D0 F8       BNE $8153
CPU State: PC:8153 A:EA X:A8 Y:00 SP:FD Status:A5 (NV-B DIZC)
RAM State: $00:00 $01:00 $02:00
Timing: Current Emulated Cycle: 3496, Last IRQ Trigger Cycle: 0, Cycles Since Last IRQ: 3496
Emulated Cycles: 3496

8153: A9 EA       LDA #$EA
CPU State: PC:8155 A:EA X:A8 Y:00 SP:FD Status:A5 (NV-B DIZC)
RAM State: $00:00 $01:00 $02:00
Timing: Current Emulated Cycle: 3498, Last IRQ Trigger Cycle: 0, Cycles Since Last IRQ: 3498
Emulated Cycles: 3498

8155: 9D 00 C1    STA $C100,X
CPU State: PC:8158 A:EA X:A8 Y:00 SP:FD Status:A5 (NV-B DIZC)
RAM State: $00:00 $01:00 $02:00
Timing: Current Emulated Cycle: 3503, Last IRQ Trigger Cycle: 0, Cycles Since Last IRQ: 3503
Emulated Cycles: 3503

8158: E8          INX
CPU State: PC:8159 A:EA X:A9 Y:00 SP:FD Status:A5 (NV-B DIZC)
RAM State: $00:00 $01:00 $02:00
Timing: Current Emulated Cycle: 3505, Last IRQ Trigger Cycle: 0, Cycles Since Last IRQ: 3505
Emulated Cycles: 3505

8159: D0 F8       BNE $8153
CPU State: PC:8153 A:EA X:A9 Y:00 SP:FD Status:A5 (NV-B DIZC)
RAM State: $00:00 $01:00 $02:00
Timing: Current Emulated Cycle: 3508, Last IRQ Trigger Cycle: 0, Cycles Since Last IRQ: 3508
Emulated Cycles: 3508

8153: A9 EA       LDA #$EA
CPU State: PC:8155 A:EA X:A9 Y:00 SP:FD Status:A5 (NV-B DIZC)
RAM State: $00:00 $01:00 $02:00
Timing: Current Emulated Cycle: 3510, Last IRQ Trigger Cycle: 0, Cycles Since Last IRQ: 3510
Emulated Cycles: 3510

8155: 9D 00 C1    STA $C100,X
CPU State: PC:8158 A:EA X:A9 Y:00 SP:FD Status:A5 (NV-B DIZC)
RAM State: $00:00 $01:00 $02:00
Timing: Current Emulated Cycle: 3515, Last IRQ Trigger Cycle: 0, Cycles Since Last IRQ: 3515
Emulated Cycles: 3515

8158: E8          INX
CPU State: PC:8159 A:EA X:AA Y:00 SP:FD Status:A5 (NV-B DIZC)
RAM State: $00:00 $01:00 $02:00
Timing: Current Emulated Cycle: 3517, Last IRQ Trigger Cycle: 0, Cycles Since Last IRQ: 3517
Emulated Cycles: 3517

8159: D0 F8       BNE $8153
CPU State: PC:8153 A:EA X:AA Y:00 SP:FD Status:A5 (NV-B DIZC)
RAM State: $00:00 $01:00 $02:00
Timing: Current Emulated Cycle: 3520, Last IRQ Trigger Cycle: 0, Cycles Since Last IRQ: 3520
Emulated Cycles: 3520

8153: A9 EA       LDA #$EA
CPU State: PC:8155 A:EA X:AA Y:00 SP:FD Status:A5 (NV-B DIZC)
RAM State: $00:00 $01:00 $02:00
Timing: Current Emulated Cycle: 3522, Last IRQ Trigger Cycle: 0, Cycles Since Last IRQ: 3522
Emulated Cycles: 3522

8155: 9D 00 C1    STA $C100,X
CPU State: PC:8158 A:EA X:AA Y:00 SP:FD Status:A5 (NV-B DIZC)
RAM State: $00:00 $01:00 $02:00
Timing: Current Emulated Cycle: 3527, Last IRQ Trigger Cycle: 0, Cycles Since Last IRQ: 3527
Emulated Cycles: 3527

8158: E8          INX
CPU State: PC:8159 A:EA X:AB Y:00 SP:FD Status:A5 (NV-B DIZC)
RAM State: $00:00 $01:00 $02:00
Timing: Current Emulated Cycle: 3529, Last IRQ Trigger Cycle: 0, Cycles Since Last IRQ: 3529
Emulated Cycles: 3529

8159: D0 F8       BNE $8153
CPU State: PC:8153 A:EA X:AB Y:00 SP:FD Status:A5 (NV-B DIZC)
RAM State: $00:00 $01:00 $02:00
Timing: Current Emulated Cycle: 3532, Last IRQ Trigger Cycle: 0, Cycles Since Last IRQ: 3532
Emulated Cycles: 3532

8153: A9 EA       LDA #$EA
CPU State: PC:8155 A:EA X:AB Y:00 SP:FD Status:A5 (NV-B DIZC)
RAM State: $00:00 $01:00 $02:00
Timing: Current Emulated Cycle: 3534, Last IRQ Trigger Cycle: 0, Cycles Since Last IRQ: 3534
Emulated Cycles: 3534

8155: 9D 00 C1    STA $C100,X
CPU State: PC:8158 A:EA X:AB Y:00 SP:FD Status:A5 (NV-B DIZC)
RAM State: $00:00 $01:00 $02:00
Timing: Current Emulated Cycle: 3539, Last IRQ Trigger Cycle: 0, Cycles Since Last IRQ: 3539
Emulated Cycles: 3539

8158: E8          INX
CPU State: PC:8159 A:EA X:AC Y:00 SP:FD Status:A5 (NV-B DIZC)
RAM State: $00:00 $01:00 $02:00
Timing: Current Emulated Cycle: 3541, Last IRQ Trigger Cycle: 0, Cycles Since Last IRQ: 3541
Emulated Cycles: 3541

8159: D0 F8       BNE $8153
CPU State: PC:8153 A:EA X:AC Y:00 SP:FD Status:A5 (NV-B DIZC)
RAM State: $00:00 $01:00 $02:00
Timing: Current Emulated Cycle: 3544, Last IRQ Trigger Cycle: 0, Cycles Since Last IRQ: 3544
Emulated Cycles: 3544

8153: A9 EA       LDA #$EA
CPU State: PC:8155 A:EA X:AC Y:00 SP:FD Status:A5 (NV-B DIZC)
RAM State: $00:00 $01:00 $02:00
Timing: Current Emulated Cycle: 3546, Last IRQ Trigger Cycle: 0, Cycles Since Last IRQ: 3546
Emulated Cycles: 3546

8155: 9D 00 C1    STA $C100,X
CPU State: PC:8158 A:EA X:AC Y:00 SP:FD Status:A5 (NV-B DIZC)
RAM State: $00:00 $01:00 $02:00
Timing: Current Emulated Cycle: 3551, Last IRQ Trigger Cycle: 0, Cycles Since Last IRQ: 3551
Emulated Cycles: 3551

8158: E8          INX
CPU State: PC:8159 A:EA X:AD Y:00 SP:FD Status:A5 (NV-B DIZC)
RAM State: $00:00 $01:00 $02:00
Timing: Current Emulated Cycle: 3553, Last IRQ Trigger Cycle: 0, Cycles Since Last IRQ: 3553
Emulated Cycles: 3553

8159: D0 F8       BNE $8153
CPU State: PC:8153 A:EA X:AD Y:00 SP:FD Status:A5 (NV-B DIZC)
RAM State: $00:00 $01:00 $02:00
Timing: Current Emulated Cycle: 3556, Last IRQ Trigger Cycle: 0, Cycles Since Last IRQ: 3556
Emulated Cycles: 3556

8153: A9 EA       LDA #$EA
CPU State: PC:8155 A:EA X:AD Y:00 SP:FD Status:A5 (NV-B DIZC)
RAM State: $00:00 $01:00 $02:00
Timing: Current Emulated Cycle: 3558, Last IRQ Trigger Cycle: 0, Cycles Since Last IRQ: 3558
Emulated Cycles: 3558

8155: 9D 00 C1    STA $C100,X
CPU State: PC:8158 A:EA X:AD Y:00 SP:FD Status:A5 (NV-B DIZC)
RAM State: $00:00 $01:00 $02:00
Timing: Current Emulated Cycle: 3563, Last IRQ Trigger Cycle: 0, Cycles Since Last IRQ: 3563
Emulated Cycles: 3563

8158: E8          INX
CPU State: PC:8159 A:EA X:AE Y:00 SP:FD Status:A5 (NV-B DIZC)
RAM State: $00:00 $01:00 $02:00
Timing: Current Emulated Cycle: 3565, Last IRQ Trigger Cycle: 0, Cycles Since Last IRQ: 3565
Emulated Cycles: 3565

8159: D0 F8       BNE $8153
CPU State: PC:8153 A:EA X:AE Y:00 SP:FD Status:A5 (NV-B DIZC)
RAM State: $00:00 $01:00 $02:00
Timing: Current Emulated Cycle: 3568, Last IRQ Trigger Cycle: 0, Cycles Since Last IRQ: 3568
Emulated Cycles: 3568

8153: A9 EA       LDA #$EA
CPU State: PC:8155 A:EA X:AE Y:00 SP:FD Status:A5 (NV-B DIZC)
RAM State: $00:00 $01:00 $02:00
Timing: Current Emulated Cycle: 3570, Last IRQ Trigger Cycle: 0, Cycles Since Last IRQ: 3570
Emulated Cycles: 3570

8155: 9D 00 C1    STA $C100,X
CPU State: PC:8158 A:EA X:AE Y:00 SP:FD Status:A5 (NV-B DIZC)
RAM State: $00:00 $01:00 $02:00
Timing: Current Emulated Cycle: 3575, Last IRQ Trigger Cycle: 0, Cycles Since Last IRQ: 3575
Emulated Cycles: 3575

8158: E8          INX
CPU State: PC:8159 A:EA X:AF Y:00 SP:FD Status:A5 (NV-B DIZC)
RAM State: $00:00 $01:00 $02:00
Timing: Current Emulated Cycle: 3577, Last IRQ Trigger Cycle: 0, Cycles Since Last IRQ: 3577
Emulated Cycles: 3577

8159: D0 F8       BNE $8153
CPU State: PC:8153 A:EA X:AF Y:00 SP:FD Status:A5 (NV-B DIZC)
RAM State: $00:00 $01:00 $02:00
Timing: Current Emulated Cycle: 3580, Last IRQ Trigger Cycle: 0, Cycles Since Last IRQ: 3580
Emulated Cycles: 3580

8153: A9 EA       LDA #$EA
CPU State: PC:8155 A:EA X:AF Y:00 SP:FD Status:A5 (NV-B DIZC)
RAM State: $00:00 $01:00 $02:00
Timing: Current Emulated Cycle: 3582, Last IRQ Trigger Cycle: 0, Cycles Since Last IRQ: 3582
Emulated Cycles: 3582

8155: 9D 00 C1    STA $C100,X
CPU State: PC:8158 A:EA X:AF Y:00 SP:FD Status:A5 (NV-B DIZC)
RAM State: $00:00 $01:00 $02:00
Timing: Current Emulated Cycle: 3587, Last IRQ Trigger Cycle: 0, Cycles Since Last IRQ: 3587
Emulated Cycles: 3587

8158: E8          INX
CPU State: PC:8159 A:EA X:B0 Y:00 SP:FD Status:A5 (NV-B DIZC)
RAM State: $00:00 $01:00 $02:00
Timing: Current Emulated Cycle: 3589, Last IRQ Trigger Cycle: 0, Cycles Since Last IRQ: 3589
Emulated Cycles: 3589

8159: D0 F8       BNE $8153
CPU State: PC:8153 A:EA X:B0 Y:00 SP:FD Status:A5 (NV-B DIZC)
RAM State: $00:00 $01:00 $02:00
Timing: Current Emulated Cycle: 3592, Last IRQ Trigger Cycle: 0, Cycles Since Last IRQ: 3592
Emulated Cycles: 3592

8153: A9 EA       LDA #$EA
CPU State: PC:8155 A:EA X:B0 Y:00 SP:FD Status:A5 (NV-B DIZC)
RAM State: $00:00 $01:00 $02:00
Timing: Current Emulated Cycle: 3594, Last IRQ Trigger Cycle: 0, Cycles Since Last IRQ: 3594
Emulated Cycles: 3594

8155: 9D 00 C1    STA $C100,X
CPU State: PC:8158 A:EA X:B0 Y:00 SP:FD Status:A5 (NV-B DIZC)
RAM State: $00:00 $01:00 $02:00
Timing: Current Emulated Cycle: 3599, Last IRQ Trigger Cycle: 0, Cycles Since Last IRQ: 3599
Emulated Cycles: 3599

8158: E8          INX
CPU State: PC:8159 A:EA X:B1 Y:00 SP:FD Status:A5 (NV-B DIZC)
RAM State: $00:00 $01:00 $02:00
Timing: Current Emulated Cycle: 3601, Last IRQ Trigger Cycle: 0, Cycles Since Last IRQ: 3601
Emulated Cycles: 3601

8159: D0 F8       BNE $8153
CPU State: PC:8153 A:EA X:B1 Y:00 SP:FD Status:A5 (NV-B DIZC)
RAM State: $00:00 $01:00 $02:00
Timing: Current Emulated Cycle: 3604, Last IRQ Trigger Cycle: 0, Cycles Since Last IRQ: 3604
Emulated Cycles: 3604

8153: A9 EA       LDA #$EA
CPU State: PC:8155 A:EA X:B1 Y:00 SP:FD Status:A5 (NV-B DIZC)
RAM State: $00:00 $01:00 $02:00
Timing: Current Emulated Cycle: 3606, Last IRQ Trigger Cycle: 0, Cycles Since Last IRQ: 3606
Emulated Cycles: 3606

8155: 9D 00 C1    STA $C100,X
CPU State: PC:8158 A:EA X:B1 Y:00 SP:FD Status:A5 (NV-B DIZC)
RAM State: $00:00 $01:00 $02:00
Timing: Current Emulated Cycle: 3611, Last IRQ Trigger Cycle: 0, Cycles Since Last IRQ: 3611
Emulated Cycles: 3611

8158: E8          INX
CPU State: PC:8159 A:EA X:B2 Y:00 SP:FD Status:A5 (NV-B DIZC)
RAM State: $00:00 $01:00 $02:00
Timing: Current Emulated Cycle: 3613, Last IRQ Trigger Cycle: 0, Cycles Since Last IRQ: 3613
Emulated Cycles: 3613

8159: D0 F8       BNE $8153
CPU State: PC:8153 A:EA X:B2 Y:00 SP:FD Status:A5 (NV-B DIZC)
RAM State: $00:00 $01:00 $02:00
Timing: Current Emulated Cycle: 3616, Last IRQ Trigger Cycle: 0, Cycles Since Last IRQ: 3616
Emulated Cycles: 3616

8153: A9 EA       LDA #$EA
CPU State: PC:8155 A:EA X:B2 Y:00 SP:FD Status:A5 (NV-B DIZC)
RAM State: $00:00 $01:00 $02:00
Timing: Current Emulated Cycle: 3618, Last IRQ Trigger Cycle: 0, Cycles Since Last IRQ: 3618
Emulated Cycles: 3618

8155: 9D 00 C1    STA $C100,X
CPU State: PC:8158 A:EA X:B2 Y:00 SP:FD Status:A5 (NV-B DIZC)
RAM State: $00:00 $01:00 $02:00
Timing: Current Emulated Cycle: 3623, Last IRQ Trigger Cycle: 0, Cycles Since Last IRQ: 3623
Emulated Cycles: 3623

8158: E8          INX
CPU State: PC:8159 A:EA X:B3 Y:00 SP:FD Status:A5 (NV-B DIZC)
RAM State: $00:00 $01:00 $02:00
Timing: Current Emulated Cycle: 3625, Last IRQ Trigger Cycle: 0, Cycles Since Last IRQ: 3625
Emulated Cycles: 3625

8159: D0 F8       BNE $8153
CPU State: PC:8153 A:EA X:B3 Y:00 SP:FD Status:A5 (NV-B DIZC)
RAM State: $00:00 $01:00 $02:00
Timing: Current Emulated Cycle: 3628, Last IRQ Trigger Cycle: 0, Cycles Since Last IRQ: 3628
Emulated Cycles: 3628

8153: A9 EA       LDA #$EA
CPU State: PC:8155 A:EA X:B3 Y:00 SP:FD Status:A5 (NV-B DIZC)
RAM State: $00:00 $01:00 $02:00
Timing: Current Emulated Cycle: 3630, Last IRQ Trigger Cycle: 0, Cycles Since Last IRQ: 3630
Emulated Cycles: 3630

8155: 9D 00 C1    STA $C100,X
CPU State: PC:8158 A:EA X:B3 Y:00 SP:FD Status:A5 (NV-B DIZC)
RAM State: $00:00 $01:00 $02:00
Timing: Current Emulated Cycle: 3635, Last IRQ Trigger Cycle: 0, Cycles Since Last IRQ: 3635
Emulated Cycles: 3635

8158: E8          INX
CPU State: PC:8159 A:EA X:B4 Y:00 SP:FD Status:A5 (NV-B DIZC)
RAM State: $00:00 $01:00 $02:00
Timing: Current Emulated Cycle: 3637, Last IRQ Trigger Cycle: 0, Cycles Since Last IRQ: 3637
Emulated Cycles: 3637

8159: D0 F8       BNE $8153
CPU State: PC:8153 A:EA X:B4 Y:00 SP:FD Status:A5 (NV-B DIZC)
RAM State: $00:00 $01:00 $02:00
Timing: Current Emulated Cycle: 3640, Last IRQ Trigger Cycle: 0, Cycles Since Last IRQ: 3640
Emulated Cycles: 3640

8153: A9 EA       LDA #$EA
CPU State: PC:8155 A:EA X:B4 Y:00 SP:FD Status:A5 (NV-B DIZC)
RAM State: $00:00 $01:00 $02:00
Timing: Current Emulated Cycle: 3642, Last IRQ Trigger Cycle: 0, Cycles Since Last IRQ: 3642
Emulated Cycles: 3642

8155: 9D 00 C1    STA $C100,X
CPU State: PC:8158 A:EA X:B4 Y:00 SP:FD Status:A5 (NV-B DIZC)
RAM State: $00:00 $01:00 $02:00
Timing: Current Emulated Cycle: 3647, Last IRQ Trigger Cycle: 0, Cycles Since Last IRQ: 3647
Emulated Cycles: 3647

8158: E8          INX
CPU State: PC:8159 A:EA X:B5 Y:00 SP:FD Status:A5 (NV-B DIZC)
RAM State: $00:00 $01:00 $02:00
Timing: Current Emulated Cycle: 3649, Last IRQ Trigger Cycle: 0, Cycles Since Last IRQ: 3649
Emulated Cycles: 3649

8159: D0 F8       BNE $8153
CPU State: PC:8153 A:EA X:B5 Y:00 SP:FD Status:A5 (NV-B DIZC)
RAM State: $00:00 $01:00 $02:00
Timing: Current Emulated Cycle: 3652, Last IRQ Trigger Cycle: 0, Cycles Since Last IRQ: 3652
Emulated Cycles: 3652

8153: A9 EA       LDA #$EA
CPU State: PC:8155 A:EA X:B5 Y:00 SP:FD Status:A5 (NV-B DIZC)
RAM State: $00:00 $01:00 $02:00
Timing: Current Emulated Cycle: 3654, Last IRQ Trigger Cycle: 0, Cycles Since Last IRQ: 3654
Emulated Cycles: 3654

8155: 9D 00 C1    STA $C100,X
CPU State: PC:8158 A:EA X:B5 Y:00 SP:FD Status:A5 (NV-B DIZC)
RAM State: $00:00 $01:00 $02:00
Timing: Current Emulated Cycle: 3659, Last IRQ Trigger Cycle: 0, Cycles Since Last IRQ: 3659
Emulated Cycles: 3659

8158: E8          INX
CPU State: PC:8159 A:EA X:B6 Y:00 SP:FD Status:A5 (NV-B DIZC)
RAM State: $00:00 $01:00 $02:00
Timing: Current Emulated Cycle: 3661, Last IRQ Trigger Cycle: 0, Cycles Since Last IRQ: 3661
Emulated Cycles: 3661

8159: D0 F8       BNE $8153
CPU State: PC:8153 A:EA X:B6 Y:00 SP:FD Status:A5 (NV-B DIZC)
RAM State: $00:00 $01:00 $02:00
Timing: Current Emulated Cycle: 3664, Last IRQ Trigger Cycle: 0, Cycles Since Last IRQ: 3664
Emulated Cycles: 3664

8153: A9 EA       LDA #$EA
CPU State: PC:8155 A:EA X:B6 Y:00 SP:FD Status:A5 (NV-B DIZC)
RAM State: $00:00 $01:00 $02:00
Timing: Current Emulated Cycle: 3666, Last IRQ Trigger Cycle: 0, Cycles Since Last IRQ: 3666
Emulated Cycles: 3666

8155: 9D 00 C1    STA $C100,X
CPU State: PC:8158 A:EA X:B6 Y:00 SP:FD Status:A5 (NV-B DIZC)
RAM State: $00:00 $01:00 $02:00
Timing: Current Emulated Cycle: 3671, Last IRQ Trigger Cycle: 0, Cycles Since Last IRQ: 3671
Emulated Cycles: 3671

8158: E8          INX
CPU State: PC:8159 A:EA X:B7 Y:00 SP:FD Status:A5 (NV-B DIZC)
RAM State: $00:00 $01:00 $02:00
Timing: Current Emulated Cycle: 3673, Last IRQ Trigger Cycle: 0, Cycles Since Last IRQ: 3673
Emulated Cycles: 3673

8159: D0 F8       BNE $8153
CPU State: PC:8153 A:EA X:B7 Y:00 SP:FD Status:A5 (NV-B DIZC)
RAM State: $00:00 $01:00 $02:00
Timing: Current Emulated Cycle: 3676, Last IRQ Trigger Cycle: 0, Cycles Since Last IRQ: 3676
Emulated Cycles: 3676

8153: A9 EA       LDA #$EA
CPU State: PC:8155 A:EA X:B7 Y:00 SP:FD Status:A5 (NV-B DIZC)
RAM State: $00:00 $01:00 $02:00
Timing: Current Emulated Cycle: 3678, Last IRQ Trigger Cycle: 0, Cycles Since Last IRQ: 3678
Emulated Cycles: 3678

8155: 9D 00 C1    STA $C100,X
CPU State: PC:8158 A:EA X:B7 Y:00 SP:FD Status:A5 (NV-B DIZC)
RAM State: $00:00 $01:00 $02:00
Timing: Current Emulated Cycle: 3683, Last IRQ Trigger Cycle: 0, Cycles Since Last IRQ: 3683
Emulated Cycles: 3683

8158: E8          INX
CPU State: PC:8159 A:EA X:B8 Y:00 SP:FD Status:A5 (NV-B DIZC)
RAM State: $00:00 $01:00 $02:00
Timing: Current Emulated Cycle: 3685, Last IRQ Trigger Cycle: 0, Cycles Since Last IRQ: 3685
Emulated Cycles: 3685

8159: D0 F8       BNE $8153
CPU State: PC:8153 A:EA X:B8 Y:00 SP:FD Status:A5 (NV-B DIZC)
RAM State: $00:00 $01:00 $02:00
Timing: Current Emulated Cycle: 3688, Last IRQ Trigger Cycle: 0, Cycles Since Last IRQ: 3688
Emulated Cycles: 3688

8153: A9 EA       LDA #$EA
CPU State: PC:8155 A:EA X:B8 Y:00 SP:FD Status:A5 (NV-B DIZC)
RAM State: $00:00 $01:00 $02:00
Timing: Current Emulated Cycle: 3690, Last IRQ Trigger Cycle: 0, Cycles Since Last IRQ: 3690
Emulated Cycles: 3690

8155: 9D 00 C1    STA $C100,X
CPU State: PC:8158 A:EA X:B8 Y:00 SP:FD Status:A5 (NV-B DIZC)
RAM State: $00:00 $01:00 $02:00
Timing: Current Emulated Cycle: 3695, Last IRQ Trigger Cycle: 0, Cycles Since Last IRQ: 3695
Emulated Cycles: 3695

8158: E8          INX
CPU State: PC:8159 A:EA X:B9 Y:00 SP:FD Status:A5 (NV-B DIZC)
RAM State: $00:00 $01:00 $02:00
Timing: Current Emulated Cycle: 3697, Last IRQ Trigger Cycle: 0, Cycles Since Last IRQ: 3697
Emulated Cycles: 3697

8159: D0 F8       BNE $8153
CPU State: PC:8153 A:EA X:B9 Y:00 SP:FD Status:A5 (NV-B DIZC)
RAM State: $00:00 $01:00 $02:00
Timing: Current Emulated Cycle: 3700, Last IRQ Trigger Cycle: 0, Cycles Since Last IRQ: 3700
Emulated Cycles: 3700

8153: A9 EA       LDA #$EA
CPU State: PC:8155 A:EA X:B9 Y:00 SP:FD Status:A5 (NV-B DIZC)
RAM State: $00:00 $01:00 $02:00
Timing: Current Emulated Cycle: 3702, Last IRQ Trigger Cycle: 0, Cycles Since Last IRQ: 3702
Emulated Cycles: 3702

8155: 9D 00 C1    STA $C100,X
CPU State: PC:8158 A:EA X:B9 Y:00 SP:FD Status:A5 (NV-B DIZC)
RAM State: $00:00 $01:00 $02:00
Timing: Current Emulated Cycle: 3707, Last IRQ Trigger Cycle: 0, Cycles Since Last IRQ: 3707
Emulated Cycles: 3707

8158: E8          INX
CPU State: PC:8159 A:EA X:BA Y:00 SP:FD Status:A5 (NV-B DIZC)
RAM State: $00:00 $01:00 $02:00
Timing: Current Emulated Cycle: 3709, Last IRQ Trigger Cycle: 0, Cycles Since Last IRQ: 3709
Emulated Cycles: 3709

8159: D0 F8       BNE $8153
CPU State: PC:8153 A:EA X:BA Y:00 SP:FD Status:A5 (NV-B DIZC)
RAM State: $00:00 $01:00 $02:00
Timing: Current Emulated Cycle: 3712, Last IRQ Trigger Cycle: 0, Cycles Since Last IRQ: 3712
Emulated Cycles: 3712

8153: A9 EA       LDA #$EA
CPU State: PC:8155 A:EA X:BA Y:00 SP:FD Status:A5 (NV-B DIZC)
RAM State: $00:00 $01:00 $02:00
Timing: Current Emulated Cycle: 3714, Last IRQ Trigger Cycle: 0, Cycles Since Last IRQ: 3714
Emulated Cycles: 3714

8155: 9D 00 C1    STA $C100,X
CPU State: PC:8158 A:EA X:BA Y:00 SP:FD Status:A5 (NV-B DIZC)
RAM State: $00:00 $01:00 $02:00
Timing: Current Emulated Cycle: 3719, Last IRQ Trigger Cycle: 0, Cycles Since Last IRQ: 3719
Emulated Cycles: 3719

8158: E8          INX
CPU State: PC:8159 A:EA X:BB Y:00 SP:FD Status:A5 (NV-B DIZC)
RAM State: $00:00 $01:00 $02:00
Timing: Current Emulated Cycle: 3721, Last IRQ Trigger Cycle: 0, Cycles Since Last IRQ: 3721
Emulated Cycles: 3721

8159: D0 F8       BNE $8153
CPU State: PC:8153 A:EA X:BB Y:00 SP:FD Status:A5 (NV-B DIZC)
RAM State: $00:00 $01:00 $02:00
Timing: Current Emulated Cycle: 3724, Last IRQ Trigger Cycle: 0, Cycles Since Last IRQ: 3724
Emulated Cycles: 3724

8153: A9 EA       LDA #$EA
CPU State: PC:8155 A:EA X:BB Y:00 SP:FD Status:A5 (NV-B DIZC)
RAM State: $00:00 $01:00 $02:00
Timing: Current Emulated Cycle: 3726, Last IRQ Trigger Cycle: 0, Cycles Since Last IRQ: 3726
Emulated Cycles: 3726

8155: 9D 00 C1    STA $C100,X
CPU State: PC:8158 A:EA X:BB Y:00 SP:FD Status:A5 (NV-B DIZC)
RAM State: $00:00 $01:00 $02:00
Timing: Current Emulated Cycle: 3731, Last IRQ Trigger Cycle: 0, Cycles Since Last IRQ: 3731
Emulated Cycles: 3731

8158: E8          INX
CPU State: PC:8159 A:EA X:BC Y:00 SP:FD Status:A5 (NV-B DIZC)
RAM State: $00:00 $01:00 $02:00
Timing: Current Emulated Cycle: 3733, Last IRQ Trigger Cycle: 0, Cycles Since Last IRQ: 3733
Emulated Cycles: 3733

8159: D0 F8       BNE $8153
CPU State: PC:8153 A:EA X:BC Y:00 SP:FD Status:A5 (NV-B DIZC)
RAM State: $00:00 $01:00 $02:00
Timing: Current Emulated Cycle: 3736, Last IRQ Trigger Cycle: 0, Cycles Since Last IRQ: 3736
Emulated Cycles: 3736

8153: A9 EA       LDA #$EA
CPU State: PC:8155 A:EA X:BC Y:00 SP:FD Status:A5 (NV-B DIZC)
RAM State: $00:00 $01:00 $02:00
Timing: Current Emulated Cycle: 3738, Last IRQ Trigger Cycle: 0, Cycles Since Last IRQ: 3738
Emulated Cycles: 3738

8155: 9D 00 C1    STA $C100,X
CPU State: PC:8158 A:EA X:BC Y:00 SP:FD Status:A5 (NV-B DIZC)
RAM State: $00:00 $01:00 $02:00
Timing: Current Emulated Cycle: 3743, Last IRQ Trigger Cycle: 0, Cycles Since Last IRQ: 3743
Emulated Cycles: 3743

8158: E8          INX
CPU State: PC:8159 A:EA X:BD Y:00 SP:FD Status:A5 (NV-B DIZC)
RAM State: $00:00 $01:00 $02:00
Timing: Current Emulated Cycle: 3745, Last IRQ Trigger Cycle: 0, Cycles Since Last IRQ: 3745
Emulated Cycles: 3745

8159: D0 F8       BNE $8153
CPU State: PC:8153 A:EA X:BD Y:00 SP:FD Status:A5 (NV-B DIZC)
RAM State: $00:00 $01:00 $02:00
Timing: Current Emulated Cycle: 3748, Last IRQ Trigger Cycle: 0, Cycles Since Last IRQ: 3748
Emulated Cycles: 3748

8153: A9 EA       LDA #$EA
CPU State: PC:8155 A:EA X:BD Y:00 SP:FD Status:A5 (NV-B DIZC)
RAM State: $00:00 $01:00 $02:00
Timing: Current Emulated Cycle: 3750, Last IRQ Trigger Cycle: 0, Cycles Since Last IRQ: 3750
Emulated Cycles: 3750

8155: 9D 00 C1    STA $C100,X
CPU State: PC:8158 A:EA X:BD Y:00 SP:FD Status:A5 (NV-B DIZC)
RAM State: $00:00 $01:00 $02:00
Timing: Current Emulated Cycle: 3755, Last IRQ Trigger Cycle: 0, Cycles Since Last IRQ: 3755
Emulated Cycles: 3755

8158: E8          INX
CPU State: PC:8159 A:EA X:BE Y:00 SP:FD Status:A5 (NV-B DIZC)
RAM State: $00:00 $01:00 $02:00
Timing: Current Emulated Cycle: 3757, Last IRQ Trigger Cycle: 0, Cycles Since Last IRQ: 3757
Emulated Cycles: 3757

8159: D0 F8       BNE $8153
CPU State: PC:8153 A:EA X:BE Y:00 SP:FD Status:A5 (NV-B DIZC)
RAM State: $00:00 $01:00 $02:00
Timing: Current Emulated Cycle: 3760, Last IRQ Trigger Cycle: 0, Cycles Since Last IRQ: 3760
Emulated Cycles: 3760

8153: A9 EA       LDA #$EA
CPU State: PC:8155 A:EA X:BE Y:00 SP:FD Status:A5 (NV-B DIZC)
RAM State: $00:00 $01:00 $02:00
Timing: Current Emulated Cycle: 3762, Last IRQ Trigger Cycle: 0, Cycles Since Last IRQ: 3762
Emulated Cycles: 3762

8155: 9D 00 C1    STA $C100,X
CPU State: PC:8158 A:EA X:BE Y:00 SP:FD Status:A5 (NV-B DIZC)
RAM State: $00:00 $01:00 $02:00
Timing: Current Emulated Cycle: 3767, Last IRQ Trigger Cycle: 0, Cycles Since Last IRQ: 3767
Emulated Cycles: 3767

8158: E8          INX
CPU State: PC:8159 A:EA X:BF Y:00 SP:FD Status:A5 (NV-B DIZC)
RAM State: $00:00 $01:00 $02:00
Timing: Current Emulated Cycle: 3769, Last IRQ Trigger Cycle: 0, Cycles Since Last IRQ: 3769
Emulated Cycles: 3769

8159: D0 F8       BNE $8153
CPU State: PC:8153 A:EA X:BF Y:00 SP:FD Status:A5 (NV-B DIZC)
RAM State: $00:00 $01:00 $02:00
Timing: Current Emulated Cycle: 3772, Last IRQ Trigger Cycle: 0, Cycles Since Last IRQ: 3772
Emulated Cycles: 3772

8153: A9 EA       LDA #$EA
CPU State: PC:8155 A:EA X:BF Y:00 SP:FD Status:A5 (NV-B DIZC)
RAM State: $00:00 $01:00 $02:00
Timing: Current Emulated Cycle: 3774, Last IRQ Trigger Cycle: 0, Cycles Since Last IRQ: 3774
Emulated Cycles: 3774

8155: 9D 00 C1    STA $C100,X
CPU State: PC:8158 A:EA X:BF Y:00 SP:FD Status:A5 (NV-B DIZC)
RAM State: $00:00 $01:00 $02:00
Timing: Current Emulated Cycle: 3779, Last IRQ Trigger Cycle: 0, Cycles Since Last IRQ: 3779
Emulated Cycles: 3779

8158: E8          INX
CPU State: PC:8159 A:EA X:C0 Y:00 SP:FD Status:A5 (NV-B DIZC)
RAM State: $00:00 $01:00 $02:00
Timing: Current Emulated Cycle: 3781, Last IRQ Trigger Cycle: 0, Cycles Since Last IRQ: 3781
Emulated Cycles: 3781

8159: D0 F8       BNE $8153
CPU State: PC:8153 A:EA X:C0 Y:00 SP:FD Status:A5 (NV-B DIZC)
RAM State: $00:00 $01:00 $02:00
Timing: Current Emulated Cycle: 3784, Last IRQ Trigger Cycle: 0, Cycles Since Last IRQ: 3784
Emulated Cycles: 3784

8153: A9 EA       LDA #$EA
CPU State: PC:8155 A:EA X:C0 Y:00 SP:FD Status:A5 (NV-B DIZC)
RAM State: $00:00 $01:00 $02:00
Timing: Current Emulated Cycle: 3786, Last IRQ Trigger Cycle: 0, Cycles Since Last IRQ: 3786
Emulated Cycles: 3786

8155: 9D 00 C1    STA $C100,X
CPU State: PC:8158 A:EA X:C0 Y:00 SP:FD Status:A5 (NV-B DIZC)
RAM State: $00:00 $01:00 $02:00
Timing: Current Emulated Cycle: 3791, Last IRQ Trigger Cycle: 0, Cycles Since Last IRQ: 3791
Emulated Cycles: 3791

8158: E8          INX
CPU State: PC:8159 A:EA X:C1 Y:00 SP:FD Status:A5 (NV-B DIZC)
RAM State: $00:00 $01:00 $02:00
Timing: Current Emulated Cycle: 3793, Last IRQ Trigger Cycle: 0, Cycles Since Last IRQ: 3793
Emulated Cycles: 3793

8159: D0 F8       BNE $8153
CPU State: PC:8153 A:EA X:C1 Y:00 SP:FD Status:A5 (NV-B DIZC)
RAM State: $00:00 $01:00 $02:00
Timing: Current Emulated Cycle: 3796, Last IRQ Trigger Cycle: 0, Cycles Since Last IRQ: 3796
Emulated Cycles: 3796

8153: A9 EA       LDA #$EA
CPU State: PC:8155 A:EA X:C1 Y:00 SP:FD Status:A5 (NV-B DIZC)
RAM State: $00:00 $01:00 $02:00
Timing: Current Emulated Cycle: 3798, Last IRQ Trigger Cycle: 0, Cycles Since Last IRQ: 3798
Emulated Cycles: 3798

8155: 9D 00 C1    STA $C100,X
CPU State: PC:8158 A:EA X:C1 Y:00 SP:FD Status:A5 (NV-B DIZC)
RAM State: $00:00 $01:00 $02:00
Timing: Current Emulated Cycle: 3803, Last IRQ Trigger Cycle: 0, Cycles Since Last IRQ: 3803
Emulated Cycles: 3803

8158: E8          INX
CPU State: PC:8159 A:EA X:C2 Y:00 SP:FD Status:A5 (NV-B DIZC)
RAM State: $00:00 $01:00 $02:00
Timing: Current Emulated Cycle: 3805, Last IRQ Trigger Cycle: 0, Cycles Since Last IRQ: 3805
Emulated Cycles: 3805

8159: D0 F8       BNE $8153
CPU State: PC:8153 A:EA X:C2 Y:00 SP:FD Status:A5 (NV-B DIZC)
RAM State: $00:00 $01:00 $02:00
Timing: Current Emulated Cycle: 3808, Last IRQ Trigger Cycle: 0, Cycles Since Last IRQ: 3808
Emulated Cycles: 3808

8153: A9 EA       LDA #$EA
CPU State: PC:8155 A:EA X:C2 Y:00 SP:FD Status:A5 (NV-B DIZC)
RAM State: $00:00 $01:00 $02:00
Timing: Current Emulated Cycle: 3810, Last IRQ Trigger Cycle: 0, Cycles Since Last IRQ: 3810
Emulated Cycles: 3810

8155: 9D 00 C1    STA $C100,X
CPU State: PC:8158 A:EA X:C2 Y:00 SP:FD Status:A5 (NV-B DIZC)
RAM State: $00:00 $01:00 $02:00
Timing: Current Emulated Cycle: 3815, Last IRQ Trigger Cycle: 0, Cycles Since Last IRQ: 3815
Emulated Cycles: 3815

8158: E8          INX
CPU State: PC:8159 A:EA X:C3 Y:00 SP:FD Status:A5 (NV-B DIZC)
RAM State: $00:00 $01:00 $02:00
Timing: Current Emulated Cycle: 3817, Last IRQ Trigger Cycle: 0, Cycles Since Last IRQ: 3817
Emulated Cycles: 3817

8159: D0 F8       BNE $8153
CPU State: PC:8153 A:EA X:C3 Y:00 SP:FD Status:A5 (NV-B DIZC)
RAM State: $00:00 $01:00 $02:00
Timing: Current Emulated Cycle: 3820, Last IRQ Trigger Cycle: 0, Cycles Since Last IRQ: 3820
Emulated Cycles: 3820

8153: A9 EA       LDA #$EA
CPU State: PC:8155 A:EA X:C3 Y:00 SP:FD Status:A5 (NV-B DIZC)
RAM State: $00:00 $01:00 $02:00
Timing: Current Emulated Cycle: 3822, Last IRQ Trigger Cycle: 0, Cycles Since Last IRQ: 3822
Emulated Cycles: 3822

8155: 9D 00 C1    STA $C100,X
CPU State: PC:8158 A:EA X:C3 Y:00 SP:FD Status:A5 (NV-B DIZC)
RAM State: $00:00 $01:00 $02:00
Timing: Current Emulated Cycle: 3827, Last IRQ Trigger Cycle: 0, Cycles Since Last IRQ: 3827
Emulated Cycles: 3827

8158: E8          INX
CPU State: PC:8159 A:EA X:C4 Y:00 SP:FD Status:A5 (NV-B DIZC)
RAM State: $00:00 $01:00 $02:00
Timing: Current Emulated Cycle: 3829, Last IRQ Trigger Cycle: 0, Cycles Since Last IRQ: 3829
Emulated Cycles: 3829

8159: D0 F8       BNE $8153
CPU State: PC:8153 A:EA X:C4 Y:00 SP:FD Status:A5 (NV-B DIZC)
RAM State: $00:00 $01:00 $02:00
Timing: Current Emulated Cycle: 3832, Last IRQ Trigger Cycle: 0, Cycles Since Last IRQ: 3832
Emulated Cycles: 3832

8153: A9 EA       LDA #$EA
CPU State: PC:8155 A:EA X:C4 Y:00 SP:FD Status:A5 (NV-B DIZC)
RAM State: $00:00 $01:00 $02:00
Timing: Current Emulated Cycle: 3834, Last IRQ Trigger Cycle: 0, Cycles Since Last IRQ: 3834
Emulated Cycles: 3834

8155: 9D 00 C1    STA $C100,X
CPU State: PC:8158 A:EA X:C4 Y:00 SP:FD Status:A5 (NV-B DIZC)
RAM State: $00:00 $01:00 $02:00
Timing: Current Emulated Cycle: 3839, Last IRQ Trigger Cycle: 0, Cycles Since Last IRQ: 3839
Emulated Cycles: 3839

8158: E8          INX
CPU State: PC:8159 A:EA X:C5 Y:00 SP:FD Status:A5 (NV-B DIZC)
RAM State: $00:00 $01:00 $02:00
Timing: Current Emulated Cycle: 3841, Last IRQ Trigger Cycle: 0, Cycles Since Last IRQ: 3841
Emulated Cycles: 3841

8159: D0 F8       BNE $8153
CPU State: PC:8153 A:EA X:C5 Y:00 SP:FD Status:A5 (NV-B DIZC)
RAM State: $00:00 $01:00 $02:00
Timing: Current Emulated Cycle: 3844, Last IRQ Trigger Cycle: 0, Cycles Since Last IRQ: 3844
Emulated Cycles: 3844

8153: A9 EA       LDA #$EA
CPU State: PC:8155 A:EA X:C5 Y:00 SP:FD Status:A5 (NV-B DIZC)
RAM State: $00:00 $01:00 $02:00
Timing: Current Emulated Cycle: 3846, Last IRQ Trigger Cycle: 0, Cycles Since Last IRQ: 3846
Emulated Cycles: 3846

8155: 9D 00 C1    STA $C100,X
CPU State: PC:8158 A:EA X:C5 Y:00 SP:FD Status:A5 (NV-B DIZC)
RAM State: $00:00 $01:00 $02:00
Timing: Current Emulated Cycle: 3851, Last IRQ Trigger Cycle: 0, Cycles Since Last IRQ: 3851
Emulated Cycles: 3851

8158: E8          INX
CPU State: PC:8159 A:EA X:C6 Y:00 SP:FD Status:A5 (NV-B DIZC)
RAM State: $00:00 $01:00 $02:00
Timing: Current Emulated Cycle: 3853, Last IRQ Trigger Cycle: 0, Cycles Since Last IRQ: 3853
Emulated Cycles: 3853

8159: D0 F8       BNE $8153
CPU State: PC:8153 A:EA X:C6 Y:00 SP:FD Status:A5 (NV-B DIZC)
RAM State: $00:00 $01:00 $02:00
Timing: Current Emulated Cycle: 3856, Last IRQ Trigger Cycle: 0, Cycles Since Last IRQ: 3856
Emulated Cycles: 3856

8153: A9 EA       LDA #$EA
CPU State: PC:8155 A:EA X:C6 Y:00 SP:FD Status:A5 (NV-B DIZC)
RAM State: $00:00 $01:00 $02:00
Timing: Current Emulated Cycle: 3858, Last IRQ Trigger Cycle: 0, Cycles Since Last IRQ: 3858
Emulated Cycles: 3858

8155: 9D 00 C1    STA $C100,X
CPU State: PC:8158 A:EA X:C6 Y:00 SP:FD Status:A5 (NV-B DIZC)
RAM State: $00:00 $01:00 $02:00
Timing: Current Emulated Cycle: 3863, Last IRQ Trigger Cycle: 0, Cycles Since Last IRQ: 3863
Emulated Cycles: 3863

8158: E8          INX
CPU State: PC:8159 A:EA X:C7 Y:00 SP:FD Status:A5 (NV-B DIZC)
RAM State: $00:00 $01:00 $02:00
Timing: Current Emulated Cycle: 3865, Last IRQ Trigger Cycle: 0, Cycles Since Last IRQ: 3865
Emulated Cycles: 3865

8159: D0 F8       BNE $8153
CPU State: PC:8153 A:EA X:C7 Y:00 SP:FD Status:A5 (NV-B DIZC)
RAM State: $00:00 $01:00 $02:00
Timing: Current Emulated Cycle: 3868, Last IRQ Trigger Cycle: 0, Cycles Since Last IRQ: 3868
Emulated Cycles: 3868

8153: A9 EA       LDA #$EA
CPU State: PC:8155 A:EA X:C7 Y:00 SP:FD Status:A5 (NV-B DIZC)
RAM State: $00:00 $01:00 $02:00
Timing: Current Emulated Cycle: 3870, Last IRQ Trigger Cycle: 0, Cycles Since Last IRQ: 3870
Emulated Cycles: 3870

8155: 9D 00 C1    STA $C100,X
CPU State: PC:8158 A:EA X:C7 Y:00 SP:FD Status:A5 (NV-B DIZC)
RAM State: $00:00 $01:00 $02:00
Timing: Current Emulated Cycle: 3875, Last IRQ Trigger Cycle: 0, Cycles Since Last IRQ: 3875
Emulated Cycles: 3875

8158: E8          INX
CPU State: PC:8159 A:EA X:C8 Y:00 SP:FD Status:A5 (NV-B DIZC)
RAM State: $00:00 $01:00 $02:00
Timing: Current Emulated Cycle: 3877, Last IRQ Trigger Cycle: 0, Cycles Since Last IRQ: 3877
Emulated Cycles: 3877

8159: D0 F8       BNE $8153
CPU State: PC:8153 A:EA X:C8 Y:00 SP:FD Status:A5 (NV-B DIZC)
RAM State: $00:00 $01:00 $02:00
Timing: Current Emulated Cycle: 3880, Last IRQ Trigger Cycle: 0, Cycles Since Last IRQ: 3880
Emulated Cycles: 3880

8153: A9 EA       LDA #$EA
CPU State: PC:8155 A:EA X:C8 Y:00 SP:FD Status:A5 (NV-B DIZC)
RAM State: $00:00 $01:00 $02:00
Timing: Current Emulated Cycle: 3882, Last IRQ Trigger Cycle: 0, Cycles Since Last IRQ: 3882
Emulated Cycles: 3882

8155: 9D 00 C1    STA $C100,X
CPU State: PC:8158 A:EA X:C8 Y:00 SP:FD Status:A5 (NV-B DIZC)
RAM State: $00:00 $01:00 $02:00
Timing: Current Emulated Cycle: 3887, Last IRQ Trigger Cycle: 0, Cycles Since Last IRQ: 3887
Emulated Cycles: 3887

8158: E8          INX
CPU State: PC:8159 A:EA X:C9 Y:00 SP:FD Status:A5 (NV-B DIZC)
RAM State: $00:00 $01:00 $02:00
Timing: Current Emulated Cycle: 3889, Last IRQ Trigger Cycle: 0, Cycles Since Last IRQ: 3889
Emulated Cycles: 3889

8159: D0 F8       BNE $8153
CPU State: PC:8153 A:EA X:C9 Y:00 SP:FD Status:A5 (NV-B DIZC)
RAM State: $00:00 $01:00 $02:00
Timing: Current Emulated Cycle: 3892, Last IRQ Trigger Cycle: 0, Cycles Since Last IRQ: 3892
Emulated Cycles: 3892

8153: A9 EA       LDA #$EA
CPU State: PC:8155 A:EA X:C9 Y:00 SP:FD Status:A5 (NV-B DIZC)
RAM State: $00:00 $01:00 $02:00
Timing: Current Emulated Cycle: 3894, Last IRQ Trigger Cycle: 0, Cycles Since Last IRQ: 3894
Emulated Cycles: 3894

8155: 9D 00 C1    STA $C100,X
CPU State: PC:8158 A:EA X:C9 Y:00 SP:FD Status:A5 (NV-B DIZC)
RAM State: $00:00 $01:00 $02:00
Timing: Current Emulated Cycle: 3899, Last IRQ Trigger Cycle: 0, Cycles Since Last IRQ: 3899
Emulated Cycles: 3899

8158: E8          INX
CPU State: PC:8159 A:EA X:CA Y:00 SP:FD Status:A5 (NV-B DIZC)
RAM State: $00:00 $01:00 $02:00
Timing: Current Emulated Cycle: 3901, Last IRQ Trigger Cycle: 0, Cycles Since Last IRQ: 3901
Emulated Cycles: 3901

8159: D0 F8       BNE $8153
CPU State: PC:8153 A:EA X:CA Y:00 SP:FD Status:A5 (NV-B DIZC)
RAM State: $00:00 $01:00 $02:00
Timing: Current Emulated Cycle: 3904, Last IRQ Trigger Cycle: 0, Cycles Since Last IRQ: 3904
Emulated Cycles: 3904

8153: A9 EA       LDA #$EA
CPU State: PC:8155 A:EA X:CA Y:00 SP:FD Status:A5 (NV-B DIZC)
RAM State: $00:00 $01:00 $02:00
Timing: Current Emulated Cycle: 3906, Last IRQ Trigger Cycle: 0, Cycles Since Last IRQ: 3906
Emulated Cycles: 3906

8155: 9D 00 C1    STA $C100,X
CPU State: PC:8158 A:EA X:CA Y:00 SP:FD Status:A5 (NV-B DIZC)
RAM State: $00:00 $01:00 $02:00
Timing: Current Emulated Cycle: 3911, Last IRQ Trigger Cycle: 0, Cycles Since Last IRQ: 3911
Emulated Cycles: 3911

8158: E8          INX
CPU State: PC:8159 A:EA X:CB Y:00 SP:FD Status:A5 (NV-B DIZC)
RAM State: $00:00 $01:00 $02:00
Timing: Current Emulated Cycle: 3913, Last IRQ Trigger Cycle: 0, Cycles Since Last IRQ: 3913
Emulated Cycles: 3913

8159: D0 F8       BNE $8153
CPU State: PC:8153 A:EA X:CB Y:00 SP:FD Status:A5 (NV-B DIZC)
RAM State: $00:00 $01:00 $02:00
Timing: Current Emulated Cycle: 3916, Last IRQ Trigger Cycle: 0, Cycles Since Last IRQ: 3916
Emulated Cycles: 3916

8153: A9 EA       LDA #$EA
CPU State: PC:8155 A:EA X:CB Y:00 SP:FD Status:A5 (NV-B DIZC)
RAM State: $00:00 $01:00 $02:00
Timing: Current Emulated Cycle: 3918, Last IRQ Trigger Cycle: 0, Cycles Since Last IRQ: 3918
Emulated Cycles: 3918

8155: 9D 00 C1    STA $C100,X
CPU State: PC:8158 A:EA X:CB Y:00 SP:FD Status:A5 (NV-B DIZC)
RAM State: $00:00 $01:00 $02:00
Timing: Current Emulated Cycle: 3923, Last IRQ Trigger Cycle: 0, Cycles Since Last IRQ: 3923
Emulated Cycles: 3923

8158: E8          INX
CPU State: PC:8159 A:EA X:CC Y:00 SP:FD Status:A5 (NV-B DIZC)
RAM State: $00:00 $01:00 $02:00
Timing: Current Emulated Cycle: 3925, Last IRQ Trigger Cycle: 0, Cycles Since Last IRQ: 3925
Emulated Cycles: 3925

8159: D0 F8       BNE $8153
CPU State: PC:8153 A:EA X:CC Y:00 SP:FD Status:A5 (NV-B DIZC)
RAM State: $00:00 $01:00 $02:00
Timing: Current Emulated Cycle: 3928, Last IRQ Trigger Cycle: 0, Cycles Since Last IRQ: 3928
Emulated Cycles: 3928

8153: A9 EA       LDA #$EA
CPU State: PC:8155 A:EA X:CC Y:00 SP:FD Status:A5 (NV-B DIZC)
RAM State: $00:00 $01:00 $02:00
Timing: Current Emulated Cycle: 3930, Last IRQ Trigger Cycle: 0, Cycles Since Last IRQ: 3930
Emulated Cycles: 3930

8155: 9D 00 C1    STA $C100,X
CPU State: PC:8158 A:EA X:CC Y:00 SP:FD Status:A5 (NV-B DIZC)
RAM State: $00:00 $01:00 $02:00
Timing: Current Emulated Cycle: 3935, Last IRQ Trigger Cycle: 0, Cycles Since Last IRQ: 3935
Emulated Cycles: 3935

8158: E8          INX
CPU State: PC:8159 A:EA X:CD Y:00 SP:FD Status:A5 (NV-B DIZC)
RAM State: $00:00 $01:00 $02:00
Timing: Current Emulated Cycle: 3937, Last IRQ Trigger Cycle: 0, Cycles Since Last IRQ: 3937
Emulated Cycles: 3937

8159: D0 F8       BNE $8153
CPU State: PC:8153 A:EA X:CD Y:00 SP:FD Status:A5 (NV-B DIZC)
RAM State: $00:00 $01:00 $02:00
Timing: Current Emulated Cycle: 3940, Last IRQ Trigger Cycle: 0, Cycles Since Last IRQ: 3940
Emulated Cycles: 3940

8153: A9 EA       LDA #$EA
CPU State: PC:8155 A:EA X:CD Y:00 SP:FD Status:A5 (NV-B DIZC)
RAM State: $00:00 $01:00 $02:00
Timing: Current Emulated Cycle: 3942, Last IRQ Trigger Cycle: 0, Cycles Since Last IRQ: 3942
Emulated Cycles: 3942

8155: 9D 00 C1    STA $C100,X
CPU State: PC:8158 A:EA X:CD Y:00 SP:FD Status:A5 (NV-B DIZC)
RAM State: $00:00 $01:00 $02:00
Timing: Current Emulated Cycle: 3947, Last IRQ Trigger Cycle: 0, Cycles Since Last IRQ: 3947
Emulated Cycles: 3947

8158: E8          INX
CPU State: PC:8159 A:EA X:CE Y:00 SP:FD Status:A5 (NV-B DIZC)
RAM State: $00:00 $01:00 $02:00
Timing: Current Emulated Cycle: 3949, Last IRQ Trigger Cycle: 0, Cycles Since Last IRQ: 3949
Emulated Cycles: 3949

8159: D0 F8       BNE $8153
CPU State: PC:8153 A:EA X:CE Y:00 SP:FD Status:A5 (NV-B DIZC)
RAM State: $00:00 $01:00 $02:00
Timing: Current Emulated Cycle: 3952, Last IRQ Trigger Cycle: 0, Cycles Since Last IRQ: 3952
Emulated Cycles: 3952

8153: A9 EA       LDA #$EA
CPU State: PC:8155 A:EA X:CE Y:00 SP:FD Status:A5 (NV-B DIZC)
RAM State: $00:00 $01:00 $02:00
Timing: Current Emulated Cycle: 3954, Last IRQ Trigger Cycle: 0, Cycles Since Last IRQ: 3954
Emulated Cycles: 3954

8155: 9D 00 C1    STA $C100,X
CPU State: PC:8158 A:EA X:CE Y:00 SP:FD Status:A5 (NV-B DIZC)
RAM State: $00:00 $01:00 $02:00
Timing: Current Emulated Cycle: 3959, Last IRQ Trigger Cycle: 0, Cycles Since Last IRQ: 3959
Emulated Cycles: 3959

8158: E8          INX
CPU State: PC:8159 A:EA X:CF Y:00 SP:FD Status:A5 (NV-B DIZC)
RAM State: $00:00 $01:00 $02:00
Timing: Current Emulated Cycle: 3961, Last IRQ Trigger Cycle: 0, Cycles Since Last IRQ: 3961
Emulated Cycles: 3961

8159: D0 F8       BNE $8153
CPU State: PC:8153 A:EA X:CF Y:00 SP:FD Status:A5 (NV-B DIZC)
RAM State: $00:00 $01:00 $02:00
Timing: Current Emulated Cycle: 3964, Last IRQ Trigger Cycle: 0, Cycles Since Last IRQ: 3964
Emulated Cycles: 3964

8153: A9 EA       LDA #$EA
CPU State: PC:8155 A:EA X:CF Y:00 SP:FD Status:A5 (NV-B DIZC)
RAM State: $00:00 $01:00 $02:00
Timing: Current Emulated Cycle: 3966, Last IRQ Trigger Cycle: 0, Cycles Since Last IRQ: 3966
Emulated Cycles: 3966

8155: 9D 00 C1    STA $C100,X
CPU State: PC:8158 A:EA X:CF Y:00 SP:FD Status:A5 (NV-B DIZC)
RAM State: $00:00 $01:00 $02:00
Timing: Current Emulated Cycle: 3971, Last IRQ Trigger Cycle: 0, Cycles Since Last IRQ: 3971
Emulated Cycles: 3971

8158: E8          INX
CPU State: PC:8159 A:EA X:D0 Y:00 SP:FD Status:A5 (NV-B DIZC)
RAM State: $00:00 $01:00 $02:00
Timing: Current Emulated Cycle: 3973, Last IRQ Trigger Cycle: 0, Cycles Since Last IRQ: 3973
Emulated Cycles: 3973

8159: D0 F8       BNE $8153
CPU State: PC:8153 A:EA X:D0 Y:00 SP:FD Status:A5 (NV-B DIZC)
RAM State: $00:00 $01:00 $02:00
Timing: Current Emulated Cycle: 3976, Last IRQ Trigger Cycle: 0, Cycles Since Last IRQ: 3976
Emulated Cycles: 3976

8153: A9 EA       LDA #$EA
CPU State: PC:8155 A:EA X:D0 Y:00 SP:FD Status:A5 (NV-B DIZC)
RAM State: $00:00 $01:00 $02:00
Timing: Current Emulated Cycle: 3978, Last IRQ Trigger Cycle: 0, Cycles Since Last IRQ: 3978
Emulated Cycles: 3978

8155: 9D 00 C1    STA $C100,X
CPU State: PC:8158 A:EA X:D0 Y:00 SP:FD Status:A5 (NV-B DIZC)
RAM State: $00:00 $01:00 $02:00
Timing: Current Emulated Cycle: 3983, Last IRQ Trigger Cycle: 0, Cycles Since Last IRQ: 3983
Emulated Cycles: 3983

8158: E8          INX
CPU State: PC:8159 A:EA X:D1 Y:00 SP:FD Status:A5 (NV-B DIZC)
RAM State: $00:00 $01:00 $02:00
Timing: Current Emulated Cycle: 3985, Last IRQ Trigger Cycle: 0, Cycles Since Last IRQ: 3985
Emulated Cycles: 3985

8159: D0 F8       BNE $8153
CPU State: PC:8153 A:EA X:D1 Y:00 SP:FD Status:A5 (NV-B DIZC)
RAM State: $00:00 $01:00 $02:00
Timing: Current Emulated Cycle: 3988, Last IRQ Trigger Cycle: 0, Cycles Since Last IRQ: 3988
Emulated Cycles: 3988

8153: A9 EA       LDA #$EA
CPU State: PC:8155 A:EA X:D1 Y:00 SP:FD Status:A5 (NV-B DIZC)
RAM State: $00:00 $01:00 $02:00
Timing: Current Emulated Cycle: 3990, Last IRQ Trigger Cycle: 0, Cycles Since Last IRQ: 3990
Emulated Cycles: 3990

8155: 9D 00 C1    STA $C100,X
CPU State: PC:8158 A:EA X:D1 Y:00 SP:FD Status:A5 (NV-B DIZC)
RAM State: $00:00 $01:00 $02:00
Timing: Current Emulated Cycle: 3995, Last IRQ Trigger Cycle: 0, Cycles Since Last IRQ: 3995
Emulated Cycles: 3995

8158: E8          INX
CPU State: PC:8159 A:EA X:D2 Y:00 SP:FD Status:A5 (NV-B DIZC)
RAM State: $00:00 $01:00 $02:00
Timing: Current Emulated Cycle: 3997, Last IRQ Trigger Cycle: 0, Cycles Since Last IRQ: 3997
Emulated Cycles: 3997

8159: D0 F8       BNE $8153
CPU State: PC:8153 A:EA X:D2 Y:00 SP:FD Status:A5 (NV-B DIZC)
RAM State: $00:00 $01:00 $02:00
Timing: Current Emulated Cycle: 4000, Last IRQ Trigger Cycle: 0, Cycles Since Last IRQ: 4000
Emulated Cycles: 4000

8153: A9 EA       LDA #$EA
CPU State: PC:8155 A:EA X:D2 Y:00 SP:FD Status:A5 (NV-B DIZC)
RAM State: $00:00 $01:00 $02:00
Timing: Current Emulated Cycle: 4002, Last IRQ Trigger Cycle: 0, Cycles Since Last IRQ: 4002
Emulated Cycles: 4002

8155: 9D 00 C1    STA $C100,X
CPU State: PC:8158 A:EA X:D2 Y:00 SP:FD Status:A5 (NV-B DIZC)
RAM State: $00:00 $01:00 $02:00
Timing: Current Emulated Cycle: 4007, Last IRQ Trigger Cycle: 0, Cycles Since Last IRQ: 4007
Emulated Cycles: 4007

8158: E8          INX
CPU State: PC:8159 A:EA X:D3 Y:00 SP:FD Status:A5 (NV-B DIZC)
RAM State: $00:00 $01:00 $02:00
Timing: Current Emulated Cycle: 4009, Last IRQ Trigger Cycle: 0, Cycles Since Last IRQ: 4009
Emulated Cycles: 4009

8159: D0 F8       BNE $8153
CPU State: PC:8153 A:EA X:D3 Y:00 SP:FD Status:A5 (NV-B DIZC)
RAM State: $00:00 $01:00 $02:00
Timing: Current Emulated Cycle: 4012, Last IRQ Trigger Cycle: 0, Cycles Since Last IRQ: 4012
Emulated Cycles: 4012

8153: A9 EA       LDA #$EA
CPU State: PC:8155 A:EA X:D3 Y:00 SP:FD Status:A5 (NV-B DIZC)
RAM State: $00:00 $01:00 $02:00
Timing: Current Emulated Cycle: 4014, Last IRQ Trigger Cycle: 0, Cycles Since Last IRQ: 4014
Emulated Cycles: 4014

8155: 9D 00 C1    STA $C100,X
CPU State: PC:8158 A:EA X:D3 Y:00 SP:FD Status:A5 (NV-B DIZC)
RAM State: $00:00 $01:00 $02:00
Timing: Current Emulated Cycle: 4019, Last IRQ Trigger Cycle: 0, Cycles Since Last IRQ: 4019
Emulated Cycles: 4019

8158: E8          INX
CPU State: PC:8159 A:EA X:D4 Y:00 SP:FD Status:A5 (NV-B DIZC)
RAM State: $00:00 $01:00 $02:00
Timing: Current Emulated Cycle: 4021, Last IRQ Trigger Cycle: 0, Cycles Since Last IRQ: 4021
Emulated Cycles: 4021

8159: D0 F8       BNE $8153
CPU State: PC:8153 A:EA X:D4 Y:00 SP:FD Status:A5 (NV-B DIZC)
RAM State: $00:00 $01:00 $02:00
Timing: Current Emulated Cycle: 4024, Last IRQ Trigger Cycle: 0, Cycles Since Last IRQ: 4024
Emulated Cycles: 4024

8153: A9 EA       LDA #$EA
CPU State: PC:8155 A:EA X:D4 Y:00 SP:FD Status:A5 (NV-B DIZC)
RAM State: $00:00 $01:00 $02:00
Timing: Current Emulated Cycle: 4026, Last IRQ Trigger Cycle: 0, Cycles Since Last IRQ: 4026
Emulated Cycles: 4026

8155: 9D 00 C1    STA $C100,X
CPU State: PC:8158 A:EA X:D4 Y:00 SP:FD Status:A5 (NV-B DIZC)
RAM State: $00:00 $01:00 $02:00
Timing: Current Emulated Cycle: 4031, Last IRQ Trigger Cycle: 0, Cycles Since Last IRQ: 4031
Emulated Cycles: 4031

8158: E8          INX
CPU State: PC:8159 A:EA X:D5 Y:00 SP:FD Status:A5 (NV-B DIZC)
RAM State: $00:00 $01:00 $02:00
Timing: Current Emulated Cycle: 4033, Last IRQ Trigger Cycle: 0, Cycles Since Last IRQ: 4033
Emulated Cycles: 4033

8159: D0 F8       BNE $8153
CPU State: PC:8153 A:EA X:D5 Y:00 SP:FD Status:A5 (NV-B DIZC)
RAM State: $00:00 $01:00 $02:00
Timing: Current Emulated Cycle: 4036, Last IRQ Trigger Cycle: 0, Cycles Since Last IRQ: 4036
Emulated Cycles: 4036

8153: A9 EA       LDA #$EA
CPU State: PC:8155 A:EA X:D5 Y:00 SP:FD Status:A5 (NV-B DIZC)
RAM State: $00:00 $01:00 $02:00
Timing: Current Emulated Cycle: 4038, Last IRQ Trigger Cycle: 0, Cycles Since Last IRQ: 4038
Emulated Cycles: 4038

8155: 9D 00 C1    STA $C100,X
CPU State: PC:8158 A:EA X:D5 Y:00 SP:FD Status:A5 (NV-B DIZC)
RAM State: $00:00 $01:00 $02:00
Timing: Current Emulated Cycle: 4043, Last IRQ Trigger Cycle: 0, Cycles Since Last IRQ: 4043
Emulated Cycles: 4043

8158: E8          INX
CPU State: PC:8159 A:EA X:D6 Y:00 SP:FD Status:A5 (NV-B DIZC)
RAM State: $00:00 $01:00 $02:00
Timing: Current Emulated Cycle: 4045, Last IRQ Trigger Cycle: 0, Cycles Since Last IRQ: 4045
Emulated Cycles: 4045

8159: D0 F8       BNE $8153
CPU State: PC:8153 A:EA X:D6 Y:00 SP:FD Status:A5 (NV-B DIZC)
RAM State: $00:00 $01:00 $02:00
Timing: Current Emulated Cycle: 4048, Last IRQ Trigger Cycle: 0, Cycles Since Last IRQ: 4048
Emulated Cycles: 4048

8153: A9 EA       LDA #$EA
CPU State: PC:8155 A:EA X:D6 Y:00 SP:FD Status:A5 (NV-B DIZC)
RAM State: $00:00 $01:00 $02:00
Timing: Current Emulated Cycle: 4050, Last IRQ Trigger Cycle: 0, Cycles Since Last IRQ: 4050
Emulated Cycles: 4050

8155: 9D 00 C1    STA $C100,X
CPU State: PC:8158 A:EA X:D6 Y:00 SP:FD Status:A5 (NV-B DIZC)
RAM State: $00:00 $01:00 $02:00
Timing: Current Emulated Cycle: 4055, Last IRQ Trigger Cycle: 0, Cycles Since Last IRQ: 4055
Emulated Cycles: 4055

8158: E8          INX
CPU State: PC:8159 A:EA X:D7 Y:00 SP:FD Status:A5 (NV-B DIZC)
RAM State: $00:00 $01:00 $02:00
Timing: Current Emulated Cycle: 4057, Last IRQ Trigger Cycle: 0, Cycles Since Last IRQ: 4057
Emulated Cycles: 4057

8159: D0 F8       BNE $8153
CPU State: PC:8153 A:EA X:D7 Y:00 SP:FD Status:A5 (NV-B DIZC)
RAM State: $00:00 $01:00 $02:00
Timing: Current Emulated Cycle: 4060, Last IRQ Trigger Cycle: 0, Cycles Since Last IRQ: 4060
Emulated Cycles: 4060

8153: A9 EA       LDA #$EA
CPU State: PC:8155 A:EA X:D7 Y:00 SP:FD Status:A5 (NV-B DIZC)
RAM State: $00:00 $01:00 $02:00
Timing: Current Emulated Cycle: 4062, Last IRQ Trigger Cycle: 0, Cycles Since Last IRQ: 4062
Emulated Cycles: 4062

8155: 9D 00 C1    STA $C100,X
CPU State: PC:8158 A:EA X:D7 Y:00 SP:FD Status:A5 (NV-B DIZC)
RAM State: $00:00 $01:00 $02:00
Timing: Current Emulated Cycle: 4067, Last IRQ Trigger Cycle: 0, Cycles Since Last IRQ: 4067
Emulated Cycles: 4067

8158: E8          INX
CPU State: PC:8159 A:EA X:D8 Y:00 SP:FD Status:A5 (NV-B DIZC)
RAM State: $00:00 $01:00 $02:00
Timing: Current Emulated Cycle: 4069, Last IRQ Trigger Cycle: 0, Cycles Since Last IRQ: 4069
Emulated Cycles: 4069

8159: D0 F8       BNE $8153
CPU State: PC:8153 A:EA X:D8 Y:00 SP:FD Status:A5 (NV-B DIZC)
RAM State: $00:00 $01:00 $02:00
Timing: Current Emulated Cycle: 4072, Last IRQ Trigger Cycle: 0, Cycles Since Last IRQ: 4072
Emulated Cycles: 4072

8153: A9 EA       LDA #$EA
CPU State: PC:8155 A:EA X:D8 Y:00 SP:FD Status:A5 (NV-B DIZC)
RAM State: $00:00 $01:00 $02:00
Timing: Current Emulated Cycle: 4074, Last IRQ Trigger Cycle: 0, Cycles Since Last IRQ: 4074
Emulated Cycles: 4074

8155: 9D 00 C1    STA $C100,X
CPU State: PC:8158 A:EA X:D8 Y:00 SP:FD Status:A5 (NV-B DIZC)
RAM State: $00:00 $01:00 $02:00
Timing: Current Emulated Cycle: 4079, Last IRQ Trigger Cycle: 0, Cycles Since Last IRQ: 4079
Emulated Cycles: 4079

8158: E8          INX
CPU State: PC:8159 A:EA X:D9 Y:00 SP:FD Status:A5 (NV-B DIZC)
RAM State: $00:00 $01:00 $02:00
Timing: Current Emulated Cycle: 4081, Last IRQ Trigger Cycle: 0, Cycles Since Last IRQ: 4081
Emulated Cycles: 4081

8159: D0 F8       BNE $8153
CPU State: PC:8153 A:EA X:D9 Y:00 SP:FD Status:A5 (NV-B DIZC)
RAM State: $00:00 $01:00 $02:00
Timing: Current Emulated Cycle: 4084, Last IRQ Trigger Cycle: 0, Cycles Since Last IRQ: 4084
Emulated Cycles: 4084

8153: A9 EA       LDA #$EA
CPU State: PC:8155 A:EA X:D9 Y:00 SP:FD Status:A5 (NV-B DIZC)
RAM State: $00:00 $01:00 $02:00
Timing: Current Emulated Cycle: 4086, Last IRQ Trigger Cycle: 0, Cycles Since Last IRQ: 4086
Emulated Cycles: 4086

8155: 9D 00 C1    STA $C100,X
CPU State: PC:8158 A:EA X:D9 Y:00 SP:FD Status:A5 (NV-B DIZC)
RAM State: $00:00 $01:00 $02:00
Timing: Current Emulated Cycle: 4091, Last IRQ Trigger Cycle: 0, Cycles Since Last IRQ: 4091
Emulated Cycles: 4091

8158: E8          INX
CPU State: PC:8159 A:EA X:DA Y:00 SP:FD Status:A5 (NV-B DIZC)
RAM State: $00:00 $01:00 $02:00
Timing: Current Emulated Cycle: 4093, Last IRQ Trigger Cycle: 0, Cycles Since Last IRQ: 4093
Emulated Cycles: 4093

8159: D0 F8       BNE $8153
CPU State: PC:8153 A:EA X:DA Y:00 SP:FD Status:A5 (NV-B DIZC)
RAM State: $00:00 $01:00 $02:00
Timing: Current Emulated Cycle: 4096, Last IRQ Trigger Cycle: 0, Cycles Since Last IRQ: 4096
Emulated Cycles: 4096

8153: A9 EA       LDA #$EA
CPU State: PC:8155 A:EA X:DA Y:00 SP:FD Status:A5 (NV-B DIZC)
RAM State: $00:00 $01:00 $02:00
Timing: Current Emulated Cycle: 4098, Last IRQ Trigger Cycle: 0, Cycles Since Last IRQ: 4098
Emulated Cycles: 4098

8155: 9D 00 C1    STA $C100,X
CPU State: PC:8158 A:EA X:DA Y:00 SP:FD Status:A5 (NV-B DIZC)
RAM State: $00:00 $01:00 $02:00
Timing: Current Emulated Cycle: 4103, Last IRQ Trigger Cycle: 0, Cycles Since Last IRQ: 4103
Emulated Cycles: 4103

8158: E8          INX
CPU State: PC:8159 A:EA X:DB Y:00 SP:FD Status:A5 (NV-B DIZC)
RAM State: $00:00 $01:00 $02:00
Timing: Current Emulated Cycle: 4105, Last IRQ Trigger Cycle: 0, Cycles Since Last IRQ: 4105
Emulated Cycles: 4105

8159: D0 F8       BNE $8153
CPU State: PC:8153 A:EA X:DB Y:00 SP:FD Status:A5 (NV-B DIZC)
RAM State: $00:00 $01:00 $02:00
Timing: Current Emulated Cycle: 4108, Last IRQ Trigger Cycle: 0, Cycles Since Last IRQ: 4108
Emulated Cycles: 4108

8153: A9 EA       LDA #$EA
CPU State: PC:8155 A:EA X:DB Y:00 SP:FD Status:A5 (NV-B DIZC)
RAM State: $00:00 $01:00 $02:00
Timing: Current Emulated Cycle: 4110, Last IRQ Trigger Cycle: 0, Cycles Since Last IRQ: 4110
Emulated Cycles: 4110

8155: 9D 00 C1    STA $C100,X
CPU State: PC:8158 A:EA X:DB Y:00 SP:FD Status:A5 (NV-B DIZC)
RAM State: $00:00 $01:00 $02:00
Timing: Current Emulated Cycle: 4115, Last IRQ Trigger Cycle: 0, Cycles Since Last IRQ: 4115
Emulated Cycles: 4115

8158: E8          INX
CPU State: PC:8159 A:EA X:DC Y:00 SP:FD Status:A5 (NV-B DIZC)
RAM State: $00:00 $01:00 $02:00
Timing: Current Emulated Cycle: 4117, Last IRQ Trigger Cycle: 0, Cycles Since Last IRQ: 4117
Emulated Cycles: 4117

8159: D0 F8       BNE $8153
CPU State: PC:8153 A:EA X:DC Y:00 SP:FD Status:A5 (NV-B DIZC)
RAM State: $00:00 $01:00 $02:00
Timing: Current Emulated Cycle: 4120, Last IRQ Trigger Cycle: 0, Cycles Since Last IRQ: 4120
Emulated Cycles: 4120

8153: A9 EA       LDA #$EA
CPU State: PC:8155 A:EA X:DC Y:00 SP:FD Status:A5 (NV-B DIZC)
RAM State: $00:00 $01:00 $02:00
Timing: Current Emulated Cycle: 4122, Last IRQ Trigger Cycle: 0, Cycles Since Last IRQ: 4122
Emulated Cycles: 4122

8155: 9D 00 C1    STA $C100,X
CPU State: PC:8158 A:EA X:DC Y:00 SP:FD Status:A5 (NV-B DIZC)
RAM State: $00:00 $01:00 $02:00
Timing: Current Emulated Cycle: 4127, Last IRQ Trigger Cycle: 0, Cycles Since Last IRQ: 4127
Emulated Cycles: 4127

8158: E8          INX
CPU State: PC:8159 A:EA X:DD Y:00 SP:FD Status:A5 (NV-B DIZC)
RAM State: $00:00 $01:00 $02:00
Timing: Current Emulated Cycle: 4129, Last IRQ Trigger Cycle: 0, Cycles Since Last IRQ: 4129
Emulated Cycles: 4129

8159: D0 F8       BNE $8153
CPU State: PC:8153 A:EA X:DD Y:00 SP:FD Status:A5 (NV-B DIZC)
RAM State: $00:00 $01:00 $02:00
Timing: Current Emulated Cycle: 4132, Last IRQ Trigger Cycle: 0, Cycles Since Last IRQ: 4132
Emulated Cycles: 4132

8153: A9 EA       LDA #$EA
CPU State: PC:8155 A:EA X:DD Y:00 SP:FD Status:A5 (NV-B DIZC)
RAM State: $00:00 $01:00 $02:00
Timing: Current Emulated Cycle: 4134, Last IRQ Trigger Cycle: 0, Cycles Since Last IRQ: 4134
Emulated Cycles: 4134

8155: 9D 00 C1    STA $C100,X
CPU State: PC:8158 A:EA X:DD Y:00 SP:FD Status:A5 (NV-B DIZC)
RAM State: $00:00 $01:00 $02:00
Timing: Current Emulated Cycle: 4139, Last IRQ Trigger Cycle: 0, Cycles Since Last IRQ: 4139
Emulated Cycles: 4139

8158: E8          INX
CPU State: PC:8159 A:EA X:DE Y:00 SP:FD Status:A5 (NV-B DIZC)
RAM State: $00:00 $01:00 $02:00
Timing: Current Emulated Cycle: 4141, Last IRQ Trigger Cycle: 0, Cycles Since Last IRQ: 4141
Emulated Cycles: 4141

8159: D0 F8       BNE $8153
CPU State: PC:8153 A:EA X:DE Y:00 SP:FD Status:A5 (NV-B DIZC)
RAM State: $00:00 $01:00 $02:00
Timing: Current Emulated Cycle: 4144, Last IRQ Trigger Cycle: 0, Cycles Since Last IRQ: 4144
Emulated Cycles: 4144

8153: A9 EA       LDA #$EA
CPU State: PC:8155 A:EA X:DE Y:00 SP:FD Status:A5 (NV-B DIZC)
RAM State: $00:00 $01:00 $02:00
Timing: Current Emulated Cycle: 4146, Last IRQ Trigger Cycle: 0, Cycles Since Last IRQ: 4146
Emulated Cycles: 4146

8155: 9D 00 C1    STA $C100,X
CPU State: PC:8158 A:EA X:DE Y:00 SP:FD Status:A5 (NV-B DIZC)
RAM State: $00:00 $01:00 $02:00
Timing: Current Emulated Cycle: 4151, Last IRQ Trigger Cycle: 0, Cycles Since Last IRQ: 4151
Emulated Cycles: 4151

8158: E8          INX
CPU State: PC:8159 A:EA X:DF Y:00 SP:FD Status:A5 (NV-B DIZC)
RAM State: $00:00 $01:00 $02:00
Timing: Current Emulated Cycle: 4153, Last IRQ Trigger Cycle: 0, Cycles Since Last IRQ: 4153
Emulated Cycles: 4153

8159: D0 F8       BNE $8153
CPU State: PC:8153 A:EA X:DF Y:00 SP:FD Status:A5 (NV-B DIZC)
RAM State: $00:00 $01:00 $02:00
Timing: Current Emulated Cycle: 4156, Last IRQ Trigger Cycle: 0, Cycles Since Last IRQ: 4156
Emulated Cycles: 4156

8153: A9 EA       LDA #$EA
CPU State: PC:8155 A:EA X:DF Y:00 SP:FD Status:A5 (NV-B DIZC)
RAM State: $00:00 $01:00 $02:00
Timing: Current Emulated Cycle: 4158, Last IRQ Trigger Cycle: 0, Cycles Since Last IRQ: 4158
Emulated Cycles: 4158

8155: 9D 00 C1    STA $C100,X
CPU State: PC:8158 A:EA X:DF Y:00 SP:FD Status:A5 (NV-B DIZC)
RAM State: $00:00 $01:00 $02:00
Timing: Current Emulated Cycle: 4163, Last IRQ Trigger Cycle: 0, Cycles Since Last IRQ: 4163
Emulated Cycles: 4163

8158: E8          INX
CPU State: PC:8159 A:EA X:E0 Y:00 SP:FD Status:A5 (NV-B DIZC)
RAM State: $00:00 $01:00 $02:00
Timing: Current Emulated Cycle: 4165, Last IRQ Trigger Cycle: 0, Cycles Since Last IRQ: 4165
Emulated Cycles: 4165

8159: D0 F8       BNE $8153
CPU State: PC:8153 A:EA X:E0 Y:00 SP:FD Status:A5 (NV-B DIZC)
RAM State: $00:00 $01:00 $02:00
Timing: Current Emulated Cycle: 4168, Last IRQ Trigger Cycle: 0, Cycles Since Last IRQ: 4168
Emulated Cycles: 4168

8153: A9 EA       LDA #$EA
CPU State: PC:8155 A:EA X:E0 Y:00 SP:FD Status:A5 (NV-B DIZC)
RAM State: $00:00 $01:00 $02:00
Timing: Current Emulated Cycle: 4170, Last IRQ Trigger Cycle: 0, Cycles Since Last IRQ: 4170
Emulated Cycles: 4170

8155: 9D 00 C1    STA $C100,X
CPU State: PC:8158 A:EA X:E0 Y:00 SP:FD Status:A5 (NV-B DIZC)
RAM State: $00:00 $01:00 $02:00
Timing: Current Emulated Cycle: 4175, Last IRQ Trigger Cycle: 0, Cycles Since Last IRQ: 4175
Emulated Cycles: 4175

8158: E8          INX
CPU State: PC:8159 A:EA X:E1 Y:00 SP:FD Status:A5 (NV-B DIZC)
RAM State: $00:00 $01:00 $02:00
Timing: Current Emulated Cycle: 4177, Last IRQ Trigger Cycle: 0, Cycles Since Last IRQ: 4177
Emulated Cycles: 4177

8159: D0 F8       BNE $8153
CPU State: PC:8153 A:EA X:E1 Y:00 SP:FD Status:A5 (NV-B DIZC)
RAM State: $00:00 $01:00 $02:00
Timing: Current Emulated Cycle: 4180, Last IRQ Trigger Cycle: 0, Cycles Since Last IRQ: 4180
Emulated Cycles: 4180

8153: A9 EA       LDA #$EA
CPU State: PC:8155 A:EA X:E1 Y:00 SP:FD Status:A5 (NV-B DIZC)
RAM State: $00:00 $01:00 $02:00
Timing: Current Emulated Cycle: 4182, Last IRQ Trigger Cycle: 0, Cycles Since Last IRQ: 4182
Emulated Cycles: 4182

8155: 9D 00 C1    STA $C100,X
CPU State: PC:8158 A:EA X:E1 Y:00 SP:FD Status:A5 (NV-B DIZC)
RAM State: $00:00 $01:00 $02:00
Timing: Current Emulated Cycle: 4187, Last IRQ Trigger Cycle: 0, Cycles Since Last IRQ: 4187
Emulated Cycles: 4187

8158: E8          INX
CPU State: PC:8159 A:EA X:E2 Y:00 SP:FD Status:A5 (NV-B DIZC)
RAM State: $00:00 $01:00 $02:00
Timing: Current Emulated Cycle: 4189, Last IRQ Trigger Cycle: 0, Cycles Since Last IRQ: 4189
Emulated Cycles: 4189

8159: D0 F8       BNE $8153
CPU State: PC:8153 A:EA X:E2 Y:00 SP:FD Status:A5 (NV-B DIZC)
RAM State: $00:00 $01:00 $02:00
Timing: Current Emulated Cycle: 4192, Last IRQ Trigger Cycle: 0, Cycles Since Last IRQ: 4192
Emulated Cycles: 4192

8153: A9 EA       LDA #$EA
CPU State: PC:8155 A:EA X:E2 Y:00 SP:FD Status:A5 (NV-B DIZC)
RAM State: $00:00 $01:00 $02:00
Timing: Current Emulated Cycle: 4194, Last IRQ Trigger Cycle: 0, Cycles Since Last IRQ: 4194
Emulated Cycles: 4194

8155: 9D 00 C1    STA $C100,X
CPU State: PC:8158 A:EA X:E2 Y:00 SP:FD Status:A5 (NV-B DIZC)
RAM State: $00:00 $01:00 $02:00
Timing: Current Emulated Cycle: 4199, Last IRQ Trigger Cycle: 0, Cycles Since Last IRQ: 4199
Emulated Cycles: 4199

8158: E8          INX
CPU State: PC:8159 A:EA X:E3 Y:00 SP:FD Status:A5 (NV-B DIZC)
RAM State: $00:00 $01:00 $02:00
Timing: Current Emulated Cycle: 4201, Last IRQ Trigger Cycle: 0, Cycles Since Last IRQ: 4201
Emulated Cycles: 4201

8159: D0 F8       BNE $8153
CPU State: PC:8153 A:EA X:E3 Y:00 SP:FD Status:A5 (NV-B DIZC)
RAM State: $00:00 $01:00 $02:00
Timing: Current Emulated Cycle: 4204, Last IRQ Trigger Cycle: 0, Cycles Since Last IRQ: 4204
Emulated Cycles: 4204

8153: A9 EA       LDA #$EA
CPU State: PC:8155 A:EA X:E3 Y:00 SP:FD Status:A5 (NV-B DIZC)
RAM State: $00:00 $01:00 $02:00
Timing: Current Emulated Cycle: 4206, Last IRQ Trigger Cycle: 0, Cycles Since Last IRQ: 4206
Emulated Cycles: 4206

8155: 9D 00 C1    STA $C100,X
CPU State: PC:8158 A:EA X:E3 Y:00 SP:FD Status:A5 (NV-B DIZC)
RAM State: $00:00 $01:00 $02:00
Timing: Current Emulated Cycle: 4211, Last IRQ Trigger Cycle: 0, Cycles Since Last IRQ: 4211
Emulated Cycles: 4211

8158: E8          INX
CPU State: PC:8159 A:EA X:E4 Y:00 SP:FD Status:A5 (NV-B DIZC)
RAM State: $00:00 $01:00 $02:00
Timing: Current Emulated Cycle: 4213, Last IRQ Trigger Cycle: 0, Cycles Since Last IRQ: 4213
Emulated Cycles: 4213

8159: D0 F8       BNE $8153
CPU State: PC:8153 A:EA X:E4 Y:00 SP:FD Status:A5 (NV-B DIZC)
RAM State: $00:00 $01:00 $02:00
Timing: Current Emulated Cycle: 4216, Last IRQ Trigger Cycle: 0, Cycles Since Last IRQ: 4216
Emulated Cycles: 4216

8153: A9 EA       LDA #$EA
CPU State: PC:8155 A:EA X:E4 Y:00 SP:FD Status:A5 (NV-B DIZC)
RAM State: $00:00 $01:00 $02:00
Timing: Current Emulated Cycle: 4218, Last IRQ Trigger Cycle: 0, Cycles Since Last IRQ: 4218
Emulated Cycles: 4218

8155: 9D 00 C1    STA $C100,X
CPU State: PC:8158 A:EA X:E4 Y:00 SP:FD Status:A5 (NV-B DIZC)
RAM State: $00:00 $01:00 $02:00
Timing: Current Emulated Cycle: 4223, Last IRQ Trigger Cycle: 0, Cycles Since Last IRQ: 4223
Emulated Cycles: 4223

8158: E8          INX
CPU State: PC:8159 A:EA X:E5 Y:00 SP:FD Status:A5 (NV-B DIZC)
RAM State: $00:00 $01:00 $02:00
Timing: Current Emulated Cycle: 4225, Last IRQ Trigger Cycle: 0, Cycles Since Last IRQ: 4225
Emulated Cycles: 4225

8159: D0 F8       BNE $8153
CPU State: PC:8153 A:EA X:E5 Y:00 SP:FD Status:A5 (NV-B DIZC)
RAM State: $00:00 $01:00 $02:00
Timing: Current Emulated Cycle: 4228, Last IRQ Trigger Cycle: 0, Cycles Since Last IRQ: 4228
Emulated Cycles: 4228

8153: A9 EA       LDA #$EA
CPU State: PC:8155 A:EA X:E5 Y:00 SP:FD Status:A5 (NV-B DIZC)
RAM State: $00:00 $01:00 $02:00
Timing: Current Emulated Cycle: 4230, Last IRQ Trigger Cycle: 0, Cycles Since Last IRQ: 4230
Emulated Cycles: 4230

8155: 9D 00 C1    STA $C100,X
CPU State: PC:8158 A:EA X:E5 Y:00 SP:FD Status:A5 (NV-B DIZC)
RAM State: $00:00 $01:00 $02:00
Timing: Current Emulated Cycle: 4235, Last IRQ Trigger Cycle: 0, Cycles Since Last IRQ: 4235
Emulated Cycles: 4235

8158: E8          INX
CPU State: PC:8159 A:EA X:E6 Y:00 SP:FD Status:A5 (NV-B DIZC)
RAM State: $00:00 $01:00 $02:00
Timing: Current Emulated Cycle: 4237, Last IRQ Trigger Cycle: 0, Cycles Since Last IRQ: 4237
Emulated Cycles: 4237

8159: D0 F8       BNE $8153
CPU State: PC:8153 A:EA X:E6 Y:00 SP:FD Status:A5 (NV-B DIZC)
RAM State: $00:00 $01:00 $02:00
Timing: Current Emulated Cycle: 4240, Last IRQ Trigger Cycle: 0, Cycles Since Last IRQ: 4240
Emulated Cycles: 4240

8153: A9 EA       LDA #$EA
CPU State: PC:8155 A:EA X:E6 Y:00 SP:FD Status:A5 (NV-B DIZC)
RAM State: $00:00 $01:00 $02:00
Timing: Current Emulated Cycle: 4242, Last IRQ Trigger Cycle: 0, Cycles Since Last IRQ: 4242
Emulated Cycles: 4242

8155: 9D 00 C1    STA $C100,X
CPU State: PC:8158 A:EA X:E6 Y:00 SP:FD Status:A5 (NV-B DIZC)
RAM State: $00:00 $01:00 $02:00
Timing: Current Emulated Cycle: 4247, Last IRQ Trigger Cycle: 0, Cycles Since Last IRQ: 4247
Emulated Cycles: 4247

8158: E8          INX
CPU State: PC:8159 A:EA X:E7 Y:00 SP:FD Status:A5 (NV-B DIZC)
RAM State: $00:00 $01:00 $02:00
Timing: Current Emulated Cycle: 4249, Last IRQ Trigger Cycle: 0, Cycles Since Last IRQ: 4249
Emulated Cycles: 4249

8159: D0 F8       BNE $8153
CPU State: PC:8153 A:EA X:E7 Y:00 SP:FD Status:A5 (NV-B DIZC)
RAM State: $00:00 $01:00 $02:00
Timing: Current Emulated Cycle: 4252, Last IRQ Trigger Cycle: 0, Cycles Since Last IRQ: 4252
Emulated Cycles: 4252

8153: A9 EA       LDA #$EA
CPU State: PC:8155 A:EA X:E7 Y:00 SP:FD Status:A5 (NV-B DIZC)
RAM State: $00:00 $01:00 $02:00
Timing: Current Emulated Cycle: 4254, Last IRQ Trigger Cycle: 0, Cycles Since Last IRQ: 4254
Emulated Cycles: 4254

8155: 9D 00 C1    STA $C100,X
CPU State: PC:8158 A:EA X:E7 Y:00 SP:FD Status:A5 (NV-B DIZC)
RAM State: $00:00 $01:00 $02:00
Timing: Current Emulated Cycle: 4259, Last IRQ Trigger Cycle: 0, Cycles Since Last IRQ: 4259
Emulated Cycles: 4259

8158: E8          INX
CPU State: PC:8159 A:EA X:E8 Y:00 SP:FD Status:A5 (NV-B DIZC)
RAM State: $00:00 $01:00 $02:00
Timing: Current Emulated Cycle: 4261, Last IRQ Trigger Cycle: 0, Cycles Since Last IRQ: 4261
Emulated Cycles: 4261

8159: D0 F8       BNE $8153
CPU State: PC:8153 A:EA X:E8 Y:00 SP:FD Status:A5 (NV-B DIZC)
RAM State: $00:00 $01:00 $02:00
Timing: Current Emulated Cycle: 4264, Last IRQ Trigger Cycle: 0, Cycles Since Last IRQ: 4264
Emulated Cycles: 4264

8153: A9 EA       LDA #$EA
CPU State: PC:8155 A:EA X:E8 Y:00 SP:FD Status:A5 (NV-B DIZC)
RAM State: $00:00 $01:00 $02:00
Timing: Current Emulated Cycle: 4266, Last IRQ Trigger Cycle: 0, Cycles Since Last IRQ: 4266
Emulated Cycles: 4266

8155: 9D 00 C1    STA $C100,X
CPU State: PC:8158 A:EA X:E8 Y:00 SP:FD Status:A5 (NV-B DIZC)
RAM State: $00:00 $01:00 $02:00
Timing: Current Emulated Cycle: 4271, Last IRQ Trigger Cycle: 0, Cycles Since Last IRQ: 4271
Emulated Cycles: 4271

8158: E8          INX
CPU State: PC:8159 A:EA X:E9 Y:00 SP:FD Status:A5 (NV-B DIZC)
RAM State: $00:00 $01:00 $02:00
Timing: Current Emulated Cycle: 4273, Last IRQ Trigger Cycle: 0, Cycles Since Last IRQ: 4273
Emulated Cycles: 4273

8159: D0 F8       BNE $8153
CPU State: PC:8153 A:EA X:E9 Y:00 SP:FD Status:A5 (NV-B DIZC)
RAM State: $00:00 $01:00 $02:00
Timing: Current Emulated Cycle: 4276, Last IRQ Trigger Cycle: 0, Cycles Since Last IRQ: 4276
Emulated Cycles: 4276

8153: A9 EA       LDA #$EA
CPU State: PC:8155 A:EA X:E9 Y:00 SP:FD Status:A5 (NV-B DIZC)
RAM State: $00:00 $01:00 $02:00
Timing: Current Emulated Cycle: 4278, Last IRQ Trigger Cycle: 0, Cycles Since Last IRQ: 4278
Emulated Cycles: 4278

8155: 9D 00 C1    STA $C100,X
CPU State: PC:8158 A:EA X:E9 Y:00 SP:FD Status:A5 (NV-B DIZC)
RAM State: $00:00 $01:00 $02:00
Timing: Current Emulated Cycle: 4283, Last IRQ Trigger Cycle: 0, Cycles Since Last IRQ: 4283
Emulated Cycles: 4283

8158: E8          INX
CPU State: PC:8159 A:EA X:EA Y:00 SP:FD Status:A5 (NV-B DIZC)
RAM State: $00:00 $01:00 $02:00
Timing: Current Emulated Cycle: 4285, Last IRQ Trigger Cycle: 0, Cycles Since Last IRQ: 4285
Emulated Cycles: 4285

8159: D0 F8       BNE $8153
CPU State: PC:8153 A:EA X:EA Y:00 SP:FD Status:A5 (NV-B DIZC)
RAM State: $00:00 $01:00 $02:00
Timing: Current Emulated Cycle: 4288, Last IRQ Trigger Cycle: 0, Cycles Since Last IRQ: 4288
Emulated Cycles: 4288

8153: A9 EA       LDA #$EA
CPU State: PC:8155 A:EA X:EA Y:00 SP:FD Status:A5 (NV-B DIZC)
RAM State: $00:00 $01:00 $02:00
Timing: Current Emulated Cycle: 4290, Last IRQ Trigger Cycle: 0, Cycles Since Last IRQ: 4290
Emulated Cycles: 4290

8155: 9D 00 C1    STA $C100,X
CPU State: PC:8158 A:EA X:EA Y:00 SP:FD Status:A5 (NV-B DIZC)
RAM State: $00:00 $01:00 $02:00
Timing: Current Emulated Cycle: 4295, Last IRQ Trigger Cycle: 0, Cycles Since Last IRQ: 4295
Emulated Cycles: 4295

8158: E8          INX
CPU State: PC:8159 A:EA X:EB Y:00 SP:FD Status:A5 (NV-B DIZC)
RAM State: $00:00 $01:00 $02:00
Timing: Current Emulated Cycle: 4297, Last IRQ Trigger Cycle: 0, Cycles Since Last IRQ: 4297
Emulated Cycles: 4297

8159: D0 F8       BNE $8153
CPU State: PC:8153 A:EA X:EB Y:00 SP:FD Status:A5 (NV-B DIZC)
RAM State: $00:00 $01:00 $02:00
Timing: Current Emulated Cycle: 4300, Last IRQ Trigger Cycle: 0, Cycles Since Last IRQ: 4300
Emulated Cycles: 4300

8153: A9 EA       LDA #$EA
CPU State: PC:8155 A:EA X:EB Y:00 SP:FD Status:A5 (NV-B DIZC)
RAM State: $00:00 $01:00 $02:00
Timing: Current Emulated Cycle: 4302, Last IRQ Trigger Cycle: 0, Cycles Since Last IRQ: 4302
Emulated Cycles: 4302

8155: 9D 00 C1    STA $C100,X
CPU State: PC:8158 A:EA X:EB Y:00 SP:FD Status:A5 (NV-B DIZC)
RAM State: $00:00 $01:00 $02:00
Timing: Current Emulated Cycle: 4307, Last IRQ Trigger Cycle: 0, Cycles Since Last IRQ: 4307
Emulated Cycles: 4307

8158: E8          INX
CPU State: PC:8159 A:EA X:EC Y:00 SP:FD Status:A5 (NV-B DIZC)
RAM State: $00:00 $01:00 $02:00
Timing: Current Emulated Cycle: 4309, Last IRQ Trigger Cycle: 0, Cycles Since Last IRQ: 4309
Emulated Cycles: 4309

8159: D0 F8       BNE $8153
CPU State: PC:8153 A:EA X:EC Y:00 SP:FD Status:A5 (NV-B DIZC)
RAM State: $00:00 $01:00 $02:00
Timing: Current Emulated Cycle: 4312, Last IRQ Trigger Cycle: 0, Cycles Since Last IRQ: 4312
Emulated Cycles: 4312

8153: A9 EA       LDA #$EA
CPU State: PC:8155 A:EA X:EC Y:00 SP:FD Status:A5 (NV-B DIZC)
RAM State: $00:00 $01:00 $02:00
Timing: Current Emulated Cycle: 4314, Last IRQ Trigger Cycle: 0, Cycles Since Last IRQ: 4314
Emulated Cycles: 4314

8155: 9D 00 C1    STA $C100,X
CPU State: PC:8158 A:EA X:EC Y:00 SP:FD Status:A5 (NV-B DIZC)
RAM State: $00:00 $01:00 $02:00
Timing: Current Emulated Cycle: 4319, Last IRQ Trigger Cycle: 0, Cycles Since Last IRQ: 4319
Emulated Cycles: 4319

8158: E8          INX
CPU State: PC:8159 A:EA X:ED Y:00 SP:FD Status:A5 (NV-B DIZC)
RAM State: $00:00 $01:00 $02:00
Timing: Current Emulated Cycle: 4321, Last IRQ Trigger Cycle: 0, Cycles Since Last IRQ: 4321
Emulated Cycles: 4321

8159: D0 F8       BNE $8153
CPU State: PC:8153 A:EA X:ED Y:00 SP:FD Status:A5 (NV-B DIZC)
RAM State: $00:00 $01:00 $02:00
Timing: Current Emulated Cycle: 4324, Last IRQ Trigger Cycle: 0, Cycles Since Last IRQ: 4324
Emulated Cycles: 4324

8153: A9 EA       LDA #$EA
CPU State: PC:8155 A:EA X:ED Y:00 SP:FD Status:A5 (NV-B DIZC)
RAM State: $00:00 $01:00 $02:00
Timing: Current Emulated Cycle: 4326, Last IRQ Trigger Cycle: 0, Cycles Since Last IRQ: 4326
Emulated Cycles: 4326

8155: 9D 00 C1    STA $C100,X
CPU State: PC:8158 A:EA X:ED Y:00 SP:FD Status:A5 (NV-B DIZC)
RAM State: $00:00 $01:00 $02:00
Timing: Current Emulated Cycle: 4331, Last IRQ Trigger Cycle: 0, Cycles Since Last IRQ: 4331
Emulated Cycles: 4331

8158: E8          INX
CPU State: PC:8159 A:EA X:EE Y:00 SP:FD Status:A5 (NV-B DIZC)
RAM State: $00:00 $01:00 $02:00
Timing: Current Emulated Cycle: 4333, Last IRQ Trigger Cycle: 0, Cycles Since Last IRQ: 4333
Emulated Cycles: 4333

8159: D0 F8       BNE $8153
CPU State: PC:8153 A:EA X:EE Y:00 SP:FD Status:A5 (NV-B DIZC)
RAM State: $00:00 $01:00 $02:00
Timing: Current Emulated Cycle: 4336, Last IRQ Trigger Cycle: 0, Cycles Since Last IRQ: 4336
Emulated Cycles: 4336

8153: A9 EA       LDA #$EA
CPU State: PC:8155 A:EA X:EE Y:00 SP:FD Status:A5 (NV-B DIZC)
RAM State: $00:00 $01:00 $02:00
Timing: Current Emulated Cycle: 4338, Last IRQ Trigger Cycle: 0, Cycles Since Last IRQ: 4338
Emulated Cycles: 4338

8155: 9D 00 C1    STA $C100,X
CPU State: PC:8158 A:EA X:EE Y:00 SP:FD Status:A5 (NV-B DIZC)
RAM State: $00:00 $01:00 $02:00
Timing: Current Emulated Cycle: 4343, Last IRQ Trigger Cycle: 0, Cycles Since Last IRQ: 4343
Emulated Cycles: 4343

8158: E8          INX
CPU State: PC:8159 A:EA X:EF Y:00 SP:FD Status:A5 (NV-B DIZC)
RAM State: $00:00 $01:00 $02:00
Timing: Current Emulated Cycle: 4345, Last IRQ Trigger Cycle: 0, Cycles Since Last IRQ: 4345
Emulated Cycles: 4345

8159: D0 F8       BNE $8153
CPU State: PC:8153 A:EA X:EF Y:00 SP:FD Status:A5 (NV-B DIZC)
RAM State: $00:00 $01:00 $02:00
Timing: Current Emulated Cycle: 4348, Last IRQ Trigger Cycle: 0, Cycles Since Last IRQ: 4348
Emulated Cycles: 4348

8153: A9 EA       LDA #$EA
CPU State: PC:8155 A:EA X:EF Y:00 SP:FD Status:A5 (NV-B DIZC)
RAM State: $00:00 $01:00 $02:00
Timing: Current Emulated Cycle: 4350, Last IRQ Trigger Cycle: 0, Cycles Since Last IRQ: 4350
Emulated Cycles: 4350

8155: 9D 00 C1    STA $C100,X
CPU State: PC:8158 A:EA X:EF Y:00 SP:FD Status:A5 (NV-B DIZC)
RAM State: $00:00 $01:00 $02:00
Timing: Current Emulated Cycle: 4355, Last IRQ Trigger Cycle: 0, Cycles Since Last IRQ: 4355
Emulated Cycles: 4355

8158: E8          INX
CPU State: PC:8159 A:EA X:F0 Y:00 SP:FD Status:A5 (NV-B DIZC)
RAM State: $00:00 $01:00 $02:00
Timing: Current Emulated Cycle: 4357, Last IRQ Trigger Cycle: 0, Cycles Since Last IRQ: 4357
Emulated Cycles: 4357

8159: D0 F8       BNE $8153
CPU State: PC:8153 A:EA X:F0 Y:00 SP:FD Status:A5 (NV-B DIZC)
RAM State: $00:00 $01:00 $02:00
Timing: Current Emulated Cycle: 4360, Last IRQ Trigger Cycle: 0, Cycles Since Last IRQ: 4360
Emulated Cycles: 4360

8153: A9 EA       LDA #$EA
CPU State: PC:8155 A:EA X:F0 Y:00 SP:FD Status:A5 (NV-B DIZC)
RAM State: $00:00 $01:00 $02:00
Timing: Current Emulated Cycle: 4362, Last IRQ Trigger Cycle: 0, Cycles Since Last IRQ: 4362
Emulated Cycles: 4362

8155: 9D 00 C1    STA $C100,X
CPU State: PC:8158 A:EA X:F0 Y:00 SP:FD Status:A5 (NV-B DIZC)
RAM State: $00:00 $01:00 $02:00
Timing: Current Emulated Cycle: 4367, Last IRQ Trigger Cycle: 0, Cycles Since Last IRQ: 4367
Emulated Cycles: 4367

8158: E8          INX
CPU State: PC:8159 A:EA X:F1 Y:00 SP:FD Status:A5 (NV-B DIZC)
RAM State: $00:00 $01:00 $02:00
Timing: Current Emulated Cycle: 4369, Last IRQ Trigger Cycle: 0, Cycles Since Last IRQ: 4369
Emulated Cycles: 4369

8159: D0 F8       BNE $8153
CPU State: PC:8153 A:EA X:F1 Y:00 SP:FD Status:A5 (NV-B DIZC)
RAM State: $00:00 $01:00 $02:00
Timing: Current Emulated Cycle: 4372, Last IRQ Trigger Cycle: 0, Cycles Since Last IRQ: 4372
Emulated Cycles: 4372

8153: A9 EA       LDA #$EA
CPU State: PC:8155 A:EA X:F1 Y:00 SP:FD Status:A5 (NV-B DIZC)
RAM State: $00:00 $01:00 $02:00
Timing: Current Emulated Cycle: 4374, Last IRQ Trigger Cycle: 0, Cycles Since Last IRQ: 4374
Emulated Cycles: 4374

8155: 9D 00 C1    STA $C100,X
CPU State: PC:8158 A:EA X:F1 Y:00 SP:FD Status:A5 (NV-B DIZC)
RAM State: $00:00 $01:00 $02:00
Timing: Current Emulated Cycle: 4379, Last IRQ Trigger Cycle: 0, Cycles Since Last IRQ: 4379
Emulated Cycles: 4379

8158: E8          INX
CPU State: PC:8159 A:EA X:F2 Y:00 SP:FD Status:A5 (NV-B DIZC)
RAM State: $00:00 $01:00 $02:00
Timing: Current Emulated Cycle: 4381, Last IRQ Trigger Cycle: 0, Cycles Since Last IRQ: 4381
Emulated Cycles: 4381

8159: D0 F8       BNE $8153
CPU State: PC:8153 A:EA X:F2 Y:00 SP:FD Status:A5 (NV-B DIZC)
RAM State: $00:00 $01:00 $02:00
Timing: Current Emulated Cycle: 4384, Last IRQ Trigger Cycle: 0, Cycles Since Last IRQ: 4384
Emulated Cycles: 4384

8153: A9 EA       LDA #$EA
CPU State: PC:8155 A:EA X:F2 Y:00 SP:FD Status:A5 (NV-B DIZC)
RAM State: $00:00 $01:00 $02:00
Timing: Current Emulated Cycle: 4386, Last IRQ Trigger Cycle: 0, Cycles Since Last IRQ: 4386
Emulated Cycles: 4386

8155: 9D 00 C1    STA $C100,X
CPU State: PC:8158 A:EA X:F2 Y:00 SP:FD Status:A5 (NV-B DIZC)
RAM State: $00:00 $01:00 $02:00
Timing: Current Emulated Cycle: 4391, Last IRQ Trigger Cycle: 0, Cycles Since Last IRQ: 4391
Emulated Cycles: 4391

8158: E8          INX
CPU State: PC:8159 A:EA X:F3 Y:00 SP:FD Status:A5 (NV-B DIZC)
RAM State: $00:00 $01:00 $02:00
Timing: Current Emulated Cycle: 4393, Last IRQ Trigger Cycle: 0, Cycles Since Last IRQ: 4393
Emulated Cycles: 4393

8159: D0 F8       BNE $8153
CPU State: PC:8153 A:EA X:F3 Y:00 SP:FD Status:A5 (NV-B DIZC)
RAM State: $00:00 $01:00 $02:00
Timing: Current Emulated Cycle: 4396, Last IRQ Trigger Cycle: 0, Cycles Since Last IRQ: 4396
Emulated Cycles: 4396

8153: A9 EA       LDA #$EA
CPU State: PC:8155 A:EA X:F3 Y:00 SP:FD Status:A5 (NV-B DIZC)
RAM State: $00:00 $01:00 $02:00
Timing: Current Emulated Cycle: 4398, Last IRQ Trigger Cycle: 0, Cycles Since Last IRQ: 4398
Emulated Cycles: 4398

8155: 9D 00 C1    STA $C100,X
CPU State: PC:8158 A:EA X:F3 Y:00 SP:FD Status:A5 (NV-B DIZC)
RAM State: $00:00 $01:00 $02:00
Timing: Current Emulated Cycle: 4403, Last IRQ Trigger Cycle: 0, Cycles Since Last IRQ: 4403
Emulated Cycles: 4403

8158: E8          INX
CPU State: PC:8159 A:EA X:F4 Y:00 SP:FD Status:A5 (NV-B DIZC)
RAM State: $00:00 $01:00 $02:00
Timing: Current Emulated Cycle: 4405, Last IRQ Trigger Cycle: 0, Cycles Since Last IRQ: 4405
Emulated Cycles: 4405

8159: D0 F8       BNE $8153
CPU State: PC:8153 A:EA X:F4 Y:00 SP:FD Status:A5 (NV-B DIZC)
RAM State: $00:00 $01:00 $02:00
Timing: Current Emulated Cycle: 4408, Last IRQ Trigger Cycle: 0, Cycles Since Last IRQ: 4408
Emulated Cycles: 4408

8153: A9 EA       LDA #$EA
CPU State: PC:8155 A:EA X:F4 Y:00 SP:FD Status:A5 (NV-B DIZC)
RAM State: $00:00 $01:00 $02:00
Timing: Current Emulated Cycle: 4410, Last IRQ Trigger Cycle: 0, Cycles Since Last IRQ: 4410
Emulated Cycles: 4410

8155: 9D 00 C1    STA $C100,X
CPU State: PC:8158 A:EA X:F4 Y:00 SP:FD Status:A5 (NV-B DIZC)
RAM State: $00:00 $01:00 $02:00
Timing: Current Emulated Cycle: 4415, Last IRQ Trigger Cycle: 0, Cycles Since Last IRQ: 4415
Emulated Cycles: 4415

8158: E8          INX
CPU State: PC:8159 A:EA X:F5 Y:00 SP:FD Status:A5 (NV-B DIZC)
RAM State: $00:00 $01:00 $02:00
Timing: Current Emulated Cycle: 4417, Last IRQ Trigger Cycle: 0, Cycles Since Last IRQ: 4417
Emulated Cycles: 4417

8159: D0 F8       BNE $8153
CPU State: PC:8153 A:EA X:F5 Y:00 SP:FD Status:A5 (NV-B DIZC)
RAM State: $00:00 $01:00 $02:00
Timing: Current Emulated Cycle: 4420, Last IRQ Trigger Cycle: 0, Cycles Since Last IRQ: 4420
Emulated Cycles: 4420

8153: A9 EA       LDA #$EA
CPU State: PC:8155 A:EA X:F5 Y:00 SP:FD Status:A5 (NV-B DIZC)
RAM State: $00:00 $01:00 $02:00
Timing: Current Emulated Cycle: 4422, Last IRQ Trigger Cycle: 0, Cycles Since Last IRQ: 4422
Emulated Cycles: 4422

8155: 9D 00 C1    STA $C100,X
CPU State: PC:8158 A:EA X:F5 Y:00 SP:FD Status:A5 (NV-B DIZC)
RAM State: $00:00 $01:00 $02:00
Timing: Current Emulated Cycle: 4427, Last IRQ Trigger Cycle: 0, Cycles Since Last IRQ: 4427
Emulated Cycles: 4427

8158: E8          INX
CPU State: PC:8159 A:EA X:F6 Y:00 SP:FD Status:A5 (NV-B DIZC)
RAM State: $00:00 $01:00 $02:00
Timing: Current Emulated Cycle: 4429, Last IRQ Trigger Cycle: 0, Cycles Since Last IRQ: 4429
Emulated Cycles: 4429

8159: D0 F8       BNE $8153
CPU State: PC:8153 A:EA X:F6 Y:00 SP:FD Status:A5 (NV-B DIZC)
RAM State: $00:00 $01:00 $02:00
Timing: Current Emulated Cycle: 4432, Last IRQ Trigger Cycle: 0, Cycles Since Last IRQ: 4432
Emulated Cycles: 4432

8153: A9 EA       LDA #$EA
CPU State: PC:8155 A:EA X:F6 Y:00 SP:FD Status:A5 (NV-B DIZC)
RAM State: $00:00 $01:00 $02:00
Timing: Current Emulated Cycle: 4434, Last IRQ Trigger Cycle: 0, Cycles Since Last IRQ: 4434
Emulated Cycles: 4434

8155: 9D 00 C1    STA $C100,X
CPU State: PC:8158 A:EA X:F6 Y:00 SP:FD Status:A5 (NV-B DIZC)
RAM State: $00:00 $01:00 $02:00
Timing: Current Emulated Cycle: 4439, Last IRQ Trigger Cycle: 0, Cycles Since Last IRQ: 4439
Emulated Cycles: 4439

8158: E8          INX
CPU State: PC:8159 A:EA X:F7 Y:00 SP:FD Status:A5 (NV-B DIZC)
RAM State: $00:00 $01:00 $02:00
Timing: Current Emulated Cycle: 4441, Last IRQ Trigger Cycle: 0, Cycles Since Last IRQ: 4441
Emulated Cycles: 4441

8159: D0 F8       BNE $8153
CPU State: PC:8153 A:EA X:F7 Y:00 SP:FD Status:A5 (NV-B DIZC)
RAM State: $00:00 $01:00 $02:00
Timing: Current Emulated Cycle: 4444, Last IRQ Trigger Cycle: 0, Cycles Since Last IRQ: 4444
Emulated Cycles: 4444

8153: A9 EA       LDA #$EA
CPU State: PC:8155 A:EA X:F7 Y:00 SP:FD Status:A5 (NV-B DIZC)
RAM State: $00:00 $01:00 $02:00
Timing: Current Emulated Cycle: 4446, Last IRQ Trigger Cycle: 0, Cycles Since Last IRQ: 4446
Emulated Cycles: 4446

8155: 9D 00 C1    STA $C100,X
CPU State: PC:8158 A:EA X:F7 Y:00 SP:FD Status:A5 (NV-B DIZC)
RAM State: $00:00 $01:00 $02:00
Timing: Current Emulated Cycle: 4451, Last IRQ Trigger Cycle: 0, Cycles Since Last IRQ: 4451
Emulated Cycles: 4451

8158: E8          INX
CPU State: PC:8159 A:EA X:F8 Y:00 SP:FD Status:A5 (NV-B DIZC)
RAM State: $00:00 $01:00 $02:00
Timing: Current Emulated Cycle: 4453, Last IRQ Trigger Cycle: 0, Cycles Since Last IRQ: 4453
Emulated Cycles: 4453

8159: D0 F8       BNE $8153
CPU State: PC:8153 A:EA X:F8 Y:00 SP:FD Status:A5 (NV-B DIZC)
RAM State: $00:00 $01:00 $02:00
Timing: Current Emulated Cycle: 4456, Last IRQ Trigger Cycle: 0, Cycles Since Last IRQ: 4456
Emulated Cycles: 4456

8153: A9 EA       LDA #$EA
CPU State: PC:8155 A:EA X:F8 Y:00 SP:FD Status:A5 (NV-B DIZC)
RAM State: $00:00 $01:00 $02:00
Timing: Current Emulated Cycle: 4458, Last IRQ Trigger Cycle: 0, Cycles Since Last IRQ: 4458
Emulated Cycles: 4458

8155: 9D 00 C1    STA $C100,X
CPU State: PC:8158 A:EA X:F8 Y:00 SP:FD Status:A5 (NV-B DIZC)
RAM State: $00:00 $01:00 $02:00
Timing: Current Emulated Cycle: 4463, Last IRQ Trigger Cycle: 0, Cycles Since Last IRQ: 4463
Emulated Cycles: 4463

8158: E8          INX
CPU State: PC:8159 A:EA X:F9 Y:00 SP:FD Status:A5 (NV-B DIZC)
RAM State: $00:00 $01:00 $02:00
Timing: Current Emulated Cycle: 4465, Last IRQ Trigger Cycle: 0, Cycles Since Last IRQ: 4465
Emulated Cycles: 4465

8159: D0 F8       BNE $8153
CPU State: PC:8153 A:EA X:F9 Y:00 SP:FD Status:A5 (NV-B DIZC)
RAM State: $00:00 $01:00 $02:00
Timing: Current Emulated Cycle: 4468, Last IRQ Trigger Cycle: 0, Cycles Since Last IRQ: 4468
Emulated Cycles: 4468

8153: A9 EA       LDA #$EA
CPU State: PC:8155 A:EA X:F9 Y:00 SP:FD Status:A5 (NV-B DIZC)
RAM State: $00:00 $01:00 $02:00
Timing: Current Emulated Cycle: 4470, Last IRQ Trigger Cycle: 0, Cycles Since Last IRQ: 4470
Emulated Cycles: 4470

8155: 9D 00 C1    STA $C100,X
CPU State: PC:8158 A:EA X:F9 Y:00 SP:FD Status:A5 (NV-B DIZC)
RAM State: $00:00 $01:00 $02:00
Timing: Current Emulated Cycle: 4475, Last IRQ Trigger Cycle: 0, Cycles Since Last IRQ: 4475
Emulated Cycles: 4475

8158: E8          INX
CPU State: PC:8159 A:EA X:FA Y:00 SP:FD Status:A5 (NV-B DIZC)
RAM State: $00:00 $01:00 $02:00
Timing: Current Emulated Cycle: 4477, Last IRQ Trigger Cycle: 0, Cycles Since Last IRQ: 4477
Emulated Cycles: 4477

8159: D0 F8       BNE $8153
CPU State: PC:8153 A:EA X:FA Y:00 SP:FD Status:A5 (NV-B DIZC)
RAM State: $00:00 $01:00 $02:00
Timing: Current Emulated Cycle: 4480, Last IRQ Trigger Cycle: 0, Cycles Since Last IRQ: 4480
Emulated Cycles: 4480

8153: A9 EA       LDA #$EA
CPU State: PC:8155 A:EA X:FA Y:00 SP:FD Status:A5 (NV-B DIZC)
RAM State: $00:00 $01:00 $02:00
Timing: Current Emulated Cycle: 4482, Last IRQ Trigger Cycle: 0, Cycles Since Last IRQ: 4482
Emulated Cycles: 4482

8155: 9D 00 C1    STA $C100,X
CPU State: PC:8158 A:EA X:FA Y:00 SP:FD Status:A5 (NV-B DIZC)
RAM State: $00:00 $01:00 $02:00
Timing: Current Emulated Cycle: 4487, Last IRQ Trigger Cycle: 0, Cycles Since Last IRQ: 4487
Emulated Cycles: 4487

8158: E8          INX
CPU State: PC:8159 A:EA X:FB Y:00 SP:FD Status:A5 (NV-B DIZC)
RAM State: $00:00 $01:00 $02:00
Timing: Current Emulated Cycle: 4489, Last IRQ Trigger Cycle: 0, Cycles Since Last IRQ: 4489
Emulated Cycles: 4489

8159: D0 F8       BNE $8153
CPU State: PC:8153 A:EA X:FB Y:00 SP:FD Status:A5 (NV-B DIZC)
RAM State: $00:00 $01:00 $02:00
Timing: Current Emulated Cycle: 4492, Last IRQ Trigger Cycle: 0, Cycles Since Last IRQ: 4492
Emulated Cycles: 4492

8153: A9 EA       LDA #$EA
CPU State: PC:8155 A:EA X:FB Y:00 SP:FD Status:A5 (NV-B DIZC)
RAM State: $00:00 $01:00 $02:00
Timing: Current Emulated Cycle: 4494, Last IRQ Trigger Cycle: 0, Cycles Since Last IRQ: 4494
Emulated Cycles: 4494

8155: 9D 00 C1    STA $C100,X
CPU State: PC:8158 A:EA X:FB Y:00 SP:FD Status:A5 (NV-B DIZC)
RAM State: $00:00 $01:00 $02:00
Timing: Current Emulated Cycle: 4499, Last IRQ Trigger Cycle: 0, Cycles Since Last IRQ: 4499
Emulated Cycles: 4499

8158: E8          INX
CPU State: PC:8159 A:EA X:FC Y:00 SP:FD Status:A5 (NV-B DIZC)
RAM State: $00:00 $01:00 $02:00
Timing: Current Emulated Cycle: 4501, Last IRQ Trigger Cycle: 0, Cycles Since Last IRQ: 4501
Emulated Cycles: 4501

8159: D0 F8       BNE $8153
CPU State: PC:8153 A:EA X:FC Y:00 SP:FD Status:A5 (NV-B DIZC)
RAM State: $00:00 $01:00 $02:00
Timing: Current Emulated Cycle: 4504, Last IRQ Trigger Cycle: 0, Cycles Since Last IRQ: 4504
Emulated Cycles: 4504

8153: A9 EA       LDA #$EA
CPU State: PC:8155 A:EA X:FC Y:00 SP:FD Status:A5 (NV-B DIZC)
RAM State: $00:00 $01:00 $02:00
Timing: Current Emulated Cycle: 4506, Last IRQ Trigger Cycle: 0, Cycles Since Last IRQ: 4506
Emulated Cycles: 4506

8155: 9D 00 C1    STA $C100,X
CPU State: PC:8158 A:EA X:FC Y:00 SP:FD Status:A5 (NV-B DIZC)
RAM State: $00:00 $01:00 $02:00
Timing: Current Emulated Cycle: 4511, Last IRQ Trigger Cycle: 0, Cycles Since Last IRQ: 4511
Emulated Cycles: 4511

8158: E8          INX
CPU State: PC:8159 A:EA X:FD Y:00 SP:FD Status:A5 (NV-B DIZC)
RAM State: $00:00 $01:00 $02:00
Timing: Current Emulated Cycle: 4513, Last IRQ Trigger Cycle: 0, Cycles Since Last IRQ: 4513
Emulated Cycles: 4513

8159: D0 F8       BNE $8153
CPU State: PC:8153 A:EA X:FD Y:00 SP:FD Status:A5 (NV-B DIZC)
RAM State: $00:00 $01:00 $02:00
Timing: Current Emulated Cycle: 4516, Last IRQ Trigger Cycle: 0, Cycles Since Last IRQ: 4516
Emulated Cycles: 4516

8153: A9 EA       LDA #$EA
CPU State: PC:8155 A:EA X:FD Y:00 SP:FD Status:A5 (NV-B DIZC)
RAM State: $00:00 $01:00 $02:00
Timing: Current Emulated Cycle: 4518, Last IRQ Trigger Cycle: 0, Cycles Since Last IRQ: 4518
Emulated Cycles: 4518

8155: 9D 00 C1    STA $C100,X
CPU State: PC:8158 A:EA X:FD Y:00 SP:FD Status:A5 (NV-B DIZC)
RAM State: $00:00 $01:00 $02:00
Timing: Current Emulated Cycle: 4523, Last IRQ Trigger Cycle: 0, Cycles Since Last IRQ: 4523
Emulated Cycles: 4523

8158: E8          INX
CPU State: PC:8159 A:EA X:FE Y:00 SP:FD Status:A5 (NV-B DIZC)
RAM State: $00:00 $01:00 $02:00
Timing: Current Emulated Cycle: 4525, Last IRQ Trigger Cycle: 0, Cycles Since Last IRQ: 4525
Emulated Cycles: 4525

8159: D0 F8       BNE $8153
CPU State: PC:8153 A:EA X:FE Y:00 SP:FD Status:A5 (NV-B DIZC)
RAM State: $00:00 $01:00 $02:00
Timing: Current Emulated Cycle: 4528, Last IRQ Trigger Cycle: 0, Cycles Since Last IRQ: 4528
Emulated Cycles: 4528

8153: A9 EA       LDA #$EA
CPU State: PC:8155 A:EA X:FE Y:00 SP:FD Status:A5 (NV-B DIZC)
RAM State: $00:00 $01:00 $02:00
Timing: Current Emulated Cycle: 4530, Last IRQ Trigger Cycle: 0, Cycles Since Last IRQ: 4530
Emulated Cycles: 4530

8155: 9D 00 C1    STA $C100,X
CPU State: PC:8158 A:EA X:FE Y:00 SP:FD Status:A5 (NV-B DIZC)
RAM State: $00:00 $01:00 $02:00
Timing: Current Emulated Cycle: 4535, Last IRQ Trigger Cycle: 0, Cycles Since Last IRQ: 4535
Emulated Cycles: 4535

8158: E8          INX
CPU State: PC:8159 A:EA X:FF Y:00 SP:FD Status:A5 (NV-B DIZC)
RAM State: $00:00 $01:00 $02:00
Timing: Current Emulated Cycle: 4537, Last IRQ Trigger Cycle: 0, Cycles Since Last IRQ: 4537
Emulated Cycles: 4537

8159: D0 F8       BNE $8153
CPU State: PC:8153 A:EA X:FF Y:00 SP:FD Status:A5 (NV-B DIZC)
RAM State: $00:00 $01:00 $02:00
Timing: Current Emulated Cycle: 4540, Last IRQ Trigger Cycle: 0, Cycles Since Last IRQ: 4540
Emulated Cycles: 4540

8153: A9 EA       LDA #$EA
CPU State: PC:8155 A:EA X:FF Y:00 SP:FD Status:A5 (NV-B DIZC)
RAM State: $00:00 $01:00 $02:00
Timing: Current Emulated Cycle: 4542, Last IRQ Trigger Cycle: 0, Cycles Since Last IRQ: 4542
Emulated Cycles: 4542

8155: 9D 00 C1    STA $C100,X
CPU State: PC:8158 A:EA X:FF Y:00 SP:FD Status:A5 (NV-B DIZC)
RAM State: $00:00 $01:00 $02:00
Timing: Current Emulated Cycle: 4547, Last IRQ Trigger Cycle: 0, Cycles Since Last IRQ: 4547
Emulated Cycles: 4547

8158: E8          INX
CPU State: PC:8159 A:EA X:00 Y:00 SP:FD Status:27 (NV-B DIZC)
RAM State: $00:00 $01:00 $02:00
Timing: Current Emulated Cycle: 4549, Last IRQ Trigger Cycle: 0, Cycles Since Last IRQ: 4549
Emulated Cycles: 4549

8159: D0 F8       BNE $8153
CPU State: PC:815B A:EA X:00 Y:00 SP:FD Status:27 (NV-B DIZC)
RAM State: $00:00 $01:00 $02:00
Timing: Current Emulated Cycle: 4551, Last IRQ Trigger Cycle: 0, Cycles Since Last IRQ: 4551
Emulated Cycles: 4551

815B: A2 00       LDX #$00
CPU State: PC:815D A:EA X:00 Y:00 SP:FD Status:27 (NV-B DIZC)
RAM State: $00:00 $01:00 $02:00
Timing: Current Emulated Cycle: 4553, Last IRQ Trigger Cycle: 0, Cycles Since Last IRQ: 4553
Emulated Cycles: 4553

815D: A9 EA       LDA #$EA
CPU State: PC:815F A:EA X:00 Y:00 SP:FD Status:A5 (NV-B DIZC)
RAM State: $00:00 $01:00 $02:00
Timing: Current Emulated Cycle: 4555, Last IRQ Trigger Cycle: 0, Cycles Since Last IRQ: 4555
Emulated Cycles: 4555

815F: 9D 00 C2    STA $C200,X
CPU State: PC:8162 A:EA X:00 Y:00 SP:FD Status:A5 (NV-B DIZC)
RAM State: $00:00 $01:00 $02:00
Timing: Current Emulated Cycle: 4560, Last IRQ Trigger Cycle: 0, Cycles Since Last IRQ: 4560
Emulated Cycles: 4560

8162: E8          INX
CPU State: PC:8163 A:EA X:01 Y:00 SP:FD Status:25 (NV-B DIZC)
RAM State: $00:00 $01:00 $02:00
Timing: Current Emulated Cycle: 4562, Last IRQ Trigger Cycle: 0, Cycles Since Last IRQ: 4562
Emulated Cycles: 4562

8163: D0 F8       BNE $815D
CPU State: PC:815D A:EA X:01 Y:00 SP:FD Status:25 (NV-B DIZC)
RAM State: $00:00 $01:00 $02:00
Timing: Current Emulated Cycle: 4565, Last IRQ Trigger Cycle: 0, Cycles Since Last IRQ: 4565
Emulated Cycles: 4565

815D: A9 EA       LDA #$EA
CPU State: PC:815F A:EA X:01 Y:00 SP:FD Status:A5 (NV-B DIZC)
RAM State: $00:00 $01:00 $02:00
Timing: Current Emulated Cycle: 4567, Last IRQ Trigger Cycle: 0, Cycles Since Last IRQ: 4567
Emulated Cycles: 4567

815F: 9D 00 C2    STA $C200,X
CPU State: PC:8162 A:EA X:01 Y:00 SP:FD Status:A5 (NV-B DIZC)
RAM State: $00:00 $01:00 $02:00
Timing: Current Emulated Cycle: 4572, Last IRQ Trigger Cycle: 0, Cycles Since Last IRQ: 4572
Emulated Cycles: 4572

8162: E8          INX
CPU State: PC:8163 A:EA X:02 Y:00 SP:FD Status:25 (NV-B DIZC)
RAM State: $00:00 $01:00 $02:00
Timing: Current Emulated Cycle: 4574, Last IRQ Trigger Cycle: 0, Cycles Since Last IRQ: 4574
Emulated Cycles: 4574

8163: D0 F8       BNE $815D
CPU State: PC:815D A:EA X:02 Y:00 SP:FD Status:25 (NV-B DIZC)
RAM State: $00:00 $01:00 $02:00
Timing: Current Emulated Cycle: 4577, Last IRQ Trigger Cycle: 0, Cycles Since Last IRQ: 4577
Emulated Cycles: 4577

815D: A9 EA       LDA #$EA
CPU State: PC:815F A:EA X:02 Y:00 SP:FD Status:A5 (NV-B DIZC)
RAM State: $00:00 $01:00 $02:00
Timing: Current Emulated Cycle: 4579, Last IRQ Trigger Cycle: 0, Cycles Since Last IRQ: 4579
Emulated Cycles: 4579

815F: 9D 00 C2    STA $C200,X
CPU State: PC:8162 A:EA X:02 Y:00 SP:FD Status:A5 (NV-B DIZC)
RAM State: $00:00 $01:00 $02:00
Timing: Current Emulated Cycle: 4584, Last IRQ Trigger Cycle: 0, Cycles Since Last IRQ: 4584
Emulated Cycles: 4584

8162: E8          INX
CPU State: PC:8163 A:EA X:03 Y:00 SP:FD Status:25 (NV-B DIZC)
RAM State: $00:00 $01:00 $02:00
Timing: Current Emulated Cycle: 4586, Last IRQ Trigger Cycle: 0, Cycles Since Last IRQ: 4586
Emulated Cycles: 4586

8163: D0 F8       BNE $815D
CPU State: PC:815D A:EA X:03 Y:00 SP:FD Status:25 (NV-B DIZC)
RAM State: $00:00 $01:00 $02:00
Timing: Current Emulated Cycle: 4589, Last IRQ Trigger Cycle: 0, Cycles Since Last IRQ: 4589
Emulated Cycles: 4589

815D: A9 EA       LDA #$EA
CPU State: PC:815F A:EA X:03 Y:00 SP:FD Status:A5 (NV-B DIZC)
RAM State: $00:00 $01:00 $02:00
Timing: Current Emulated Cycle: 4591, Last IRQ Trigger Cycle: 0, Cycles Since Last IRQ: 4591
Emulated Cycles: 4591

815F: 9D 00 C2    STA $C200,X
CPU State: PC:8162 A:EA X:03 Y:00 SP:FD Status:A5 (NV-B DIZC)
RAM State: $00:00 $01:00 $02:00
Timing: Current Emulated Cycle: 4596, Last IRQ Trigger Cycle: 0, Cycles Since Last IRQ: 4596
Emulated Cycles: 4596

8162: E8          INX
CPU State: PC:8163 A:EA X:04 Y:00 SP:FD Status:25 (NV-B DIZC)
RAM State: $00:00 $01:00 $02:00
Timing: Current Emulated Cycle: 4598, Last IRQ Trigger Cycle: 0, Cycles Since Last IRQ: 4598
Emulated Cycles: 4598

8163: D0 F8       BNE $815D
CPU State: PC:815D A:EA X:04 Y:00 SP:FD Status:25 (NV-B DIZC)
RAM State: $00:00 $01:00 $02:00
Timing: Current Emulated Cycle: 4601, Last IRQ Trigger Cycle: 0, Cycles Since Last IRQ: 4601
Emulated Cycles: 4601

815D: A9 EA       LDA #$EA
CPU State: PC:815F A:EA X:04 Y:00 SP:FD Status:A5 (NV-B DIZC)
RAM State: $00:00 $01:00 $02:00
Timing: Current Emulated Cycle: 4603, Last IRQ Trigger Cycle: 0, Cycles Since Last IRQ: 4603
Emulated Cycles: 4603

815F: 9D 00 C2    STA $C200,X
CPU State: PC:8162 A:EA X:04 Y:00 SP:FD Status:A5 (NV-B DIZC)
RAM State: $00:00 $01:00 $02:00
Timing: Current Emulated Cycle: 4608, Last IRQ Trigger Cycle: 0, Cycles Since Last IRQ: 4608
Emulated Cycles: 4608

8162: E8          INX
CPU State: PC:8163 A:EA X:05 Y:00 SP:FD Status:25 (NV-B DIZC)
RAM State: $00:00 $01:00 $02:00
Timing: Current Emulated Cycle: 4610, Last IRQ Trigger Cycle: 0, Cycles Since Last IRQ: 4610
Emulated Cycles: 4610

8163: D0 F8       BNE $815D
CPU State: PC:815D A:EA X:05 Y:00 SP:FD Status:25 (NV-B DIZC)
RAM State: $00:00 $01:00 $02:00
Timing: Current Emulated Cycle: 4613, Last IRQ Trigger Cycle: 0, Cycles Since Last IRQ: 4613
Emulated Cycles: 4613

815D: A9 EA       LDA #$EA
CPU State: PC:815F A:EA X:05 Y:00 SP:FD Status:A5 (NV-B DIZC)
RAM State: $00:00 $01:00 $02:00
Timing: Current Emulated Cycle: 4615, Last IRQ Trigger Cycle: 0, Cycles Since Last IRQ: 4615
Emulated Cycles: 4615

815F: 9D 00 C2    STA $C200,X
CPU State: PC:8162 A:EA X:05 Y:00 SP:FD Status:A5 (NV-B DIZC)
RAM State: $00:00 $01:00 $02:00
Timing: Current Emulated Cycle: 4620, Last IRQ Trigger Cycle: 0, Cycles Since Last IRQ: 4620
Emulated Cycles: 4620

8162: E8          INX
CPU State: PC:8163 A:EA X:06 Y:00 SP:FD Status:25 (NV-B DIZC)
RAM State: $00:00 $01:00 $02:00
Timing: Current Emulated Cycle: 4622, Last IRQ Trigger Cycle: 0, Cycles Since Last IRQ: 4622
Emulated Cycles: 4622

8163: D0 F8       BNE $815D
CPU State: PC:815D A:EA X:06 Y:00 SP:FD Status:25 (NV-B DIZC)
RAM State: $00:00 $01:00 $02:00
Timing: Current Emulated Cycle: 4625, Last IRQ Trigger Cycle: 0, Cycles Since Last IRQ: 4625
Emulated Cycles: 4625

815D: A9 EA       LDA #$EA
CPU State: PC:815F A:EA X:06 Y:00 SP:FD Status:A5 (NV-B DIZC)
RAM State: $00:00 $01:00 $02:00
Timing: Current Emulated Cycle: 4627, Last IRQ Trigger Cycle: 0, Cycles Since Last IRQ: 4627
Emulated Cycles: 4627

815F: 9D 00 C2    STA $C200,X
CPU State: PC:8162 A:EA X:06 Y:00 SP:FD Status:A5 (NV-B DIZC)
RAM State: $00:00 $01:00 $02:00
Timing: Current Emulated Cycle: 4632, Last IRQ Trigger Cycle: 0, Cycles Since Last IRQ: 4632
Emulated Cycles: 4632

8162: E8          INX
CPU State: PC:8163 A:EA X:07 Y:00 SP:FD Status:25 (NV-B DIZC)
RAM State: $00:00 $01:00 $02:00
Timing: Current Emulated Cycle: 4634, Last IRQ Trigger Cycle: 0, Cycles Since Last IRQ: 4634
Emulated Cycles: 4634

8163: D0 F8       BNE $815D
CPU State: PC:815D A:EA X:07 Y:00 SP:FD Status:25 (NV-B DIZC)
RAM State: $00:00 $01:00 $02:00
Timing: Current Emulated Cycle: 4637, Last IRQ Trigger Cycle: 0, Cycles Since Last IRQ: 4637
Emulated Cycles: 4637

815D: A9 EA       LDA #$EA
CPU State: PC:815F A:EA X:07 Y:00 SP:FD Status:A5 (NV-B DIZC)
RAM State: $00:00 $01:00 $02:00
Timing: Current Emulated Cycle: 4639, Last IRQ Trigger Cycle: 0, Cycles Since Last IRQ: 4639
Emulated Cycles: 4639

815F: 9D 00 C2    STA $C200,X
CPU State: PC:8162 A:EA X:07 Y:00 SP:FD Status:A5 (NV-B DIZC)
RAM State: $00:00 $01:00 $02:00
Timing: Current Emulated Cycle: 4644, Last IRQ Trigger Cycle: 0, Cycles Since Last IRQ: 4644
Emulated Cycles: 4644

8162: E8          INX
CPU State: PC:8163 A:EA X:08 Y:00 SP:FD Status:25 (NV-B DIZC)
RAM State: $00:00 $01:00 $02:00
Timing: Current Emulated Cycle: 4646, Last IRQ Trigger Cycle: 0, Cycles Since Last IRQ: 4646
Emulated Cycles: 4646

8163: D0 F8       BNE $815D
CPU State: PC:815D A:EA X:08 Y:00 SP:FD Status:25 (NV-B DIZC)
RAM State: $00:00 $01:00 $02:00
Timing: Current Emulated Cycle: 4649, Last IRQ Trigger Cycle: 0, Cycles Since Last IRQ: 4649
Emulated Cycles: 4649

815D: A9 EA       LDA #$EA
CPU State: PC:815F A:EA X:08 Y:00 SP:FD Status:A5 (NV-B DIZC)
RAM State: $00:00 $01:00 $02:00
Timing: Current Emulated Cycle: 4651, Last IRQ Trigger Cycle: 0, Cycles Since Last IRQ: 4651
Emulated Cycles: 4651

815F: 9D 00 C2    STA $C200,X
CPU State: PC:8162 A:EA X:08 Y:00 SP:FD Status:A5 (NV-B DIZC)
RAM State: $00:00 $01:00 $02:00
Timing: Current Emulated Cycle: 4656, Last IRQ Trigger Cycle: 0, Cycles Since Last IRQ: 4656
Emulated Cycles: 4656

8162: E8          INX
CPU State: PC:8163 A:EA X:09 Y:00 SP:FD Status:25 (NV-B DIZC)
RAM State: $00:00 $01:00 $02:00
Timing: Current Emulated Cycle: 4658, Last IRQ Trigger Cycle: 0, Cycles Since Last IRQ: 4658
Emulated Cycles: 4658

8163: D0 F8       BNE $815D
CPU State: PC:815D A:EA X:09 Y:00 SP:FD Status:25 (NV-B DIZC)
RAM State: $00:00 $01:00 $02:00
Timing: Current Emulated Cycle: 4661, Last IRQ Trigger Cycle: 0, Cycles Since Last IRQ: 4661
Emulated Cycles: 4661

815D: A9 EA       LDA #$EA
CPU State: PC:815F A:EA X:09 Y:00 SP:FD Status:A5 (NV-B DIZC)
RAM State: $00:00 $01:00 $02:00
Timing: Current Emulated Cycle: 4663, Last IRQ Trigger Cycle: 0, Cycles Since Last IRQ: 4663
Emulated Cycles: 4663

815F: 9D 00 C2    STA $C200,X
CPU State: PC:8162 A:EA X:09 Y:00 SP:FD Status:A5 (NV-B DIZC)
RAM State: $00:00 $01:00 $02:00
Timing: Current Emulated Cycle: 4668, Last IRQ Trigger Cycle: 0, Cycles Since Last IRQ: 4668
Emulated Cycles: 4668

8162: E8          INX
CPU State: PC:8163 A:EA X:0A Y:00 SP:FD Status:25 (NV-B DIZC)
RAM State: $00:00 $01:00 $02:00
Timing: Current Emulated Cycle: 4670, Last IRQ Trigger Cycle: 0, Cycles Since Last IRQ: 4670
Emulated Cycles: 4670

8163: D0 F8       BNE $815D
CPU State: PC:815D A:EA X:0A Y:00 SP:FD Status:25 (NV-B DIZC)
RAM State: $00:00 $01:00 $02:00
Timing: Current Emulated Cycle: 4673, Last IRQ Trigger Cycle: 0, Cycles Since Last IRQ: 4673
Emulated Cycles: 4673

815D: A9 EA       LDA #$EA
CPU State: PC:815F A:EA X:0A Y:00 SP:FD Status:A5 (NV-B DIZC)
RAM State: $00:00 $01:00 $02:00
Timing: Current Emulated Cycle: 4675, Last IRQ Trigger Cycle: 0, Cycles Since Last IRQ: 4675
Emulated Cycles: 4675

815F: 9D 00 C2    STA $C200,X
CPU State: PC:8162 A:EA X:0A Y:00 SP:FD Status:A5 (NV-B DIZC)
RAM State: $00:00 $01:00 $02:00
Timing: Current Emulated Cycle: 4680, Last IRQ Trigger Cycle: 0, Cycles Since Last IRQ: 4680
Emulated Cycles: 4680

8162: E8          INX
CPU State: PC:8163 A:EA X:0B Y:00 SP:FD Status:25 (NV-B DIZC)
RAM State: $00:00 $01:00 $02:00
Timing: Current Emulated Cycle: 4682, Last IRQ Trigger Cycle: 0, Cycles Since Last IRQ: 4682
Emulated Cycles: 4682

8163: D0 F8       BNE $815D
CPU State: PC:815D A:EA X:0B Y:00 SP:FD Status:25 (NV-B DIZC)
RAM State: $00:00 $01:00 $02:00
Timing: Current Emulated Cycle: 4685, Last IRQ Trigger Cycle: 0, Cycles Since Last IRQ: 4685
Emulated Cycles: 4685

815D: A9 EA       LDA #$EA
CPU State: PC:815F A:EA X:0B Y:00 SP:FD Status:A5 (NV-B DIZC)
RAM State: $00:00 $01:00 $02:00
Timing: Current Emulated Cycle: 4687, Last IRQ Trigger Cycle: 0, Cycles Since Last IRQ: 4687
Emulated Cycles: 4687

815F: 9D 00 C2    STA $C200,X
CPU State: PC:8162 A:EA X:0B Y:00 SP:FD Status:A5 (NV-B DIZC)
RAM State: $00:00 $01:00 $02:00
Timing: Current Emulated Cycle: 4692, Last IRQ Trigger Cycle: 0, Cycles Since Last IRQ: 4692
Emulated Cycles: 4692

8162: E8          INX
CPU State: PC:8163 A:EA X:0C Y:00 SP:FD Status:25 (NV-B DIZC)
RAM State: $00:00 $01:00 $02:00
Timing: Current Emulated Cycle: 4694, Last IRQ Trigger Cycle: 0, Cycles Since Last IRQ: 4694
Emulated Cycles: 4694

8163: D0 F8       BNE $815D
CPU State: PC:815D A:EA X:0C Y:00 SP:FD Status:25 (NV-B DIZC)
RAM State: $00:00 $01:00 $02:00
Timing: Current Emulated Cycle: 4697, Last IRQ Trigger Cycle: 0, Cycles Since Last IRQ: 4697
Emulated Cycles: 4697

815D: A9 EA       LDA #$EA
CPU State: PC:815F A:EA X:0C Y:00 SP:FD Status:A5 (NV-B DIZC)
RAM State: $00:00 $01:00 $02:00
Timing: Current Emulated Cycle: 4699, Last IRQ Trigger Cycle: 0, Cycles Since Last IRQ: 4699
Emulated Cycles: 4699

815F: 9D 00 C2    STA $C200,X
CPU State: PC:8162 A:EA X:0C Y:00 SP:FD Status:A5 (NV-B DIZC)
RAM State: $00:00 $01:00 $02:00
Timing: Current Emulated Cycle: 4704, Last IRQ Trigger Cycle: 0, Cycles Since Last IRQ: 4704
Emulated Cycles: 4704

8162: E8          INX
CPU State: PC:8163 A:EA X:0D Y:00 SP:FD Status:25 (NV-B DIZC)
RAM State: $00:00 $01:00 $02:00
Timing: Current Emulated Cycle: 4706, Last IRQ Trigger Cycle: 0, Cycles Since Last IRQ: 4706
Emulated Cycles: 4706

8163: D0 F8       BNE $815D
CPU State: PC:815D A:EA X:0D Y:00 SP:FD Status:25 (NV-B DIZC)
RAM State: $00:00 $01:00 $02:00
Timing: Current Emulated Cycle: 4709, Last IRQ Trigger Cycle: 0, Cycles Since Last IRQ: 4709
Emulated Cycles: 4709

815D: A9 EA       LDA #$EA
CPU State: PC:815F A:EA X:0D Y:00 SP:FD Status:A5 (NV-B DIZC)
RAM State: $00:00 $01:00 $02:00
Timing: Current Emulated Cycle: 4711, Last IRQ Trigger Cycle: 0, Cycles Since Last IRQ: 4711
Emulated Cycles: 4711

815F: 9D 00 C2    STA $C200,X
CPU State: PC:8162 A:EA X:0D Y:00 SP:FD Status:A5 (NV-B DIZC)
RAM State: $00:00 $01:00 $02:00
Timing: Current Emulated Cycle: 4716, Last IRQ Trigger Cycle: 0, Cycles Since Last IRQ: 4716
Emulated Cycles: 4716

8162: E8          INX
CPU State: PC:8163 A:EA X:0E Y:00 SP:FD Status:25 (NV-B DIZC)
RAM State: $00:00 $01:00 $02:00
Timing: Current Emulated Cycle: 4718, Last IRQ Trigger Cycle: 0, Cycles Since Last IRQ: 4718
Emulated Cycles: 4718

8163: D0 F8       BNE $815D
CPU State: PC:815D A:EA X:0E Y:00 SP:FD Status:25 (NV-B DIZC)
RAM State: $00:00 $01:00 $02:00
Timing: Current Emulated Cycle: 4721, Last IRQ Trigger Cycle: 0, Cycles Since Last IRQ: 4721
Emulated Cycles: 4721

815D: A9 EA       LDA #$EA
CPU State: PC:815F A:EA X:0E Y:00 SP:FD Status:A5 (NV-B DIZC)
RAM State: $00:00 $01:00 $02:00
Timing: Current Emulated Cycle: 4723, Last IRQ Trigger Cycle: 0, Cycles Since Last IRQ: 4723
Emulated Cycles: 4723

815F: 9D 00 C2    STA $C200,X
CPU State: PC:8162 A:EA X:0E Y:00 SP:FD Status:A5 (NV-B DIZC)
RAM State: $00:00 $01:00 $02:00
Timing: Current Emulated Cycle: 4728, Last IRQ Trigger Cycle: 0, Cycles Since Last IRQ: 4728
Emulated Cycles: 4728

8162: E8          INX
CPU State: PC:8163 A:EA X:0F Y:00 SP:FD Status:25 (NV-B DIZC)
RAM State: $00:00 $01:00 $02:00
Timing: Current Emulated Cycle: 4730, Last IRQ Trigger Cycle: 0, Cycles Since Last IRQ: 4730
Emulated Cycles: 4730

8163: D0 F8       BNE $815D
CPU State: PC:815D A:EA X:0F Y:00 SP:FD Status:25 (NV-B DIZC)
RAM State: $00:00 $01:00 $02:00
Timing: Current Emulated Cycle: 4733, Last IRQ Trigger Cycle: 0, Cycles Since Last IRQ: 4733
Emulated Cycles: 4733

815D: A9 EA       LDA #$EA
CPU State: PC:815F A:EA X:0F Y:00 SP:FD Status:A5 (NV-B DIZC)
RAM State: $00:00 $01:00 $02:00
Timing: Current Emulated Cycle: 4735, Last IRQ Trigger Cycle: 0, Cycles Since Last IRQ: 4735
Emulated Cycles: 4735

815F: 9D 00 C2    STA $C200,X
CPU State: PC:8162 A:EA X:0F Y:00 SP:FD Status:A5 (NV-B DIZC)
RAM State: $00:00 $01:00 $02:00
Timing: Current Emulated Cycle: 4740, Last IRQ Trigger Cycle: 0, Cycles Since Last IRQ: 4740
Emulated Cycles: 4740

8162: E8          INX
CPU State: PC:8163 A:EA X:10 Y:00 SP:FD Status:25 (NV-B DIZC)
RAM State: $00:00 $01:00 $02:00
Timing: Current Emulated Cycle: 4742, Last IRQ Trigger Cycle: 0, Cycles Since Last IRQ: 4742
Emulated Cycles: 4742

8163: D0 F8       BNE $815D
CPU State: PC:815D A:EA X:10 Y:00 SP:FD Status:25 (NV-B DIZC)
RAM State: $00:00 $01:00 $02:00
Timing: Current Emulated Cycle: 4745, Last IRQ Trigger Cycle: 0, Cycles Since Last IRQ: 4745
Emulated Cycles: 4745

815D: A9 EA       LDA #$EA
CPU State: PC:815F A:EA X:10 Y:00 SP:FD Status:A5 (NV-B DIZC)
RAM State: $00:00 $01:00 $02:00
Timing: Current Emulated Cycle: 4747, Last IRQ Trigger Cycle: 0, Cycles Since Last IRQ: 4747
Emulated Cycles: 4747

815F: 9D 00 C2    STA $C200,X
CPU State: PC:8162 A:EA X:10 Y:00 SP:FD Status:A5 (NV-B DIZC)
RAM State: $00:00 $01:00 $02:00
Timing: Current Emulated Cycle: 4752, Last IRQ Trigger Cycle: 0, Cycles Since Last IRQ: 4752
Emulated Cycles: 4752

8162: E8          INX
CPU State: PC:8163 A:EA X:11 Y:00 SP:FD Status:25 (NV-B DIZC)
RAM State: $00:00 $01:00 $02:00
Timing: Current Emulated Cycle: 4754, Last IRQ Trigger Cycle: 0, Cycles Since Last IRQ: 4754
Emulated Cycles: 4754

8163: D0 F8       BNE $815D
CPU State: PC:815D A:EA X:11 Y:00 SP:FD Status:25 (NV-B DIZC)
RAM State: $00:00 $01:00 $02:00
Timing: Current Emulated Cycle: 4757, Last IRQ Trigger Cycle: 0, Cycles Since Last IRQ: 4757
Emulated Cycles: 4757

815D: A9 EA       LDA #$EA
CPU State: PC:815F A:EA X:11 Y:00 SP:FD Status:A5 (NV-B DIZC)
RAM State: $00:00 $01:00 $02:00
Timing: Current Emulated Cycle: 4759, Last IRQ Trigger Cycle: 0, Cycles Since Last IRQ: 4759
Emulated Cycles: 4759

815F: 9D 00 C2    STA $C200,X
CPU State: PC:8162 A:EA X:11 Y:00 SP:FD Status:A5 (NV-B DIZC)
RAM State: $00:00 $01:00 $02:00
Timing: Current Emulated Cycle: 4764, Last IRQ Trigger Cycle: 0, Cycles Since Last IRQ: 4764
Emulated Cycles: 4764

8162: E8          INX
CPU State: PC:8163 A:EA X:12 Y:00 SP:FD Status:25 (NV-B DIZC)
RAM State: $00:00 $01:00 $02:00
Timing: Current Emulated Cycle: 4766, Last IRQ Trigger Cycle: 0, Cycles Since Last IRQ: 4766
Emulated Cycles: 4766

8163: D0 F8       BNE $815D
CPU State: PC:815D A:EA X:12 Y:00 SP:FD Status:25 (NV-B DIZC)
RAM State: $00:00 $01:00 $02:00
Timing: Current Emulated Cycle: 4769, Last IRQ Trigger Cycle: 0, Cycles Since Last IRQ: 4769
Emulated Cycles: 4769

815D: A9 EA       LDA #$EA
CPU State: PC:815F A:EA X:12 Y:00 SP:FD Status:A5 (NV-B DIZC)
RAM State: $00:00 $01:00 $02:00
Timing: Current Emulated Cycle: 4771, Last IRQ Trigger Cycle: 0, Cycles Since Last IRQ: 4771
Emulated Cycles: 4771

815F: 9D 00 C2    STA $C200,X
CPU State: PC:8162 A:EA X:12 Y:00 SP:FD Status:A5 (NV-B DIZC)
RAM State: $00:00 $01:00 $02:00
Timing: Current Emulated Cycle: 4776, Last IRQ Trigger Cycle: 0, Cycles Since Last IRQ: 4776
Emulated Cycles: 4776

8162: E8          INX
CPU State: PC:8163 A:EA X:13 Y:00 SP:FD Status:25 (NV-B DIZC)
RAM State: $00:00 $01:00 $02:00
Timing: Current Emulated Cycle: 4778, Last IRQ Trigger Cycle: 0, Cycles Since Last IRQ: 4778
Emulated Cycles: 4778

8163: D0 F8       BNE $815D
CPU State: PC:815D A:EA X:13 Y:00 SP:FD Status:25 (NV-B DIZC)
RAM State: $00:00 $01:00 $02:00
Timing: Current Emulated Cycle: 4781, Last IRQ Trigger Cycle: 0, Cycles Since Last IRQ: 4781
Emulated Cycles: 4781

815D: A9 EA       LDA #$EA
CPU State: PC:815F A:EA X:13 Y:00 SP:FD Status:A5 (NV-B DIZC)
RAM State: $00:00 $01:00 $02:00
Timing: Current Emulated Cycle: 4783, Last IRQ Trigger Cycle: 0, Cycles Since Last IRQ: 4783
Emulated Cycles: 4783

815F: 9D 00 C2    STA $C200,X
CPU State: PC:8162 A:EA X:13 Y:00 SP:FD Status:A5 (NV-B DIZC)
RAM State: $00:00 $01:00 $02:00
Timing: Current Emulated Cycle: 4788, Last IRQ Trigger Cycle: 0, Cycles Since Last IRQ: 4788
Emulated Cycles: 4788

8162: E8          INX
CPU State: PC:8163 A:EA X:14 Y:00 SP:FD Status:25 (NV-B DIZC)
RAM State: $00:00 $01:00 $02:00
Timing: Current Emulated Cycle: 4790, Last IRQ Trigger Cycle: 0, Cycles Since Last IRQ: 4790
Emulated Cycles: 4790

8163: D0 F8       BNE $815D
CPU State: PC:815D A:EA X:14 Y:00 SP:FD Status:25 (NV-B DIZC)
RAM State: $00:00 $01:00 $02:00
Timing: Current Emulated Cycle: 4793, Last IRQ Trigger Cycle: 0, Cycles Since Last IRQ: 4793
Emulated Cycles: 4793

815D: A9 EA       LDA #$EA
CPU State: PC:815F A:EA X:14 Y:00 SP:FD Status:A5 (NV-B DIZC)
RAM State: $00:00 $01:00 $02:00
Timing: Current Emulated Cycle: 4795, Last IRQ Trigger Cycle: 0, Cycles Since Last IRQ: 4795
Emulated Cycles: 4795

815F: 9D 00 C2    STA $C200,X
CPU State: PC:8162 A:EA X:14 Y:00 SP:FD Status:A5 (NV-B DIZC)
RAM State: $00:00 $01:00 $02:00
Timing: Current Emulated Cycle: 4800, Last IRQ Trigger Cycle: 0, Cycles Since Last IRQ: 4800
Emulated Cycles: 4800

8162: E8          INX
CPU State: PC:8163 A:EA X:15 Y:00 SP:FD Status:25 (NV-B DIZC)
RAM State: $00:00 $01:00 $02:00
Timing: Current Emulated Cycle: 4802, Last IRQ Trigger Cycle: 0, Cycles Since Last IRQ: 4802
Emulated Cycles: 4802

8163: D0 F8       BNE $815D
CPU State: PC:815D A:EA X:15 Y:00 SP:FD Status:25 (NV-B DIZC)
RAM State: $00:00 $01:00 $02:00
Timing: Current Emulated Cycle: 4805, Last IRQ Trigger Cycle: 0, Cycles Since Last IRQ: 4805
Emulated Cycles: 4805

815D: A9 EA       LDA #$EA
CPU State: PC:815F A:EA X:15 Y:00 SP:FD Status:A5 (NV-B DIZC)
RAM State: $00:00 $01:00 $02:00
Timing: Current Emulated Cycle: 4807, Last IRQ Trigger Cycle: 0, Cycles Since Last IRQ: 4807
Emulated Cycles: 4807

815F: 9D 00 C2    STA $C200,X
CPU State: PC:8162 A:EA X:15 Y:00 SP:FD Status:A5 (NV-B DIZC)
RAM State: $00:00 $01:00 $02:00
Timing: Current Emulated Cycle: 4812, Last IRQ Trigger Cycle: 0, Cycles Since Last IRQ: 4812
Emulated Cycles: 4812

8162: E8          INX
CPU State: PC:8163 A:EA X:16 Y:00 SP:FD Status:25 (NV-B DIZC)
RAM State: $00:00 $01:00 $02:00
Timing: Current Emulated Cycle: 4814, Last IRQ Trigger Cycle: 0, Cycles Since Last IRQ: 4814
Emulated Cycles: 4814

8163: D0 F8       BNE $815D
CPU State: PC:815D A:EA X:16 Y:00 SP:FD Status:25 (NV-B DIZC)
RAM State: $00:00 $01:00 $02:00
Timing: Current Emulated Cycle: 4817, Last IRQ Trigger Cycle: 0, Cycles Since Last IRQ: 4817
Emulated Cycles: 4817

815D: A9 EA       LDA #$EA
CPU State: PC:815F A:EA X:16 Y:00 SP:FD Status:A5 (NV-B DIZC)
RAM State: $00:00 $01:00 $02:00
Timing: Current Emulated Cycle: 4819, Last IRQ Trigger Cycle: 0, Cycles Since Last IRQ: 4819
Emulated Cycles: 4819

815F: 9D 00 C2    STA $C200,X
CPU State: PC:8162 A:EA X:16 Y:00 SP:FD Status:A5 (NV-B DIZC)
RAM State: $00:00 $01:00 $02:00
Timing: Current Emulated Cycle: 4824, Last IRQ Trigger Cycle: 0, Cycles Since Last IRQ: 4824
Emulated Cycles: 4824

8162: E8          INX
CPU State: PC:8163 A:EA X:17 Y:00 SP:FD Status:25 (NV-B DIZC)
RAM State: $00:00 $01:00 $02:00
Timing: Current Emulated Cycle: 4826, Last IRQ Trigger Cycle: 0, Cycles Since Last IRQ: 4826
Emulated Cycles: 4826

8163: D0 F8       BNE $815D
CPU State: PC:815D A:EA X:17 Y:00 SP:FD Status:25 (NV-B DIZC)
RAM State: $00:00 $01:00 $02:00
Timing: Current Emulated Cycle: 4829, Last IRQ Trigger Cycle: 0, Cycles Since Last IRQ: 4829
Emulated Cycles: 4829

815D: A9 EA       LDA #$EA
CPU State: PC:815F A:EA X:17 Y:00 SP:FD Status:A5 (NV-B DIZC)
RAM State: $00:00 $01:00 $02:00
Timing: Current Emulated Cycle: 4831, Last IRQ Trigger Cycle: 0, Cycles Since Last IRQ: 4831
Emulated Cycles: 4831

815F: 9D 00 C2    STA $C200,X
CPU State: PC:8162 A:EA X:17 Y:00 SP:FD Status:A5 (NV-B DIZC)
RAM State: $00:00 $01:00 $02:00
Timing: Current Emulated Cycle: 4836, Last IRQ Trigger Cycle: 0, Cycles Since Last IRQ: 4836
Emulated Cycles: 4836

8162: E8          INX
CPU State: PC:8163 A:EA X:18 Y:00 SP:FD Status:25 (NV-B DIZC)
RAM State: $00:00 $01:00 $02:00
Timing: Current Emulated Cycle: 4838, Last IRQ Trigger Cycle: 0, Cycles Since Last IRQ: 4838
Emulated Cycles: 4838

8163: D0 F8       BNE $815D
CPU State: PC:815D A:EA X:18 Y:00 SP:FD Status:25 (NV-B DIZC)
RAM State: $00:00 $01:00 $02:00
Timing: Current Emulated Cycle: 4841, Last IRQ Trigger Cycle: 0, Cycles Since Last IRQ: 4841
Emulated Cycles: 4841

815D: A9 EA       LDA #$EA
CPU State: PC:815F A:EA X:18 Y:00 SP:FD Status:A5 (NV-B DIZC)
RAM State: $00:00 $01:00 $02:00
Timing: Current Emulated Cycle: 4843, Last IRQ Trigger Cycle: 0, Cycles Since Last IRQ: 4843
Emulated Cycles: 4843

815F: 9D 00 C2    STA $C200,X
CPU State: PC:8162 A:EA X:18 Y:00 SP:FD Status:A5 (NV-B DIZC)
RAM State: $00:00 $01:00 $02:00
Timing: Current Emulated Cycle: 4848, Last IRQ Trigger Cycle: 0, Cycles Since Last IRQ: 4848
Emulated Cycles: 4848

8162: E8          INX
CPU State: PC:8163 A:EA X:19 Y:00 SP:FD Status:25 (NV-B DIZC)
RAM State: $00:00 $01:00 $02:00
Timing: Current Emulated Cycle: 4850, Last IRQ Trigger Cycle: 0, Cycles Since Last IRQ: 4850
Emulated Cycles: 4850

8163: D0 F8       BNE $815D
CPU State: PC:815D A:EA X:19 Y:00 SP:FD Status:25 (NV-B DIZC)
RAM State: $00:00 $01:00 $02:00
Timing: Current Emulated Cycle: 4853, Last IRQ Trigger Cycle: 0, Cycles Since Last IRQ: 4853
Emulated Cycles: 4853

815D: A9 EA       LDA #$EA
CPU State: PC:815F A:EA X:19 Y:00 SP:FD Status:A5 (NV-B DIZC)
RAM State: $00:00 $01:00 $02:00
Timing: Current Emulated Cycle: 4855, Last IRQ Trigger Cycle: 0, Cycles Since Last IRQ: 4855
Emulated Cycles: 4855

815F: 9D 00 C2    STA $C200,X
CPU State: PC:8162 A:EA X:19 Y:00 SP:FD Status:A5 (NV-B DIZC)
RAM State: $00:00 $01:00 $02:00
Timing: Current Emulated Cycle: 4860, Last IRQ Trigger Cycle: 0, Cycles Since Last IRQ: 4860
Emulated Cycles: 4860

8162: E8          INX
CPU State: PC:8163 A:EA X:1A Y:00 SP:FD Status:25 (NV-B DIZC)
RAM State: $00:00 $01:00 $02:00
Timing: Current Emulated Cycle: 4862, Last IRQ Trigger Cycle: 0, Cycles Since Last IRQ: 4862
Emulated Cycles: 4862

8163: D0 F8       BNE $815D
CPU State: PC:815D A:EA X:1A Y:00 SP:FD Status:25 (NV-B DIZC)
RAM State: $00:00 $01:00 $02:00
Timing: Current Emulated Cycle: 4865, Last IRQ Trigger Cycle: 0, Cycles Since Last IRQ: 4865
Emulated Cycles: 4865

815D: A9 EA       LDA #$EA
CPU State: PC:815F A:EA X:1A Y:00 SP:FD Status:A5 (NV-B DIZC)
RAM State: $00:00 $01:00 $02:00
Timing: Current Emulated Cycle: 4867, Last IRQ Trigger Cycle: 0, Cycles Since Last IRQ: 4867
Emulated Cycles: 4867

815F: 9D 00 C2    STA $C200,X
CPU State: PC:8162 A:EA X:1A Y:00 SP:FD Status:A5 (NV-B DIZC)
RAM State: $00:00 $01:00 $02:00
Timing: Current Emulated Cycle: 4872, Last IRQ Trigger Cycle: 0, Cycles Since Last IRQ: 4872
Emulated Cycles: 4872

8162: E8          INX
CPU State: PC:8163 A:EA X:1B Y:00 SP:FD Status:25 (NV-B DIZC)
RAM State: $00:00 $01:00 $02:00
Timing: Current Emulated Cycle: 4874, Last IRQ Trigger Cycle: 0, Cycles Since Last IRQ: 4874
Emulated Cycles: 4874

8163: D0 F8       BNE $815D
CPU State: PC:815D A:EA X:1B Y:00 SP:FD Status:25 (NV-B DIZC)
RAM State: $00:00 $01:00 $02:00
Timing: Current Emulated Cycle: 4877, Last IRQ Trigger Cycle: 0, Cycles Since Last IRQ: 4877
Emulated Cycles: 4877

815D: A9 EA       LDA #$EA
CPU State: PC:815F A:EA X:1B Y:00 SP:FD Status:A5 (NV-B DIZC)
RAM State: $00:00 $01:00 $02:00
Timing: Current Emulated Cycle: 4879, Last IRQ Trigger Cycle: 0, Cycles Since Last IRQ: 4879
Emulated Cycles: 4879

815F: 9D 00 C2    STA $C200,X
CPU State: PC:8162 A:EA X:1B Y:00 SP:FD Status:A5 (NV-B DIZC)
RAM State: $00:00 $01:00 $02:00
Timing: Current Emulated Cycle: 4884, Last IRQ Trigger Cycle: 0, Cycles Since Last IRQ: 4884
Emulated Cycles: 4884

8162: E8          INX
CPU State: PC:8163 A:EA X:1C Y:00 SP:FD Status:25 (NV-B DIZC)
RAM State: $00:00 $01:00 $02:00
Timing: Current Emulated Cycle: 4886, Last IRQ Trigger Cycle: 0, Cycles Since Last IRQ: 4886
Emulated Cycles: 4886

8163: D0 F8       BNE $815D
CPU State: PC:815D A:EA X:1C Y:00 SP:FD Status:25 (NV-B DIZC)
RAM State: $00:00 $01:00 $02:00
Timing: Current Emulated Cycle: 4889, Last IRQ Trigger Cycle: 0, Cycles Since Last IRQ: 4889
Emulated Cycles: 4889

815D: A9 EA       LDA #$EA
CPU State: PC:815F A:EA X:1C Y:00 SP:FD Status:A5 (NV-B DIZC)
RAM State: $00:00 $01:00 $02:00
Timing: Current Emulated Cycle: 4891, Last IRQ Trigger Cycle: 0, Cycles Since Last IRQ: 4891
Emulated Cycles: 4891

815F: 9D 00 C2    STA $C200,X
CPU State: PC:8162 A:EA X:1C Y:00 SP:FD Status:A5 (NV-B DIZC)
RAM State: $00:00 $01:00 $02:00
Timing: Current Emulated Cycle: 4896, Last IRQ Trigger Cycle: 0, Cycles Since Last IRQ: 4896
Emulated Cycles: 4896

8162: E8          INX
CPU State: PC:8163 A:EA X:1D Y:00 SP:FD Status:25 (NV-B DIZC)
RAM State: $00:00 $01:00 $02:00
Timing: Current Emulated Cycle: 4898, Last IRQ Trigger Cycle: 0, Cycles Since Last IRQ: 4898
Emulated Cycles: 4898

8163: D0 F8       BNE $815D
CPU State: PC:815D A:EA X:1D Y:00 SP:FD Status:25 (NV-B DIZC)
RAM State: $00:00 $01:00 $02:00
Timing: Current Emulated Cycle: 4901, Last IRQ Trigger Cycle: 0, Cycles Since Last IRQ: 4901
Emulated Cycles: 4901

815D: A9 EA       LDA #$EA
CPU State: PC:815F A:EA X:1D Y:00 SP:FD Status:A5 (NV-B DIZC)
RAM State: $00:00 $01:00 $02:00
Timing: Current Emulated Cycle: 4903, Last IRQ Trigger Cycle: 0, Cycles Since Last IRQ: 4903
Emulated Cycles: 4903

815F: 9D 00 C2    STA $C200,X
CPU State: PC:8162 A:EA X:1D Y:00 SP:FD Status:A5 (NV-B DIZC)
RAM State: $00:00 $01:00 $02:00
Timing: Current Emulated Cycle: 4908, Last IRQ Trigger Cycle: 0, Cycles Since Last IRQ: 4908
Emulated Cycles: 4908

8162: E8          INX
CPU State: PC:8163 A:EA X:1E Y:00 SP:FD Status:25 (NV-B DIZC)
RAM State: $00:00 $01:00 $02:00
Timing: Current Emulated Cycle: 4910, Last IRQ Trigger Cycle: 0, Cycles Since Last IRQ: 4910
Emulated Cycles: 4910

8163: D0 F8       BNE $815D
CPU State: PC:815D A:EA X:1E Y:00 SP:FD Status:25 (NV-B DIZC)
RAM State: $00:00 $01:00 $02:00
Timing: Current Emulated Cycle: 4913, Last IRQ Trigger Cycle: 0, Cycles Since Last IRQ: 4913
Emulated Cycles: 4913

815D: A9 EA       LDA #$EA
CPU State: PC:815F A:EA X:1E Y:00 SP:FD Status:A5 (NV-B DIZC)
RAM State: $00:00 $01:00 $02:00
Timing: Current Emulated Cycle: 4915, Last IRQ Trigger Cycle: 0, Cycles Since Last IRQ: 4915
Emulated Cycles: 4915

815F: 9D 00 C2    STA $C200,X
CPU State: PC:8162 A:EA X:1E Y:00 SP:FD Status:A5 (NV-B DIZC)
RAM State: $00:00 $01:00 $02:00
Timing: Current Emulated Cycle: 4920, Last IRQ Trigger Cycle: 0, Cycles Since Last IRQ: 4920
Emulated Cycles: 4920

8162: E8          INX
CPU State: PC:8163 A:EA X:1F Y:00 SP:FD Status:25 (NV-B DIZC)
RAM State: $00:00 $01:00 $02:00
Timing: Current Emulated Cycle: 4922, Last IRQ Trigger Cycle: 0, Cycles Since Last IRQ: 4922
Emulated Cycles: 4922

8163: D0 F8       BNE $815D
CPU State: PC:815D A:EA X:1F Y:00 SP:FD Status:25 (NV-B DIZC)
RAM State: $00:00 $01:00 $02:00
Timing: Current Emulated Cycle: 4925, Last IRQ Trigger Cycle: 0, Cycles Since Last IRQ: 4925
Emulated Cycles: 4925

815D: A9 EA       LDA #$EA
CPU State: PC:815F A:EA X:1F Y:00 SP:FD Status:A5 (NV-B DIZC)
RAM State: $00:00 $01:00 $02:00
Timing: Current Emulated Cycle: 4927, Last IRQ Trigger Cycle: 0, Cycles Since Last IRQ: 4927
Emulated Cycles: 4927

815F: 9D 00 C2    STA $C200,X
CPU State: PC:8162 A:EA X:1F Y:00 SP:FD Status:A5 (NV-B DIZC)
RAM State: $00:00 $01:00 $02:00
Timing: Current Emulated Cycle: 4932, Last IRQ Trigger Cycle: 0, Cycles Since Last IRQ: 4932
Emulated Cycles: 4932

8162: E8          INX
CPU State: PC:8163 A:EA X:20 Y:00 SP:FD Status:25 (NV-B DIZC)
RAM State: $00:00 $01:00 $02:00
Timing: Current Emulated Cycle: 4934, Last IRQ Trigger Cycle: 0, Cycles Since Last IRQ: 4934
Emulated Cycles: 4934

8163: D0 F8       BNE $815D
CPU State: PC:815D A:EA X:20 Y:00 SP:FD Status:25 (NV-B DIZC)
RAM State: $00:00 $01:00 $02:00
Timing: Current Emulated Cycle: 4937, Last IRQ Trigger Cycle: 0, Cycles Since Last IRQ: 4937
Emulated Cycles: 4937

815D: A9 EA       LDA #$EA
CPU State: PC:815F A:EA X:20 Y:00 SP:FD Status:A5 (NV-B DIZC)
RAM State: $00:00 $01:00 $02:00
Timing: Current Emulated Cycle: 4939, Last IRQ Trigger Cycle: 0, Cycles Since Last IRQ: 4939
Emulated Cycles: 4939

815F: 9D 00 C2    STA $C200,X
CPU State: PC:8162 A:EA X:20 Y:00 SP:FD Status:A5 (NV-B DIZC)
RAM State: $00:00 $01:00 $02:00
Timing: Current Emulated Cycle: 4944, Last IRQ Trigger Cycle: 0, Cycles Since Last IRQ: 4944
Emulated Cycles: 4944

8162: E8          INX
CPU State: PC:8163 A:EA X:21 Y:00 SP:FD Status:25 (NV-B DIZC)
RAM State: $00:00 $01:00 $02:00
Timing: Current Emulated Cycle: 4946, Last IRQ Trigger Cycle: 0, Cycles Since Last IRQ: 4946
Emulated Cycles: 4946

8163: D0 F8       BNE $815D
CPU State: PC:815D A:EA X:21 Y:00 SP:FD Status:25 (NV-B DIZC)
RAM State: $00:00 $01:00 $02:00
Timing: Current Emulated Cycle: 4949, Last IRQ Trigger Cycle: 0, Cycles Since Last IRQ: 4949
Emulated Cycles: 4949

815D: A9 EA       LDA #$EA
CPU State: PC:815F A:EA X:21 Y:00 SP:FD Status:A5 (NV-B DIZC)
RAM State: $00:00 $01:00 $02:00
Timing: Current Emulated Cycle: 4951, Last IRQ Trigger Cycle: 0, Cycles Since Last IRQ: 4951
Emulated Cycles: 4951

815F: 9D 00 C2    STA $C200,X
CPU State: PC:8162 A:EA X:21 Y:00 SP:FD Status:A5 (NV-B DIZC)
RAM State: $00:00 $01:00 $02:00
Timing: Current Emulated Cycle: 4956, Last IRQ Trigger Cycle: 0, Cycles Since Last IRQ: 4956
Emulated Cycles: 4956

8162: E8          INX
CPU State: PC:8163 A:EA X:22 Y:00 SP:FD Status:25 (NV-B DIZC)
RAM State: $00:00 $01:00 $02:00
Timing: Current Emulated Cycle: 4958, Last IRQ Trigger Cycle: 0, Cycles Since Last IRQ: 4958
Emulated Cycles: 4958

8163: D0 F8       BNE $815D
CPU State: PC:815D A:EA X:22 Y:00 SP:FD Status:25 (NV-B DIZC)
RAM State: $00:00 $01:00 $02:00
Timing: Current Emulated Cycle: 4961, Last IRQ Trigger Cycle: 0, Cycles Since Last IRQ: 4961
Emulated Cycles: 4961

815D: A9 EA       LDA #$EA
CPU State: PC:815F A:EA X:22 Y:00 SP:FD Status:A5 (NV-B DIZC)
RAM State: $00:00 $01:00 $02:00
Timing: Current Emulated Cycle: 4963, Last IRQ Trigger Cycle: 0, Cycles Since Last IRQ: 4963
Emulated Cycles: 4963

815F: 9D 00 C2    STA $C200,X
CPU State: PC:8162 A:EA X:22 Y:00 SP:FD Status:A5 (NV-B DIZC)
RAM State: $00:00 $01:00 $02:00
Timing: Current Emulated Cycle: 4968, Last IRQ Trigger Cycle: 0, Cycles Since Last IRQ: 4968
Emulated Cycles: 4968

8162: E8          INX
CPU State: PC:8163 A:EA X:23 Y:00 SP:FD Status:25 (NV-B DIZC)
RAM State: $00:00 $01:00 $02:00
Timing: Current Emulated Cycle: 4970, Last IRQ Trigger Cycle: 0, Cycles Since Last IRQ: 4970
Emulated Cycles: 4970

8163: D0 F8       BNE $815D
CPU State: PC:815D A:EA X:23 Y:00 SP:FD Status:25 (NV-B DIZC)
RAM State: $00:00 $01:00 $02:00
Timing: Current Emulated Cycle: 4973, Last IRQ Trigger Cycle: 0, Cycles Since Last IRQ: 4973
Emulated Cycles: 4973

815D: A9 EA       LDA #$EA
CPU State: PC:815F A:EA X:23 Y:00 SP:FD Status:A5 (NV-B DIZC)
RAM State: $00:00 $01:00 $02:00
Timing: Current Emulated Cycle: 4975, Last IRQ Trigger Cycle: 0, Cycles Since Last IRQ: 4975
Emulated Cycles: 4975

815F: 9D 00 C2    STA $C200,X
CPU State: PC:8162 A:EA X:23 Y:00 SP:FD Status:A5 (NV-B DIZC)
RAM State: $00:00 $01:00 $02:00
Timing: Current Emulated Cycle: 4980, Last IRQ Trigger Cycle: 0, Cycles Since Last IRQ: 4980
Emulated Cycles: 4980

8162: E8          INX
CPU State: PC:8163 A:EA X:24 Y:00 SP:FD Status:25 (NV-B DIZC)
RAM State: $00:00 $01:00 $02:00
Timing: Current Emulated Cycle: 4982, Last IRQ Trigger Cycle: 0, Cycles Since Last IRQ: 4982
Emulated Cycles: 4982

8163: D0 F8       BNE $815D
CPU State: PC:815D A:EA X:24 Y:00 SP:FD Status:25 (NV-B DIZC)
RAM State: $00:00 $01:00 $02:00
Timing: Current Emulated Cycle: 4985, Last IRQ Trigger Cycle: 0, Cycles Since Last IRQ: 4985
Emulated Cycles: 4985

815D: A9 EA       LDA #$EA
CPU State: PC:815F A:EA X:24 Y:00 SP:FD Status:A5 (NV-B DIZC)
RAM State: $00:00 $01:00 $02:00
Timing: Current Emulated Cycle: 4987, Last IRQ Trigger Cycle: 0, Cycles Since Last IRQ: 4987
Emulated Cycles: 4987

815F: 9D 00 C2    STA $C200,X
CPU State: PC:8162 A:EA X:24 Y:00 SP:FD Status:A5 (NV-B DIZC)
RAM State: $00:00 $01:00 $02:00
Timing: Current Emulated Cycle: 4992, Last IRQ Trigger Cycle: 0, Cycles Since Last IRQ: 4992
Emulated Cycles: 4992

8162: E8          INX
CPU State: PC:8163 A:EA X:25 Y:00 SP:FD Status:25 (NV-B DIZC)
RAM State: $00:00 $01:00 $02:00
Timing: Current Emulated Cycle: 4994, Last IRQ Trigger Cycle: 0, Cycles Since Last IRQ: 4994
Emulated Cycles: 4994

8163: D0 F8       BNE $815D
CPU State: PC:815D A:EA X:25 Y:00 SP:FD Status:25 (NV-B DIZC)
RAM State: $00:00 $01:00 $02:00
Timing: Current Emulated Cycle: 4997, Last IRQ Trigger Cycle: 0, Cycles Since Last IRQ: 4997
Emulated Cycles: 4997

815D: A9 EA       LDA #$EA
CPU State: PC:815F A:EA X:25 Y:00 SP:FD Status:A5 (NV-B DIZC)
RAM State: $00:00 $01:00 $02:00
Timing: Current Emulated Cycle: 4999, Last IRQ Trigger Cycle: 0, Cycles Since Last IRQ: 4999
Emulated Cycles: 4999

815F: 9D 00 C2    STA $C200,X
CPU State: PC:8162 A:EA X:25 Y:00 SP:FD Status:A5 (NV-B DIZC)
RAM State: $00:00 $01:00 $02:00
Timing: Current Emulated Cycle: 5004, Last IRQ Trigger Cycle: 0, Cycles Since Last IRQ: 5004
Emulated Cycles: 5004

8162: E8          INX
CPU State: PC:8163 A:EA X:26 Y:00 SP:FD Status:25 (NV-B DIZC)
RAM State: $00:00 $01:00 $02:00
Timing: Current Emulated Cycle: 5006, Last IRQ Trigger Cycle: 0, Cycles Since Last IRQ: 5006
Emulated Cycles: 5006

8163: D0 F8       BNE $815D
CPU State: PC:815D A:EA X:26 Y:00 SP:FD Status:25 (NV-B DIZC)
RAM State: $00:00 $01:00 $02:00
Timing: Current Emulated Cycle: 5009, Last IRQ Trigger Cycle: 0, Cycles Since Last IRQ: 5009
Emulated Cycles: 5009

815D: A9 EA       LDA #$EA
CPU State: PC:815F A:EA X:26 Y:00 SP:FD Status:A5 (NV-B DIZC)
RAM State: $00:00 $01:00 $02:00
Timing: Current Emulated Cycle: 5011, Last IRQ Trigger Cycle: 0, Cycles Since Last IRQ: 5011
Emulated Cycles: 5011

815F: 9D 00 C2    STA $C200,X
CPU State: PC:8162 A:EA X:26 Y:00 SP:FD Status:A5 (NV-B DIZC)
RAM State: $00:00 $01:00 $02:00
Timing: Current Emulated Cycle: 5016, Last IRQ Trigger Cycle: 0, Cycles Since Last IRQ: 5016
Emulated Cycles: 5016

8162: E8          INX
CPU State: PC:8163 A:EA X:27 Y:00 SP:FD Status:25 (NV-B DIZC)
RAM State: $00:00 $01:00 $02:00
Timing: Current Emulated Cycle: 5018, Last IRQ Trigger Cycle: 0, Cycles Since Last IRQ: 5018
Emulated Cycles: 5018

8163: D0 F8       BNE $815D
CPU State: PC:815D A:EA X:27 Y:00 SP:FD Status:25 (NV-B DIZC)
RAM State: $00:00 $01:00 $02:00
Timing: Current Emulated Cycle: 5021, Last IRQ Trigger Cycle: 0, Cycles Since Last IRQ: 5021
Emulated Cycles: 5021

815D: A9 EA       LDA #$EA
CPU State: PC:815F A:EA X:27 Y:00 SP:FD Status:A5 (NV-B DIZC)
RAM State: $00:00 $01:00 $02:00
Timing: Current Emulated Cycle: 5023, Last IRQ Trigger Cycle: 0, Cycles Since Last IRQ: 5023
Emulated Cycles: 5023

815F: 9D 00 C2    STA $C200,X
CPU State: PC:8162 A:EA X:27 Y:00 SP:FD Status:A5 (NV-B DIZC)
RAM State: $00:00 $01:00 $02:00
Timing: Current Emulated Cycle: 5028, Last IRQ Trigger Cycle: 0, Cycles Since Last IRQ: 5028
Emulated Cycles: 5028

8162: E8          INX
CPU State: PC:8163 A:EA X:28 Y:00 SP:FD Status:25 (NV-B DIZC)
RAM State: $00:00 $01:00 $02:00
Timing: Current Emulated Cycle: 5030, Last IRQ Trigger Cycle: 0, Cycles Since Last IRQ: 5030
Emulated Cycles: 5030

8163: D0 F8       BNE $815D
CPU State: PC:815D A:EA X:28 Y:00 SP:FD Status:25 (NV-B DIZC)
RAM State: $00:00 $01:00 $02:00
Timing: Current Emulated Cycle: 5033, Last IRQ Trigger Cycle: 0, Cycles Since Last IRQ: 5033
Emulated Cycles: 5033

815D: A9 EA       LDA #$EA
CPU State: PC:815F A:EA X:28 Y:00 SP:FD Status:A5 (NV-B DIZC)
RAM State: $00:00 $01:00 $02:00
Timing: Current Emulated Cycle: 5035, Last IRQ Trigger Cycle: 0, Cycles Since Last IRQ: 5035
Emulated Cycles: 5035

815F: 9D 00 C2    STA $C200,X
CPU State: PC:8162 A:EA X:28 Y:00 SP:FD Status:A5 (NV-B DIZC)
RAM State: $00:00 $01:00 $02:00
Timing: Current Emulated Cycle: 5040, Last IRQ Trigger Cycle: 0, Cycles Since Last IRQ: 5040
Emulated Cycles: 5040

8162: E8          INX
CPU State: PC:8163 A:EA X:29 Y:00 SP:FD Status:25 (NV-B DIZC)
RAM State: $00:00 $01:00 $02:00
Timing: Current Emulated Cycle: 5042, Last IRQ Trigger Cycle: 0, Cycles Since Last IRQ: 5042
Emulated Cycles: 5042

8163: D0 F8       BNE $815D
CPU State: PC:815D A:EA X:29 Y:00 SP:FD Status:25 (NV-B DIZC)
RAM State: $00:00 $01:00 $02:00
Timing: Current Emulated Cycle: 5045, Last IRQ Trigger Cycle: 0, Cycles Since Last IRQ: 5045
Emulated Cycles: 5045

815D: A9 EA       LDA #$EA
CPU State: PC:815F A:EA X:29 Y:00 SP:FD Status:A5 (NV-B DIZC)
RAM State: $00:00 $01:00 $02:00
Timing: Current Emulated Cycle: 5047, Last IRQ Trigger Cycle: 0, Cycles Since Last IRQ: 5047
Emulated Cycles: 5047

815F: 9D 00 C2    STA $C200,X
CPU State: PC:8162 A:EA X:29 Y:00 SP:FD Status:A5 (NV-B DIZC)
RAM State: $00:00 $01:00 $02:00
Timing: Current Emulated Cycle: 5052, Last IRQ Trigger Cycle: 0, Cycles Since Last IRQ: 5052
Emulated Cycles: 5052

8162: E8          INX
CPU State: PC:8163 A:EA X:2A Y:00 SP:FD Status:25 (NV-B DIZC)
RAM State: $00:00 $01:00 $02:00
Timing: Current Emulated Cycle: 5054, Last IRQ Trigger Cycle: 0, Cycles Since Last IRQ: 5054
Emulated Cycles: 5054

8163: D0 F8       BNE $815D
CPU State: PC:815D A:EA X:2A Y:00 SP:FD Status:25 (NV-B DIZC)
RAM State: $00:00 $01:00 $02:00
Timing: Current Emulated Cycle: 5057, Last IRQ Trigger Cycle: 0, Cycles Since Last IRQ: 5057
Emulated Cycles: 5057

815D: A9 EA       LDA #$EA
CPU State: PC:815F A:EA X:2A Y:00 SP:FD Status:A5 (NV-B DIZC)
RAM State: $00:00 $01:00 $02:00
Timing: Current Emulated Cycle: 5059, Last IRQ Trigger Cycle: 0, Cycles Since Last IRQ: 5059
Emulated Cycles: 5059

815F: 9D 00 C2    STA $C200,X
CPU State: PC:8162 A:EA X:2A Y:00 SP:FD Status:A5 (NV-B DIZC)
RAM State: $00:00 $01:00 $02:00
Timing: Current Emulated Cycle: 5064, Last IRQ Trigger Cycle: 0, Cycles Since Last IRQ: 5064
Emulated Cycles: 5064

8162: E8          INX
CPU State: PC:8163 A:EA X:2B Y:00 SP:FD Status:25 (NV-B DIZC)
RAM State: $00:00 $01:00 $02:00
Timing: Current Emulated Cycle: 5066, Last IRQ Trigger Cycle: 0, Cycles Since Last IRQ: 5066
Emulated Cycles: 5066

8163: D0 F8       BNE $815D
CPU State: PC:815D A:EA X:2B Y:00 SP:FD Status:25 (NV-B DIZC)
RAM State: $00:00 $01:00 $02:00
Timing: Current Emulated Cycle: 5069, Last IRQ Trigger Cycle: 0, Cycles Since Last IRQ: 5069
Emulated Cycles: 5069

815D: A9 EA       LDA #$EA
CPU State: PC:815F A:EA X:2B Y:00 SP:FD Status:A5 (NV-B DIZC)
RAM State: $00:00 $01:00 $02:00
Timing: Current Emulated Cycle: 5071, Last IRQ Trigger Cycle: 0, Cycles Since Last IRQ: 5071
Emulated Cycles: 5071

815F: 9D 00 C2    STA $C200,X
CPU State: PC:8162 A:EA X:2B Y:00 SP:FD Status:A5 (NV-B DIZC)
RAM State: $00:00 $01:00 $02:00
Timing: Current Emulated Cycle: 5076, Last IRQ Trigger Cycle: 0, Cycles Since Last IRQ: 5076
Emulated Cycles: 5076

8162: E8          INX
CPU State: PC:8163 A:EA X:2C Y:00 SP:FD Status:25 (NV-B DIZC)
RAM State: $00:00 $01:00 $02:00
Timing: Current Emulated Cycle: 5078, Last IRQ Trigger Cycle: 0, Cycles Since Last IRQ: 5078
Emulated Cycles: 5078

8163: D0 F8       BNE $815D
CPU State: PC:815D A:EA X:2C Y:00 SP:FD Status:25 (NV-B DIZC)
RAM State: $00:00 $01:00 $02:00
Timing: Current Emulated Cycle: 5081, Last IRQ Trigger Cycle: 0, Cycles Since Last IRQ: 5081
Emulated Cycles: 5081

815D: A9 EA       LDA #$EA
CPU State: PC:815F A:EA X:2C Y:00 SP:FD Status:A5 (NV-B DIZC)
RAM State: $00:00 $01:00 $02:00
Timing: Current Emulated Cycle: 5083, Last IRQ Trigger Cycle: 0, Cycles Since Last IRQ: 5083
Emulated Cycles: 5083

815F: 9D 00 C2    STA $C200,X
CPU State: PC:8162 A:EA X:2C Y:00 SP:FD Status:A5 (NV-B DIZC)
RAM State: $00:00 $01:00 $02:00
Timing: Current Emulated Cycle: 5088, Last IRQ Trigger Cycle: 0, Cycles Since Last IRQ: 5088
Emulated Cycles: 5088

8162: E8          INX
CPU State: PC:8163 A:EA X:2D Y:00 SP:FD Status:25 (NV-B DIZC)
RAM State: $00:00 $01:00 $02:00
Timing: Current Emulated Cycle: 5090, Last IRQ Trigger Cycle: 0, Cycles Since Last IRQ: 5090
Emulated Cycles: 5090

8163: D0 F8       BNE $815D
CPU State: PC:815D A:EA X:2D Y:00 SP:FD Status:25 (NV-B DIZC)
RAM State: $00:00 $01:00 $02:00
Timing: Current Emulated Cycle: 5093, Last IRQ Trigger Cycle: 0, Cycles Since Last IRQ: 5093
Emulated Cycles: 5093

815D: A9 EA       LDA #$EA
CPU State: PC:815F A:EA X:2D Y:00 SP:FD Status:A5 (NV-B DIZC)
RAM State: $00:00 $01:00 $02:00
Timing: Current Emulated Cycle: 5095, Last IRQ Trigger Cycle: 0, Cycles Since Last IRQ: 5095
Emulated Cycles: 5095

815F: 9D 00 C2    STA $C200,X
CPU State: PC:8162 A:EA X:2D Y:00 SP:FD Status:A5 (NV-B DIZC)
RAM State: $00:00 $01:00 $02:00
Timing: Current Emulated Cycle: 5100, Last IRQ Trigger Cycle: 0, Cycles Since Last IRQ: 5100
Emulated Cycles: 5100

8162: E8          INX
CPU State: PC:8163 A:EA X:2E Y:00 SP:FD Status:25 (NV-B DIZC)
RAM State: $00:00 $01:00 $02:00
Timing: Current Emulated Cycle: 5102, Last IRQ Trigger Cycle: 0, Cycles Since Last IRQ: 5102
Emulated Cycles: 5102

8163: D0 F8       BNE $815D
CPU State: PC:815D A:EA X:2E Y:00 SP:FD Status:25 (NV-B DIZC)
RAM State: $00:00 $01:00 $02:00
Timing: Current Emulated Cycle: 5105, Last IRQ Trigger Cycle: 0, Cycles Since Last IRQ: 5105
Emulated Cycles: 5105

815D: A9 EA       LDA #$EA
CPU State: PC:815F A:EA X:2E Y:00 SP:FD Status:A5 (NV-B DIZC)
RAM State: $00:00 $01:00 $02:00
Timing: Current Emulated Cycle: 5107, Last IRQ Trigger Cycle: 0, Cycles Since Last IRQ: 5107
Emulated Cycles: 5107

815F: 9D 00 C2    STA $C200,X
CPU State: PC:8162 A:EA X:2E Y:00 SP:FD Status:A5 (NV-B DIZC)
RAM State: $00:00 $01:00 $02:00
Timing: Current Emulated Cycle: 5112, Last IRQ Trigger Cycle: 0, Cycles Since Last IRQ: 5112
Emulated Cycles: 5112

8162: E8          INX
CPU State: PC:8163 A:EA X:2F Y:00 SP:FD Status:25 (NV-B DIZC)
RAM State: $00:00 $01:00 $02:00
Timing: Current Emulated Cycle: 5114, Last IRQ Trigger Cycle: 0, Cycles Since Last IRQ: 5114
Emulated Cycles: 5114

8163: D0 F8       BNE $815D
CPU State: PC:815D A:EA X:2F Y:00 SP:FD Status:25 (NV-B DIZC)
RAM State: $00:00 $01:00 $02:00
Timing: Current Emulated Cycle: 5117, Last IRQ Trigger Cycle: 0, Cycles Since Last IRQ: 5117
Emulated Cycles: 5117

815D: A9 EA       LDA #$EA
CPU State: PC:815F A:EA X:2F Y:00 SP:FD Status:A5 (NV-B DIZC)
RAM State: $00:00 $01:00 $02:00
Timing: Current Emulated Cycle: 5119, Last IRQ Trigger Cycle: 0, Cycles Since Last IRQ: 5119
Emulated Cycles: 5119

815F: 9D 00 C2    STA $C200,X
CPU State: PC:8162 A:EA X:2F Y:00 SP:FD Status:A5 (NV-B DIZC)
RAM State: $00:00 $01:00 $02:00
Timing: Current Emulated Cycle: 5124, Last IRQ Trigger Cycle: 0, Cycles Since Last IRQ: 5124
Emulated Cycles: 5124

8162: E8          INX
CPU State: PC:8163 A:EA X:30 Y:00 SP:FD Status:25 (NV-B DIZC)
RAM State: $00:00 $01:00 $02:00
Timing: Current Emulated Cycle: 5126, Last IRQ Trigger Cycle: 0, Cycles Since Last IRQ: 5126
Emulated Cycles: 5126

8163: D0 F8       BNE $815D
CPU State: PC:815D A:EA X:30 Y:00 SP:FD Status:25 (NV-B DIZC)
RAM State: $00:00 $01:00 $02:00
Timing: Current Emulated Cycle: 5129, Last IRQ Trigger Cycle: 0, Cycles Since Last IRQ: 5129
Emulated Cycles: 5129

815D: A9 EA       LDA #$EA
CPU State: PC:815F A:EA X:30 Y:00 SP:FD Status:A5 (NV-B DIZC)
RAM State: $00:00 $01:00 $02:00
Timing: Current Emulated Cycle: 5131, Last IRQ Trigger Cycle: 0, Cycles Since Last IRQ: 5131
Emulated Cycles: 5131

815F: 9D 00 C2    STA $C200,X
CPU State: PC:8162 A:EA X:30 Y:00 SP:FD Status:A5 (NV-B DIZC)
RAM State: $00:00 $01:00 $02:00
Timing: Current Emulated Cycle: 5136, Last IRQ Trigger Cycle: 0, Cycles Since Last IRQ: 5136
Emulated Cycles: 5136

8162: E8          INX
CPU State: PC:8163 A:EA X:31 Y:00 SP:FD Status:25 (NV-B DIZC)
RAM State: $00:00 $01:00 $02:00
Timing: Current Emulated Cycle: 5138, Last IRQ Trigger Cycle: 0, Cycles Since Last IRQ: 5138
Emulated Cycles: 5138

8163: D0 F8       BNE $815D
CPU State: PC:815D A:EA X:31 Y:00 SP:FD Status:25 (NV-B DIZC)
RAM State: $00:00 $01:00 $02:00
Timing: Current Emulated Cycle: 5141, Last IRQ Trigger Cycle: 0, Cycles Since Last IRQ: 5141
Emulated Cycles: 5141

815D: A9 EA       LDA #$EA
CPU State: PC:815F A:EA X:31 Y:00 SP:FD Status:A5 (NV-B DIZC)
RAM State: $00:00 $01:00 $02:00
Timing: Current Emulated Cycle: 5143, Last IRQ Trigger Cycle: 0, Cycles Since Last IRQ: 5143
Emulated Cycles: 5143

815F: 9D 00 C2    STA $C200,X
CPU State: PC:8162 A:EA X:31 Y:00 SP:FD Status:A5 (NV-B DIZC)
RAM State: $00:00 $01:00 $02:00
Timing: Current Emulated Cycle: 5148, Last IRQ Trigger Cycle: 0, Cycles Since Last IRQ: 5148
Emulated Cycles: 5148

8162: E8          INX
CPU State: PC:8163 A:EA X:32 Y:00 SP:FD Status:25 (NV-B DIZC)
RAM State: $00:00 $01:00 $02:00
Timing: Current Emulated Cycle: 5150, Last IRQ Trigger Cycle: 0, Cycles Since Last IRQ: 5150
Emulated Cycles: 5150

8163: D0 F8       BNE $815D
CPU State: PC:815D A:EA X:32 Y:00 SP:FD Status:25 (NV-B DIZC)
RAM State: $00:00 $01:00 $02:00
Timing: Current Emulated Cycle: 5153, Last IRQ Trigger Cycle: 0, Cycles Since Last IRQ: 5153
Emulated Cycles: 5153

815D: A9 EA       LDA #$EA
CPU State: PC:815F A:EA X:32 Y:00 SP:FD Status:A5 (NV-B DIZC)
RAM State: $00:00 $01:00 $02:00
Timing: Current Emulated Cycle: 5155, Last IRQ Trigger Cycle: 0, Cycles Since Last IRQ: 5155
Emulated Cycles: 5155

815F: 9D 00 C2    STA $C200,X
CPU State: PC:8162 A:EA X:32 Y:00 SP:FD Status:A5 (NV-B DIZC)
RAM State: $00:00 $01:00 $02:00
Timing: Current Emulated Cycle: 5160, Last IRQ Trigger Cycle: 0, Cycles Since Last IRQ: 5160
Emulated Cycles: 5160

8162: E8          INX
CPU State: PC:8163 A:EA X:33 Y:00 SP:FD Status:25 (NV-B DIZC)
RAM State: $00:00 $01:00 $02:00
Timing: Current Emulated Cycle: 5162, Last IRQ Trigger Cycle: 0, Cycles Since Last IRQ: 5162
Emulated Cycles: 5162

8163: D0 F8       BNE $815D
CPU State: PC:815D A:EA X:33 Y:00 SP:FD Status:25 (NV-B DIZC)
RAM State: $00:00 $01:00 $02:00
Timing: Current Emulated Cycle: 5165, Last IRQ Trigger Cycle: 0, Cycles Since Last IRQ: 5165
Emulated Cycles: 5165

815D: A9 EA       LDA #$EA
CPU State: PC:815F A:EA X:33 Y:00 SP:FD Status:A5 (NV-B DIZC)
RAM State: $00:00 $01:00 $02:00
Timing: Current Emulated Cycle: 5167, Last IRQ Trigger Cycle: 0, Cycles Since Last IRQ: 5167
Emulated Cycles: 5167

815F: 9D 00 C2    STA $C200,X
CPU State: PC:8162 A:EA X:33 Y:00 SP:FD Status:A5 (NV-B DIZC)
RAM State: $00:00 $01:00 $02:00
Timing: Current Emulated Cycle: 5172, Last IRQ Trigger Cycle: 0, Cycles Since Last IRQ: 5172
Emulated Cycles: 5172

8162: E8          INX
CPU State: PC:8163 A:EA X:34 Y:00 SP:FD Status:25 (NV-B DIZC)
RAM State: $00:00 $01:00 $02:00
Timing: Current Emulated Cycle: 5174, Last IRQ Trigger Cycle: 0, Cycles Since Last IRQ: 5174
Emulated Cycles: 5174

8163: D0 F8       BNE $815D
CPU State: PC:815D A:EA X:34 Y:00 SP:FD Status:25 (NV-B DIZC)
RAM State: $00:00 $01:00 $02:00
Timing: Current Emulated Cycle: 5177, Last IRQ Trigger Cycle: 0, Cycles Since Last IRQ: 5177
Emulated Cycles: 5177

815D: A9 EA       LDA #$EA
CPU State: PC:815F A:EA X:34 Y:00 SP:FD Status:A5 (NV-B DIZC)
RAM State: $00:00 $01:00 $02:00
Timing: Current Emulated Cycle: 5179, Last IRQ Trigger Cycle: 0, Cycles Since Last IRQ: 5179
Emulated Cycles: 5179

815F: 9D 00 C2    STA $C200,X
CPU State: PC:8162 A:EA X:34 Y:00 SP:FD Status:A5 (NV-B DIZC)
RAM State: $00:00 $01:00 $02:00
Timing: Current Emulated Cycle: 5184, Last IRQ Trigger Cycle: 0, Cycles Since Last IRQ: 5184
Emulated Cycles: 5184

8162: E8          INX
CPU State: PC:8163 A:EA X:35 Y:00 SP:FD Status:25 (NV-B DIZC)
RAM State: $00:00 $01:00 $02:00
Timing: Current Emulated Cycle: 5186, Last IRQ Trigger Cycle: 0, Cycles Since Last IRQ: 5186
Emulated Cycles: 5186

8163: D0 F8       BNE $815D
CPU State: PC:815D A:EA X:35 Y:00 SP:FD Status:25 (NV-B DIZC)
RAM State: $00:00 $01:00 $02:00
Timing: Current Emulated Cycle: 5189, Last IRQ Trigger Cycle: 0, Cycles Since Last IRQ: 5189
Emulated Cycles: 5189

815D: A9 EA       LDA #$EA
CPU State: PC:815F A:EA X:35 Y:00 SP:FD Status:A5 (NV-B DIZC)
RAM State: $00:00 $01:00 $02:00
Timing: Current Emulated Cycle: 5191, Last IRQ Trigger Cycle: 0, Cycles Since Last IRQ: 5191
Emulated Cycles: 5191

815F: 9D 00 C2    STA $C200,X
CPU State: PC:8162 A:EA X:35 Y:00 SP:FD Status:A5 (NV-B DIZC)
RAM State: $00:00 $01:00 $02:00
Timing: Current Emulated Cycle: 5196, Last IRQ Trigger Cycle: 0, Cycles Since Last IRQ: 5196
Emulated Cycles: 5196

8162: E8          INX
CPU State: PC:8163 A:EA X:36 Y:00 SP:FD Status:25 (NV-B DIZC)
RAM State: $00:00 $01:00 $02:00
Timing: Current Emulated Cycle: 5198, Last IRQ Trigger Cycle: 0, Cycles Since Last IRQ: 5198
Emulated Cycles: 5198

8163: D0 F8       BNE $815D
CPU State: PC:815D A:EA X:36 Y:00 SP:FD Status:25 (NV-B DIZC)
RAM State: $00:00 $01:00 $02:00
Timing: Current Emulated Cycle: 5201, Last IRQ Trigger Cycle: 0, Cycles Since Last IRQ: 5201
Emulated Cycles: 5201

815D: A9 EA       LDA #$EA
CPU State: PC:815F A:EA X:36 Y:00 SP:FD Status:A5 (NV-B DIZC)
RAM State: $00:00 $01:00 $02:00
Timing: Current Emulated Cycle: 5203, Last IRQ Trigger Cycle: 0, Cycles Since Last IRQ: 5203
Emulated Cycles: 5203

815F: 9D 00 C2    STA $C200,X
CPU State: PC:8162 A:EA X:36 Y:00 SP:FD Status:A5 (NV-B DIZC)
RAM State: $00:00 $01:00 $02:00
Timing: Current Emulated Cycle: 5208, Last IRQ Trigger Cycle: 0, Cycles Since Last IRQ: 5208
Emulated Cycles: 5208

8162: E8          INX
CPU State: PC:8163 A:EA X:37 Y:00 SP:FD Status:25 (NV-B DIZC)
RAM State: $00:00 $01:00 $02:00
Timing: Current Emulated Cycle: 5210, Last IRQ Trigger Cycle: 0, Cycles Since Last IRQ: 5210
Emulated Cycles: 5210

8163: D0 F8       BNE $815D
CPU State: PC:815D A:EA X:37 Y:00 SP:FD Status:25 (NV-B DIZC)
RAM State: $00:00 $01:00 $02:00
Timing: Current Emulated Cycle: 5213, Last IRQ Trigger Cycle: 0, Cycles Since Last IRQ: 5213
Emulated Cycles: 5213

815D: A9 EA       LDA #$EA
CPU State: PC:815F A:EA X:37 Y:00 SP:FD Status:A5 (NV-B DIZC)
RAM State: $00:00 $01:00 $02:00
Timing: Current Emulated Cycle: 5215, Last IRQ Trigger Cycle: 0, Cycles Since Last IRQ: 5215
Emulated Cycles: 5215

815F: 9D 00 C2    STA $C200,X
CPU State: PC:8162 A:EA X:37 Y:00 SP:FD Status:A5 (NV-B DIZC)
RAM State: $00:00 $01:00 $02:00
Timing: Current Emulated Cycle: 5220, Last IRQ Trigger Cycle: 0, Cycles Since Last IRQ: 5220
Emulated Cycles: 5220

8162: E8          INX
CPU State: PC:8163 A:EA X:38 Y:00 SP:FD Status:25 (NV-B DIZC)
RAM State: $00:00 $01:00 $02:00
Timing: Current Emulated Cycle: 5222, Last IRQ Trigger Cycle: 0, Cycles Since Last IRQ: 5222
Emulated Cycles: 5222

8163: D0 F8       BNE $815D
CPU State: PC:815D A:EA X:38 Y:00 SP:FD Status:25 (NV-B DIZC)
RAM State: $00:00 $01:00 $02:00
Timing: Current Emulated Cycle: 5225, Last IRQ Trigger Cycle: 0, Cycles Since Last IRQ: 5225
Emulated Cycles: 5225

815D: A9 EA       LDA #$EA
CPU State: PC:815F A:EA X:38 Y:00 SP:FD Status:A5 (NV-B DIZC)
RAM State: $00:00 $01:00 $02:00
Timing: Current Emulated Cycle: 5227, Last IRQ Trigger Cycle: 0, Cycles Since Last IRQ: 5227
Emulated Cycles: 5227

815F: 9D 00 C2    STA $C200,X
CPU State: PC:8162 A:EA X:38 Y:00 SP:FD Status:A5 (NV-B DIZC)
RAM State: $00:00 $01:00 $02:00
Timing: Current Emulated Cycle: 5232, Last IRQ Trigger Cycle: 0, Cycles Since Last IRQ: 5232
Emulated Cycles: 5232

8162: E8          INX
CPU State: PC:8163 A:EA X:39 Y:00 SP:FD Status:25 (NV-B DIZC)
RAM State: $00:00 $01:00 $02:00
Timing: Current Emulated Cycle: 5234, Last IRQ Trigger Cycle: 0, Cycles Since Last IRQ: 5234
Emulated Cycles: 5234

8163: D0 F8       BNE $815D
CPU State: PC:815D A:EA X:39 Y:00 SP:FD Status:25 (NV-B DIZC)
RAM State: $00:00 $01:00 $02:00
Timing: Current Emulated Cycle: 5237, Last IRQ Trigger Cycle: 0, Cycles Since Last IRQ: 5237
Emulated Cycles: 5237

815D: A9 EA       LDA #$EA
CPU State: PC:815F A:EA X:39 Y:00 SP:FD Status:A5 (NV-B DIZC)
RAM State: $00:00 $01:00 $02:00
Timing: Current Emulated Cycle: 5239, Last IRQ Trigger Cycle: 0, Cycles Since Last IRQ: 5239
Emulated Cycles: 5239

815F: 9D 00 C2    STA $C200,X
CPU State: PC:8162 A:EA X:39 Y:00 SP:FD Status:A5 (NV-B DIZC)
RAM State: $00:00 $01:00 $02:00
Timing: Current Emulated Cycle: 5244, Last IRQ Trigger Cycle: 0, Cycles Since Last IRQ: 5244
Emulated Cycles: 5244

8162: E8          INX
CPU State: PC:8163 A:EA X:3A Y:00 SP:FD Status:25 (NV-B DIZC)
RAM State: $00:00 $01:00 $02:00
Timing: Current Emulated Cycle: 5246, Last IRQ Trigger Cycle: 0, Cycles Since Last IRQ: 5246
Emulated Cycles: 5246

8163: D0 F8       BNE $815D
CPU State: PC:815D A:EA X:3A Y:00 SP:FD Status:25 (NV-B DIZC)
RAM State: $00:00 $01:00 $02:00
Timing: Current Emulated Cycle: 5249, Last IRQ Trigger Cycle: 0, Cycles Since Last IRQ: 5249
Emulated Cycles: 5249

815D: A9 EA       LDA #$EA
CPU State: PC:815F A:EA X:3A Y:00 SP:FD Status:A5 (NV-B DIZC)
RAM State: $00:00 $01:00 $02:00
Timing: Current Emulated Cycle: 5251, Last IRQ Trigger Cycle: 0, Cycles Since Last IRQ: 5251
Emulated Cycles: 5251

815F: 9D 00 C2    STA $C200,X
CPU State: PC:8162 A:EA X:3A Y:00 SP:FD Status:A5 (NV-B DIZC)
RAM State: $00:00 $01:00 $02:00
Timing: Current Emulated Cycle: 5256, Last IRQ Trigger Cycle: 0, Cycles Since Last IRQ: 5256
Emulated Cycles: 5256

8162: E8          INX
CPU State: PC:8163 A:EA X:3B Y:00 SP:FD Status:25 (NV-B DIZC)
RAM State: $00:00 $01:00 $02:00
Timing: Current Emulated Cycle: 5258, Last IRQ Trigger Cycle: 0, Cycles Since Last IRQ: 5258
Emulated Cycles: 5258

8163: D0 F8       BNE $815D
CPU State: PC:815D A:EA X:3B Y:00 SP:FD Status:25 (NV-B DIZC)
RAM State: $00:00 $01:00 $02:00
Timing: Current Emulated Cycle: 5261, Last IRQ Trigger Cycle: 0, Cycles Since Last IRQ: 5261
Emulated Cycles: 5261

815D: A9 EA       LDA #$EA
CPU State: PC:815F A:EA X:3B Y:00 SP:FD Status:A5 (NV-B DIZC)
RAM State: $00:00 $01:00 $02:00
Timing: Current Emulated Cycle: 5263, Last IRQ Trigger Cycle: 0, Cycles Since Last IRQ: 5263
Emulated Cycles: 5263

815F: 9D 00 C2    STA $C200,X
CPU State: PC:8162 A:EA X:3B Y:00 SP:FD Status:A5 (NV-B DIZC)
RAM State: $00:00 $01:00 $02:00
Timing: Current Emulated Cycle: 5268, Last IRQ Trigger Cycle: 0, Cycles Since Last IRQ: 5268
Emulated Cycles: 5268

8162: E8          INX
CPU State: PC:8163 A:EA X:3C Y:00 SP:FD Status:25 (NV-B DIZC)
RAM State: $00:00 $01:00 $02:00
Timing: Current Emulated Cycle: 5270, Last IRQ Trigger Cycle: 0, Cycles Since Last IRQ: 5270
Emulated Cycles: 5270

8163: D0 F8       BNE $815D
CPU State: PC:815D A:EA X:3C Y:00 SP:FD Status:25 (NV-B DIZC)
RAM State: $00:00 $01:00 $02:00
Timing: Current Emulated Cycle: 5273, Last IRQ Trigger Cycle: 0, Cycles Since Last IRQ: 5273
Emulated Cycles: 5273

815D: A9 EA       LDA #$EA
CPU State: PC:815F A:EA X:3C Y:00 SP:FD Status:A5 (NV-B DIZC)
RAM State: $00:00 $01:00 $02:00
Timing: Current Emulated Cycle: 5275, Last IRQ Trigger Cycle: 0, Cycles Since Last IRQ: 5275
Emulated Cycles: 5275

815F: 9D 00 C2    STA $C200,X
CPU State: PC:8162 A:EA X:3C Y:00 SP:FD Status:A5 (NV-B DIZC)
RAM State: $00:00 $01:00 $02:00
Timing: Current Emulated Cycle: 5280, Last IRQ Trigger Cycle: 0, Cycles Since Last IRQ: 5280
Emulated Cycles: 5280

8162: E8          INX
CPU State: PC:8163 A:EA X:3D Y:00 SP:FD Status:25 (NV-B DIZC)
RAM State: $00:00 $01:00 $02:00
Timing: Current Emulated Cycle: 5282, Last IRQ Trigger Cycle: 0, Cycles Since Last IRQ: 5282
Emulated Cycles: 5282

8163: D0 F8       BNE $815D
CPU State: PC:815D A:EA X:3D Y:00 SP:FD Status:25 (NV-B DIZC)
RAM State: $00:00 $01:00 $02:00
Timing: Current Emulated Cycle: 5285, Last IRQ Trigger Cycle: 0, Cycles Since Last IRQ: 5285
Emulated Cycles: 5285

815D: A9 EA       LDA #$EA
CPU State: PC:815F A:EA X:3D Y:00 SP:FD Status:A5 (NV-B DIZC)
RAM State: $00:00 $01:00 $02:00
Timing: Current Emulated Cycle: 5287, Last IRQ Trigger Cycle: 0, Cycles Since Last IRQ: 5287
Emulated Cycles: 5287

815F: 9D 00 C2    STA $C200,X
CPU State: PC:8162 A:EA X:3D Y:00 SP:FD Status:A5 (NV-B DIZC)
RAM State: $00:00 $01:00 $02:00
Timing: Current Emulated Cycle: 5292, Last IRQ Trigger Cycle: 0, Cycles Since Last IRQ: 5292
Emulated Cycles: 5292

8162: E8          INX
CPU State: PC:8163 A:EA X:3E Y:00 SP:FD Status:25 (NV-B DIZC)
RAM State: $00:00 $01:00 $02:00
Timing: Current Emulated Cycle: 5294, Last IRQ Trigger Cycle: 0, Cycles Since Last IRQ: 5294
Emulated Cycles: 5294

8163: D0 F8       BNE $815D
CPU State: PC:815D A:EA X:3E Y:00 SP:FD Status:25 (NV-B DIZC)
RAM State: $00:00 $01:00 $02:00
Timing: Current Emulated Cycle: 5297, Last IRQ Trigger Cycle: 0, Cycles Since Last IRQ: 5297
Emulated Cycles: 5297

815D: A9 EA       LDA #$EA
CPU State: PC:815F A:EA X:3E Y:00 SP:FD Status:A5 (NV-B DIZC)
RAM State: $00:00 $01:00 $02:00
Timing: Current Emulated Cycle: 5299, Last IRQ Trigger Cycle: 0, Cycles Since Last IRQ: 5299
Emulated Cycles: 5299

815F: 9D 00 C2    STA $C200,X
CPU State: PC:8162 A:EA X:3E Y:00 SP:FD Status:A5 (NV-B DIZC)
RAM State: $00:00 $01:00 $02:00
Timing: Current Emulated Cycle: 5304, Last IRQ Trigger Cycle: 0, Cycles Since Last IRQ: 5304
Emulated Cycles: 5304

8162: E8          INX
CPU State: PC:8163 A:EA X:3F Y:00 SP:FD Status:25 (NV-B DIZC)
RAM State: $00:00 $01:00 $02:00
Timing: Current Emulated Cycle: 5306, Last IRQ Trigger Cycle: 0, Cycles Since Last IRQ: 5306
Emulated Cycles: 5306

8163: D0 F8       BNE $815D
CPU State: PC:815D A:EA X:3F Y:00 SP:FD Status:25 (NV-B DIZC)
RAM State: $00:00 $01:00 $02:00
Timing: Current Emulated Cycle: 5309, Last IRQ Trigger Cycle: 0, Cycles Since Last IRQ: 5309
Emulated Cycles: 5309

815D: A9 EA       LDA #$EA
CPU State: PC:815F A:EA X:3F Y:00 SP:FD Status:A5 (NV-B DIZC)
RAM State: $00:00 $01:00 $02:00
Timing: Current Emulated Cycle: 5311, Last IRQ Trigger Cycle: 0, Cycles Since Last IRQ: 5311
Emulated Cycles: 5311

815F: 9D 00 C2    STA $C200,X
CPU State: PC:8162 A:EA X:3F Y:00 SP:FD Status:A5 (NV-B DIZC)
RAM State: $00:00 $01:00 $02:00
Timing: Current Emulated Cycle: 5316, Last IRQ Trigger Cycle: 0, Cycles Since Last IRQ: 5316
Emulated Cycles: 5316

8162: E8          INX
CPU State: PC:8163 A:EA X:40 Y:00 SP:FD Status:25 (NV-B DIZC)
RAM State: $00:00 $01:00 $02:00
Timing: Current Emulated Cycle: 5318, Last IRQ Trigger Cycle: 0, Cycles Since Last IRQ: 5318
Emulated Cycles: 5318

8163: D0 F8       BNE $815D
CPU State: PC:815D A:EA X:40 Y:00 SP:FD Status:25 (NV-B DIZC)
RAM State: $00:00 $01:00 $02:00
Timing: Current Emulated Cycle: 5321, Last IRQ Trigger Cycle: 0, Cycles Since Last IRQ: 5321
Emulated Cycles: 5321

815D: A9 EA       LDA #$EA
CPU State: PC:815F A:EA X:40 Y:00 SP:FD Status:A5 (NV-B DIZC)
RAM State: $00:00 $01:00 $02:00
Timing: Current Emulated Cycle: 5323, Last IRQ Trigger Cycle: 0, Cycles Since Last IRQ: 5323
Emulated Cycles: 5323

815F: 9D 00 C2    STA $C200,X
CPU State: PC:8162 A:EA X:40 Y:00 SP:FD Status:A5 (NV-B DIZC)
RAM State: $00:00 $01:00 $02:00
Timing: Current Emulated Cycle: 5328, Last IRQ Trigger Cycle: 0, Cycles Since Last IRQ: 5328
Emulated Cycles: 5328

8162: E8          INX
CPU State: PC:8163 A:EA X:41 Y:00 SP:FD Status:25 (NV-B DIZC)
RAM State: $00:00 $01:00 $02:00
Timing: Current Emulated Cycle: 5330, Last IRQ Trigger Cycle: 0, Cycles Since Last IRQ: 5330
Emulated Cycles: 5330

8163: D0 F8       BNE $815D
CPU State: PC:815D A:EA X:41 Y:00 SP:FD Status:25 (NV-B DIZC)
RAM State: $00:00 $01:00 $02:00
Timing: Current Emulated Cycle: 5333, Last IRQ Trigger Cycle: 0, Cycles Since Last IRQ: 5333
Emulated Cycles: 5333

815D: A9 EA       LDA #$EA
CPU State: PC:815F A:EA X:41 Y:00 SP:FD Status:A5 (NV-B DIZC)
RAM State: $00:00 $01:00 $02:00
Timing: Current Emulated Cycle: 5335, Last IRQ Trigger Cycle: 0, Cycles Since Last IRQ: 5335
Emulated Cycles: 5335

815F: 9D 00 C2    STA $C200,X
CPU State: PC:8162 A:EA X:41 Y:00 SP:FD Status:A5 (NV-B DIZC)
RAM State: $00:00 $01:00 $02:00
Timing: Current Emulated Cycle: 5340, Last IRQ Trigger Cycle: 0, Cycles Since Last IRQ: 5340
Emulated Cycles: 5340

8162: E8          INX
CPU State: PC:8163 A:EA X:42 Y:00 SP:FD Status:25 (NV-B DIZC)
RAM State: $00:00 $01:00 $02:00
Timing: Current Emulated Cycle: 5342, Last IRQ Trigger Cycle: 0, Cycles Since Last IRQ: 5342
Emulated Cycles: 5342

8163: D0 F8       BNE $815D
CPU State: PC:815D A:EA X:42 Y:00 SP:FD Status:25 (NV-B DIZC)
RAM State: $00:00 $01:00 $02:00
Timing: Current Emulated Cycle: 5345, Last IRQ Trigger Cycle: 0, Cycles Since Last IRQ: 5345
Emulated Cycles: 5345

815D: A9 EA       LDA #$EA
CPU State: PC:815F A:EA X:42 Y:00 SP:FD Status:A5 (NV-B DIZC)
RAM State: $00:00 $01:00 $02:00
Timing: Current Emulated Cycle: 5347, Last IRQ Trigger Cycle: 0, Cycles Since Last IRQ: 5347
Emulated Cycles: 5347

815F: 9D 00 C2    STA $C200,X
CPU State: PC:8162 A:EA X:42 Y:00 SP:FD Status:A5 (NV-B DIZC)
RAM State: $00:00 $01:00 $02:00
Timing: Current Emulated Cycle: 5352, Last IRQ Trigger Cycle: 0, Cycles Since Last IRQ: 5352
Emulated Cycles: 5352

8162: E8          INX
CPU State: PC:8163 A:EA X:43 Y:00 SP:FD Status:25 (NV-B DIZC)
RAM State: $00:00 $01:00 $02:00
Timing: Current Emulated Cycle: 5354, Last IRQ Trigger Cycle: 0, Cycles Since Last IRQ: 5354
Emulated Cycles: 5354

8163: D0 F8       BNE $815D
CPU State: PC:815D A:EA X:43 Y:00 SP:FD Status:25 (NV-B DIZC)
RAM State: $00:00 $01:00 $02:00
Timing: Current Emulated Cycle: 5357, Last IRQ Trigger Cycle: 0, Cycles Since Last IRQ: 5357
Emulated Cycles: 5357

815D: A9 EA       LDA #$EA
CPU State: PC:815F A:EA X:43 Y:00 SP:FD Status:A5 (NV-B DIZC)
RAM State: $00:00 $01:00 $02:00
Timing: Current Emulated Cycle: 5359, Last IRQ Trigger Cycle: 0, Cycles Since Last IRQ: 5359
Emulated Cycles: 5359

815F: 9D 00 C2    STA $C200,X
CPU State: PC:8162 A:EA X:43 Y:00 SP:FD Status:A5 (NV-B DIZC)
RAM State: $00:00 $01:00 $02:00
Timing: Current Emulated Cycle: 5364, Last IRQ Trigger Cycle: 0, Cycles Since Last IRQ: 5364
Emulated Cycles: 5364

8162: E8          INX
CPU State: PC:8163 A:EA X:44 Y:00 SP:FD Status:25 (NV-B DIZC)
RAM State: $00:00 $01:00 $02:00
Timing: Current Emulated Cycle: 5366, Last IRQ Trigger Cycle: 0, Cycles Since Last IRQ: 5366
Emulated Cycles: 5366

8163: D0 F8       BNE $815D
CPU State: PC:815D A:EA X:44 Y:00 SP:FD Status:25 (NV-B DIZC)
RAM State: $00:00 $01:00 $02:00
Timing: Current Emulated Cycle: 5369, Last IRQ Trigger Cycle: 0, Cycles Since Last IRQ: 5369
Emulated Cycles: 5369

815D: A9 EA       LDA #$EA
CPU State: PC:815F A:EA X:44 Y:00 SP:FD Status:A5 (NV-B DIZC)
RAM State: $00:00 $01:00 $02:00
Timing: Current Emulated Cycle: 5371, Last IRQ Trigger Cycle: 0, Cycles Since Last IRQ: 5371
Emulated Cycles: 5371

815F: 9D 00 C2    STA $C200,X
CPU State: PC:8162 A:EA X:44 Y:00 SP:FD Status:A5 (NV-B DIZC)
RAM State: $00:00 $01:00 $02:00
Timing: Current Emulated Cycle: 5376, Last IRQ Trigger Cycle: 0, Cycles Since Last IRQ: 5376
Emulated Cycles: 5376

8162: E8          INX
CPU State: PC:8163 A:EA X:45 Y:00 SP:FD Status:25 (NV-B DIZC)
RAM State: $00:00 $01:00 $02:00
Timing: Current Emulated Cycle: 5378, Last IRQ Trigger Cycle: 0, Cycles Since Last IRQ: 5378
Emulated Cycles: 5378

8163: D0 F8       BNE $815D
CPU State: PC:815D A:EA X:45 Y:00 SP:FD Status:25 (NV-B DIZC)
RAM State: $00:00 $01:00 $02:00
Timing: Current Emulated Cycle: 5381, Last IRQ Trigger Cycle: 0, Cycles Since Last IRQ: 5381
Emulated Cycles: 5381

815D: A9 EA       LDA #$EA
CPU State: PC:815F A:EA X:45 Y:00 SP:FD Status:A5 (NV-B DIZC)
RAM State: $00:00 $01:00 $02:00
Timing: Current Emulated Cycle: 5383, Last IRQ Trigger Cycle: 0, Cycles Since Last IRQ: 5383
Emulated Cycles: 5383

815F: 9D 00 C2    STA $C200,X
CPU State: PC:8162 A:EA X:45 Y:00 SP:FD Status:A5 (NV-B DIZC)
RAM State: $00:00 $01:00 $02:00
Timing: Current Emulated Cycle: 5388, Last IRQ Trigger Cycle: 0, Cycles Since Last IRQ: 5388
Emulated Cycles: 5388

8162: E8          INX
CPU State: PC:8163 A:EA X:46 Y:00 SP:FD Status:25 (NV-B DIZC)
RAM State: $00:00 $01:00 $02:00
Timing: Current Emulated Cycle: 5390, Last IRQ Trigger Cycle: 0, Cycles Since Last IRQ: 5390
Emulated Cycles: 5390

8163: D0 F8       BNE $815D
CPU State: PC:815D A:EA X:46 Y:00 SP:FD Status:25 (NV-B DIZC)
RAM State: $00:00 $01:00 $02:00
Timing: Current Emulated Cycle: 5393, Last IRQ Trigger Cycle: 0, Cycles Since Last IRQ: 5393
Emulated Cycles: 5393

815D: A9 EA       LDA #$EA
CPU State: PC:815F A:EA X:46 Y:00 SP:FD Status:A5 (NV-B DIZC)
RAM State: $00:00 $01:00 $02:00
Timing: Current Emulated Cycle: 5395, Last IRQ Trigger Cycle: 0, Cycles Since Last IRQ: 5395
Emulated Cycles: 5395

815F: 9D 00 C2    STA $C200,X
CPU State: PC:8162 A:EA X:46 Y:00 SP:FD Status:A5 (NV-B DIZC)
RAM State: $00:00 $01:00 $02:00
Timing: Current Emulated Cycle: 5400, Last IRQ Trigger Cycle: 0, Cycles Since Last IRQ: 5400
Emulated Cycles: 5400

8162: E8          INX
CPU State: PC:8163 A:EA X:47 Y:00 SP:FD Status:25 (NV-B DIZC)
RAM State: $00:00 $01:00 $02:00
Timing: Current Emulated Cycle: 5402, Last IRQ Trigger Cycle: 0, Cycles Since Last IRQ: 5402
Emulated Cycles: 5402

8163: D0 F8       BNE $815D
CPU State: PC:815D A:EA X:47 Y:00 SP:FD Status:25 (NV-B DIZC)
RAM State: $00:00 $01:00 $02:00
Timing: Current Emulated Cycle: 5405, Last IRQ Trigger Cycle: 0, Cycles Since Last IRQ: 5405
Emulated Cycles: 5405

815D: A9 EA       LDA #$EA
CPU State: PC:815F A:EA X:47 Y:00 SP:FD Status:A5 (NV-B DIZC)
RAM State: $00:00 $01:00 $02:00
Timing: Current Emulated Cycle: 5407, Last IRQ Trigger Cycle: 0, Cycles Since Last IRQ: 5407
Emulated Cycles: 5407

815F: 9D 00 C2    STA $C200,X
CPU State: PC:8162 A:EA X:47 Y:00 SP:FD Status:A5 (NV-B DIZC)
RAM State: $00:00 $01:00 $02:00
Timing: Current Emulated Cycle: 5412, Last IRQ Trigger Cycle: 0, Cycles Since Last IRQ: 5412
Emulated Cycles: 5412

8162: E8          INX
CPU State: PC:8163 A:EA X:48 Y:00 SP:FD Status:25 (NV-B DIZC)
RAM State: $00:00 $01:00 $02:00
Timing: Current Emulated Cycle: 5414, Last IRQ Trigger Cycle: 0, Cycles Since Last IRQ: 5414
Emulated Cycles: 5414

8163: D0 F8       BNE $815D
CPU State: PC:815D A:EA X:48 Y:00 SP:FD Status:25 (NV-B DIZC)
RAM State: $00:00 $01:00 $02:00
Timing: Current Emulated Cycle: 5417, Last IRQ Trigger Cycle: 0, Cycles Since Last IRQ: 5417
Emulated Cycles: 5417

815D: A9 EA       LDA #$EA
CPU State: PC:815F A:EA X:48 Y:00 SP:FD Status:A5 (NV-B DIZC)
RAM State: $00:00 $01:00 $02:00
Timing: Current Emulated Cycle: 5419, Last IRQ Trigger Cycle: 0, Cycles Since Last IRQ: 5419
Emulated Cycles: 5419

815F: 9D 00 C2    STA $C200,X
CPU State: PC:8162 A:EA X:48 Y:00 SP:FD Status:A5 (NV-B DIZC)
RAM State: $00:00 $01:00 $02:00
Timing: Current Emulated Cycle: 5424, Last IRQ Trigger Cycle: 0, Cycles Since Last IRQ: 5424
Emulated Cycles: 5424

8162: E8          INX
CPU State: PC:8163 A:EA X:49 Y:00 SP:FD Status:25 (NV-B DIZC)
RAM State: $00:00 $01:00 $02:00
Timing: Current Emulated Cycle: 5426, Last IRQ Trigger Cycle: 0, Cycles Since Last IRQ: 5426
Emulated Cycles: 5426

8163: D0 F8       BNE $815D
CPU State: PC:815D A:EA X:49 Y:00 SP:FD Status:25 (NV-B DIZC)
RAM State: $00:00 $01:00 $02:00
Timing: Current Emulated Cycle: 5429, Last IRQ Trigger Cycle: 0, Cycles Since Last IRQ: 5429
Emulated Cycles: 5429

815D: A9 EA       LDA #$EA
CPU State: PC:815F A:EA X:49 Y:00 SP:FD Status:A5 (NV-B DIZC)
RAM State: $00:00 $01:00 $02:00
Timing: Current Emulated Cycle: 5431, Last IRQ Trigger Cycle: 0, Cycles Since Last IRQ: 5431
Emulated Cycles: 5431

815F: 9D 00 C2    STA $C200,X
CPU State: PC:8162 A:EA X:49 Y:00 SP:FD Status:A5 (NV-B DIZC)
RAM State: $00:00 $01:00 $02:00
Timing: Current Emulated Cycle: 5436, Last IRQ Trigger Cycle: 0, Cycles Since Last IRQ: 5436
Emulated Cycles: 5436

8162: E8          INX
CPU State: PC:8163 A:EA X:4A Y:00 SP:FD Status:25 (NV-B DIZC)
RAM State: $00:00 $01:00 $02:00
Timing: Current Emulated Cycle: 5438, Last IRQ Trigger Cycle: 0, Cycles Since Last IRQ: 5438
Emulated Cycles: 5438

8163: D0 F8       BNE $815D
CPU State: PC:815D A:EA X:4A Y:00 SP:FD Status:25 (NV-B DIZC)
RAM State: $00:00 $01:00 $02:00
Timing: Current Emulated Cycle: 5441, Last IRQ Trigger Cycle: 0, Cycles Since Last IRQ: 5441
Emulated Cycles: 5441

815D: A9 EA       LDA #$EA
CPU State: PC:815F A:EA X:4A Y:00 SP:FD Status:A5 (NV-B DIZC)
RAM State: $00:00 $01:00 $02:00
Timing: Current Emulated Cycle: 5443, Last IRQ Trigger Cycle: 0, Cycles Since Last IRQ: 5443
Emulated Cycles: 5443

815F: 9D 00 C2    STA $C200,X
CPU State: PC:8162 A:EA X:4A Y:00 SP:FD Status:A5 (NV-B DIZC)
RAM State: $00:00 $01:00 $02:00
Timing: Current Emulated Cycle: 5448, Last IRQ Trigger Cycle: 0, Cycles Since Last IRQ: 5448
Emulated Cycles: 5448

8162: E8          INX
CPU State: PC:8163 A:EA X:4B Y:00 SP:FD Status:25 (NV-B DIZC)
RAM State: $00:00 $01:00 $02:00
Timing: Current Emulated Cycle: 5450, Last IRQ Trigger Cycle: 0, Cycles Since Last IRQ: 5450
Emulated Cycles: 5450

8163: D0 F8       BNE $815D
CPU State: PC:815D A:EA X:4B Y:00 SP:FD Status:25 (NV-B DIZC)
RAM State: $00:00 $01:00 $02:00
Timing: Current Emulated Cycle: 5453, Last IRQ Trigger Cycle: 0, Cycles Since Last IRQ: 5453
Emulated Cycles: 5453

815D: A9 EA       LDA #$EA
CPU State: PC:815F A:EA X:4B Y:00 SP:FD Status:A5 (NV-B DIZC)
RAM State: $00:00 $01:00 $02:00
Timing: Current Emulated Cycle: 5455, Last IRQ Trigger Cycle: 0, Cycles Since Last IRQ: 5455
Emulated Cycles: 5455

815F: 9D 00 C2    STA $C200,X
CPU State: PC:8162 A:EA X:4B Y:00 SP:FD Status:A5 (NV-B DIZC)
RAM State: $00:00 $01:00 $02:00
Timing: Current Emulated Cycle: 5460, Last IRQ Trigger Cycle: 0, Cycles Since Last IRQ: 5460
Emulated Cycles: 5460

8162: E8          INX
CPU State: PC:8163 A:EA X:4C Y:00 SP:FD Status:25 (NV-B DIZC)
RAM State: $00:00 $01:00 $02:00
Timing: Current Emulated Cycle: 5462, Last IRQ Trigger Cycle: 0, Cycles Since Last IRQ: 5462
Emulated Cycles: 5462

8163: D0 F8       BNE $815D
CPU State: PC:815D A:EA X:4C Y:00 SP:FD Status:25 (NV-B DIZC)
RAM State: $00:00 $01:00 $02:00
Timing: Current Emulated Cycle: 5465, Last IRQ Trigger Cycle: 0, Cycles Since Last IRQ: 5465
Emulated Cycles: 5465

815D: A9 EA       LDA #$EA
CPU State: PC:815F A:EA X:4C Y:00 SP:FD Status:A5 (NV-B DIZC)
RAM State: $00:00 $01:00 $02:00
Timing: Current Emulated Cycle: 5467, Last IRQ Trigger Cycle: 0, Cycles Since Last IRQ: 5467
Emulated Cycles: 5467

815F: 9D 00 C2    STA $C200,X
CPU State: PC:8162 A:EA X:4C Y:00 SP:FD Status:A5 (NV-B DIZC)
RAM State: $00:00 $01:00 $02:00
Timing: Current Emulated Cycle: 5472, Last IRQ Trigger Cycle: 0, Cycles Since Last IRQ: 5472
Emulated Cycles: 5472

8162: E8          INX
CPU State: PC:8163 A:EA X:4D Y:00 SP:FD Status:25 (NV-B DIZC)
RAM State: $00:00 $01:00 $02:00
Timing: Current Emulated Cycle: 5474, Last IRQ Trigger Cycle: 0, Cycles Since Last IRQ: 5474
Emulated Cycles: 5474

8163: D0 F8       BNE $815D
CPU State: PC:815D A:EA X:4D Y:00 SP:FD Status:25 (NV-B DIZC)
RAM State: $00:00 $01:00 $02:00
Timing: Current Emulated Cycle: 5477, Last IRQ Trigger Cycle: 0, Cycles Since Last IRQ: 5477
Emulated Cycles: 5477

815D: A9 EA       LDA #$EA
CPU State: PC:815F A:EA X:4D Y:00 SP:FD Status:A5 (NV-B DIZC)
RAM State: $00:00 $01:00 $02:00
Timing: Current Emulated Cycle: 5479, Last IRQ Trigger Cycle: 0, Cycles Since Last IRQ: 5479
Emulated Cycles: 5479

815F: 9D 00 C2    STA $C200,X
CPU State: PC:8162 A:EA X:4D Y:00 SP:FD Status:A5 (NV-B DIZC)
RAM State: $00:00 $01:00 $02:00
Timing: Current Emulated Cycle: 5484, Last IRQ Trigger Cycle: 0, Cycles Since Last IRQ: 5484
Emulated Cycles: 5484

8162: E8          INX
CPU State: PC:8163 A:EA X:4E Y:00 SP:FD Status:25 (NV-B DIZC)
RAM State: $00:00 $01:00 $02:00
Timing: Current Emulated Cycle: 5486, Last IRQ Trigger Cycle: 0, Cycles Since Last IRQ: 5486
Emulated Cycles: 5486

8163: D0 F8       BNE $815D
CPU State: PC:815D A:EA X:4E Y:00 SP:FD Status:25 (NV-B DIZC)
RAM State: $00:00 $01:00 $02:00
Timing: Current Emulated Cycle: 5489, Last IRQ Trigger Cycle: 0, Cycles Since Last IRQ: 5489
Emulated Cycles: 5489

815D: A9 EA       LDA #$EA
CPU State: PC:815F A:EA X:4E Y:00 SP:FD Status:A5 (NV-B DIZC)
RAM State: $00:00 $01:00 $02:00
Timing: Current Emulated Cycle: 5491, Last IRQ Trigger Cycle: 0, Cycles Since Last IRQ: 5491
Emulated Cycles: 5491

815F: 9D 00 C2    STA $C200,X
CPU State: PC:8162 A:EA X:4E Y:00 SP:FD Status:A5 (NV-B DIZC)
RAM State: $00:00 $01:00 $02:00
Timing: Current Emulated Cycle: 5496, Last IRQ Trigger Cycle: 0, Cycles Since Last IRQ: 5496
Emulated Cycles: 5496

8162: E8          INX
CPU State: PC:8163 A:EA X:4F Y:00 SP:FD Status:25 (NV-B DIZC)
RAM State: $00:00 $01:00 $02:00
Timing: Current Emulated Cycle: 5498, Last IRQ Trigger Cycle: 0, Cycles Since Last IRQ: 5498
Emulated Cycles: 5498

8163: D0 F8       BNE $815D
CPU State: PC:815D A:EA X:4F Y:00 SP:FD Status:25 (NV-B DIZC)
RAM State: $00:00 $01:00 $02:00
Timing: Current Emulated Cycle: 5501, Last IRQ Trigger Cycle: 0, Cycles Since Last IRQ: 5501
Emulated Cycles: 5501

815D: A9 EA       LDA #$EA
CPU State: PC:815F A:EA X:4F Y:00 SP:FD Status:A5 (NV-B DIZC)
RAM State: $00:00 $01:00 $02:00
Timing: Current Emulated Cycle: 5503, Last IRQ Trigger Cycle: 0, Cycles Since Last IRQ: 5503
Emulated Cycles: 5503

815F: 9D 00 C2    STA $C200,X
CPU State: PC:8162 A:EA X:4F Y:00 SP:FD Status:A5 (NV-B DIZC)
RAM State: $00:00 $01:00 $02:00
Timing: Current Emulated Cycle: 5508, Last IRQ Trigger Cycle: 0, Cycles Since Last IRQ: 5508
Emulated Cycles: 5508

8162: E8          INX
CPU State: PC:8163 A:EA X:50 Y:00 SP:FD Status:25 (NV-B DIZC)
RAM State: $00:00 $01:00 $02:00
Timing: Current Emulated Cycle: 5510, Last IRQ Trigger Cycle: 0, Cycles Since Last IRQ: 5510
Emulated Cycles: 5510

8163: D0 F8       BNE $815D
CPU State: PC:815D A:EA X:50 Y:00 SP:FD Status:25 (NV-B DIZC)
RAM State: $00:00 $01:00 $02:00
Timing: Current Emulated Cycle: 5513, Last IRQ Trigger Cycle: 0, Cycles Since Last IRQ: 5513
Emulated Cycles: 5513

815D: A9 EA       LDA #$EA
CPU State: PC:815F A:EA X:50 Y:00 SP:FD Status:A5 (NV-B DIZC)
RAM State: $00:00 $01:00 $02:00
Timing: Current Emulated Cycle: 5515, Last IRQ Trigger Cycle: 0, Cycles Since Last IRQ: 5515
Emulated Cycles: 5515

815F: 9D 00 C2    STA $C200,X
CPU State: PC:8162 A:EA X:50 Y:00 SP:FD Status:A5 (NV-B DIZC)
RAM State: $00:00 $01:00 $02:00
Timing: Current Emulated Cycle: 5520, Last IRQ Trigger Cycle: 0, Cycles Since Last IRQ: 5520
Emulated Cycles: 5520

8162: E8          INX
CPU State: PC:8163 A:EA X:51 Y:00 SP:FD Status:25 (NV-B DIZC)
RAM State: $00:00 $01:00 $02:00
Timing: Current Emulated Cycle: 5522, Last IRQ Trigger Cycle: 0, Cycles Since Last IRQ: 5522
Emulated Cycles: 5522

8163: D0 F8       BNE $815D
CPU State: PC:815D A:EA X:51 Y:00 SP:FD Status:25 (NV-B DIZC)
RAM State: $00:00 $01:00 $02:00
Timing: Current Emulated Cycle: 5525, Last IRQ Trigger Cycle: 0, Cycles Since Last IRQ: 5525
Emulated Cycles: 5525

815D: A9 EA       LDA #$EA
CPU State: PC:815F A:EA X:51 Y:00 SP:FD Status:A5 (NV-B DIZC)
RAM State: $00:00 $01:00 $02:00
Timing: Current Emulated Cycle: 5527, Last IRQ Trigger Cycle: 0, Cycles Since Last IRQ: 5527
Emulated Cycles: 5527

815F: 9D 00 C2    STA $C200,X
CPU State: PC:8162 A:EA X:51 Y:00 SP:FD Status:A5 (NV-B DIZC)
RAM State: $00:00 $01:00 $02:00
Timing: Current Emulated Cycle: 5532, Last IRQ Trigger Cycle: 0, Cycles Since Last IRQ: 5532
Emulated Cycles: 5532

8162: E8          INX
CPU State: PC:8163 A:EA X:52 Y:00 SP:FD Status:25 (NV-B DIZC)
RAM State: $00:00 $01:00 $02:00
Timing: Current Emulated Cycle: 5534, Last IRQ Trigger Cycle: 0, Cycles Since Last IRQ: 5534
Emulated Cycles: 5534

8163: D0 F8       BNE $815D
CPU State: PC:815D A:EA X:52 Y:00 SP:FD Status:25 (NV-B DIZC)
RAM State: $00:00 $01:00 $02:00
Timing: Current Emulated Cycle: 5537, Last IRQ Trigger Cycle: 0, Cycles Since Last IRQ: 5537
Emulated Cycles: 5537

815D: A9 EA       LDA #$EA
CPU State: PC:815F A:EA X:52 Y:00 SP:FD Status:A5 (NV-B DIZC)
RAM State: $00:00 $01:00 $02:00
Timing: Current Emulated Cycle: 5539, Last IRQ Trigger Cycle: 0, Cycles Since Last IRQ: 5539
Emulated Cycles: 5539

815F: 9D 00 C2    STA $C200,X
CPU State: PC:8162 A:EA X:52 Y:00 SP:FD Status:A5 (NV-B DIZC)
RAM State: $00:00 $01:00 $02:00
Timing: Current Emulated Cycle: 5544, Last IRQ Trigger Cycle: 0, Cycles Since Last IRQ: 5544
Emulated Cycles: 5544

8162: E8          INX
CPU State: PC:8163 A:EA X:53 Y:00 SP:FD Status:25 (NV-B DIZC)
RAM State: $00:00 $01:00 $02:00
Timing: Current Emulated Cycle: 5546, Last IRQ Trigger Cycle: 0, Cycles Since Last IRQ: 5546
Emulated Cycles: 5546

8163: D0 F8       BNE $815D
CPU State: PC:815D A:EA X:53 Y:00 SP:FD Status:25 (NV-B DIZC)
RAM State: $00:00 $01:00 $02:00
Timing: Current Emulated Cycle: 5549, Last IRQ Trigger Cycle: 0, Cycles Since Last IRQ: 5549
Emulated Cycles: 5549

815D: A9 EA       LDA #$EA
CPU State: PC:815F A:EA X:53 Y:00 SP:FD Status:A5 (NV-B DIZC)
RAM State: $00:00 $01:00 $02:00
Timing: Current Emulated Cycle: 5551, Last IRQ Trigger Cycle: 0, Cycles Since Last IRQ: 5551
Emulated Cycles: 5551

815F: 9D 00 C2    STA $C200,X
CPU State: PC:8162 A:EA X:53 Y:00 SP:FD Status:A5 (NV-B DIZC)
RAM State: $00:00 $01:00 $02:00
Timing: Current Emulated Cycle: 5556, Last IRQ Trigger Cycle: 0, Cycles Since Last IRQ: 5556
Emulated Cycles: 5556

8162: E8          INX
CPU State: PC:8163 A:EA X:54 Y:00 SP:FD Status:25 (NV-B DIZC)
RAM State: $00:00 $01:00 $02:00
Timing: Current Emulated Cycle: 5558, Last IRQ Trigger Cycle: 0, Cycles Since Last IRQ: 5558
Emulated Cycles: 5558

8163: D0 F8       BNE $815D
CPU State: PC:815D A:EA X:54 Y:00 SP:FD Status:25 (NV-B DIZC)
RAM State: $00:00 $01:00 $02:00
Timing: Current Emulated Cycle: 5561, Last IRQ Trigger Cycle: 0, Cycles Since Last IRQ: 5561
Emulated Cycles: 5561

815D: A9 EA       LDA #$EA
CPU State: PC:815F A:EA X:54 Y:00 SP:FD Status:A5 (NV-B DIZC)
RAM State: $00:00 $01:00 $02:00
Timing: Current Emulated Cycle: 5563, Last IRQ Trigger Cycle: 0, Cycles Since Last IRQ: 5563
Emulated Cycles: 5563

815F: 9D 00 C2    STA $C200,X
CPU State: PC:8162 A:EA X:54 Y:00 SP:FD Status:A5 (NV-B DIZC)
RAM State: $00:00 $01:00 $02:00
Timing: Current Emulated Cycle: 5568, Last IRQ Trigger Cycle: 0, Cycles Since Last IRQ: 5568
Emulated Cycles: 5568

8162: E8          INX
CPU State: PC:8163 A:EA X:55 Y:00 SP:FD Status:25 (NV-B DIZC)
RAM State: $00:00 $01:00 $02:00
Timing: Current Emulated Cycle: 5570, Last IRQ Trigger Cycle: 0, Cycles Since Last IRQ: 5570
Emulated Cycles: 5570

8163: D0 F8       BNE $815D
CPU State: PC:815D A:EA X:55 Y:00 SP:FD Status:25 (NV-B DIZC)
RAM State: $00:00 $01:00 $02:00
Timing: Current Emulated Cycle: 5573, Last IRQ Trigger Cycle: 0, Cycles Since Last IRQ: 5573
Emulated Cycles: 5573

815D: A9 EA       LDA #$EA
CPU State: PC:815F A:EA X:55 Y:00 SP:FD Status:A5 (NV-B DIZC)
RAM State: $00:00 $01:00 $02:00
Timing: Current Emulated Cycle: 5575, Last IRQ Trigger Cycle: 0, Cycles Since Last IRQ: 5575
Emulated Cycles: 5575

815F: 9D 00 C2    STA $C200,X
CPU State: PC:8162 A:EA X:55 Y:00 SP:FD Status:A5 (NV-B DIZC)
RAM State: $00:00 $01:00 $02:00
Timing: Current Emulated Cycle: 5580, Last IRQ Trigger Cycle: 0, Cycles Since Last IRQ: 5580
Emulated Cycles: 5580

8162: E8          INX
CPU State: PC:8163 A:EA X:56 Y:00 SP:FD Status:25 (NV-B DIZC)
RAM State: $00:00 $01:00 $02:00
Timing: Current Emulated Cycle: 5582, Last IRQ Trigger Cycle: 0, Cycles Since Last IRQ: 5582
Emulated Cycles: 5582

8163: D0 F8       BNE $815D
CPU State: PC:815D A:EA X:56 Y:00 SP:FD Status:25 (NV-B DIZC)
RAM State: $00:00 $01:00 $02:00
Timing: Current Emulated Cycle: 5585, Last IRQ Trigger Cycle: 0, Cycles Since Last IRQ: 5585
Emulated Cycles: 5585

815D: A9 EA       LDA #$EA
CPU State: PC:815F A:EA X:56 Y:00 SP:FD Status:A5 (NV-B DIZC)
RAM State: $00:00 $01:00 $02:00
Timing: Current Emulated Cycle: 5587, Last IRQ Trigger Cycle: 0, Cycles Since Last IRQ: 5587
Emulated Cycles: 5587

815F: 9D 00 C2    STA $C200,X
CPU State: PC:8162 A:EA X:56 Y:00 SP:FD Status:A5 (NV-B DIZC)
RAM State: $00:00 $01:00 $02:00
Timing: Current Emulated Cycle: 5592, Last IRQ Trigger Cycle: 0, Cycles Since Last IRQ: 5592
Emulated Cycles: 5592

8162: E8          INX
CPU State: PC:8163 A:EA X:57 Y:00 SP:FD Status:25 (NV-B DIZC)
RAM State: $00:00 $01:00 $02:00
Timing: Current Emulated Cycle: 5594, Last IRQ Trigger Cycle: 0, Cycles Since Last IRQ: 5594
Emulated Cycles: 5594

8163: D0 F8       BNE $815D
CPU State: PC:815D A:EA X:57 Y:00 SP:FD Status:25 (NV-B DIZC)
RAM State: $00:00 $01:00 $02:00
Timing: Current Emulated Cycle: 5597, Last IRQ Trigger Cycle: 0, Cycles Since Last IRQ: 5597
Emulated Cycles: 5597

815D: A9 EA       LDA #$EA
CPU State: PC:815F A:EA X:57 Y:00 SP:FD Status:A5 (NV-B DIZC)
RAM State: $00:00 $01:00 $02:00
Timing: Current Emulated Cycle: 5599, Last IRQ Trigger Cycle: 0, Cycles Since Last IRQ: 5599
Emulated Cycles: 5599

815F: 9D 00 C2    STA $C200,X
CPU State: PC:8162 A:EA X:57 Y:00 SP:FD Status:A5 (NV-B DIZC)
RAM State: $00:00 $01:00 $02:00
Timing: Current Emulated Cycle: 5604, Last IRQ Trigger Cycle: 0, Cycles Since Last IRQ: 5604
Emulated Cycles: 5604

8162: E8          INX
CPU State: PC:8163 A:EA X:58 Y:00 SP:FD Status:25 (NV-B DIZC)
RAM State: $00:00 $01:00 $02:00
Timing: Current Emulated Cycle: 5606, Last IRQ Trigger Cycle: 0, Cycles Since Last IRQ: 5606
Emulated Cycles: 5606

8163: D0 F8       BNE $815D
CPU State: PC:815D A:EA X:58 Y:00 SP:FD Status:25 (NV-B DIZC)
RAM State: $00:00 $01:00 $02:00
Timing: Current Emulated Cycle: 5609, Last IRQ Trigger Cycle: 0, Cycles Since Last IRQ: 5609
Emulated Cycles: 5609

815D: A9 EA       LDA #$EA
CPU State: PC:815F A:EA X:58 Y:00 SP:FD Status:A5 (NV-B DIZC)
RAM State: $00:00 $01:00 $02:00
Timing: Current Emulated Cycle: 5611, Last IRQ Trigger Cycle: 0, Cycles Since Last IRQ: 5611
Emulated Cycles: 5611

815F: 9D 00 C2    STA $C200,X
CPU State: PC:8162 A:EA X:58 Y:00 SP:FD Status:A5 (NV-B DIZC)
RAM State: $00:00 $01:00 $02:00
Timing: Current Emulated Cycle: 5616, Last IRQ Trigger Cycle: 0, Cycles Since Last IRQ: 5616
Emulated Cycles: 5616

8162: E8          INX
CPU State: PC:8163 A:EA X:59 Y:00 SP:FD Status:25 (NV-B DIZC)
RAM State: $00:00 $01:00 $02:00
Timing: Current Emulated Cycle: 5618, Last IRQ Trigger Cycle: 0, Cycles Since Last IRQ: 5618
Emulated Cycles: 5618

8163: D0 F8       BNE $815D
CPU State: PC:815D A:EA X:59 Y:00 SP:FD Status:25 (NV-B DIZC)
RAM State: $00:00 $01:00 $02:00
Timing: Current Emulated Cycle: 5621, Last IRQ Trigger Cycle: 0, Cycles Since Last IRQ: 5621
Emulated Cycles: 5621

815D: A9 EA       LDA #$EA
CPU State: PC:815F A:EA X:59 Y:00 SP:FD Status:A5 (NV-B DIZC)
RAM State: $00:00 $01:00 $02:00
Timing: Current Emulated Cycle: 5623, Last IRQ Trigger Cycle: 0, Cycles Since Last IRQ: 5623
Emulated Cycles: 5623

815F: 9D 00 C2    STA $C200,X
CPU State: PC:8162 A:EA X:59 Y:00 SP:FD Status:A5 (NV-B DIZC)
RAM State: $00:00 $01:00 $02:00
Timing: Current Emulated Cycle: 5628, Last IRQ Trigger Cycle: 0, Cycles Since Last IRQ: 5628
Emulated Cycles: 5628

8162: E8          INX
CPU State: PC:8163 A:EA X:5A Y:00 SP:FD Status:25 (NV-B DIZC)
RAM State: $00:00 $01:00 $02:00
Timing: Current Emulated Cycle: 5630, Last IRQ Trigger Cycle: 0, Cycles Since Last IRQ: 5630
Emulated Cycles: 5630

8163: D0 F8       BNE $815D
CPU State: PC:815D A:EA X:5A Y:00 SP:FD Status:25 (NV-B DIZC)
RAM State: $00:00 $01:00 $02:00
Timing: Current Emulated Cycle: 5633, Last IRQ Trigger Cycle: 0, Cycles Since Last IRQ: 5633
Emulated Cycles: 5633

815D: A9 EA       LDA #$EA
CPU State: PC:815F A:EA X:5A Y:00 SP:FD Status:A5 (NV-B DIZC)
RAM State: $00:00 $01:00 $02:00
Timing: Current Emulated Cycle: 5635, Last IRQ Trigger Cycle: 0, Cycles Since Last IRQ: 5635
Emulated Cycles: 5635

815F: 9D 00 C2    STA $C200,X
CPU State: PC:8162 A:EA X:5A Y:00 SP:FD Status:A5 (NV-B DIZC)
RAM State: $00:00 $01:00 $02:00
Timing: Current Emulated Cycle: 5640, Last IRQ Trigger Cycle: 0, Cycles Since Last IRQ: 5640
Emulated Cycles: 5640

8162: E8          INX
CPU State: PC:8163 A:EA X:5B Y:00 SP:FD Status:25 (NV-B DIZC)
RAM State: $00:00 $01:00 $02:00
Timing: Current Emulated Cycle: 5642, Last IRQ Trigger Cycle: 0, Cycles Since Last IRQ: 5642
Emulated Cycles: 5642

8163: D0 F8       BNE $815D
CPU State: PC:815D A:EA X:5B Y:00 SP:FD Status:25 (NV-B DIZC)
RAM State: $00:00 $01:00 $02:00
Timing: Current Emulated Cycle: 5645, Last IRQ Trigger Cycle: 0, Cycles Since Last IRQ: 5645
Emulated Cycles: 5645

815D: A9 EA       LDA #$EA
CPU State: PC:815F A:EA X:5B Y:00 SP:FD Status:A5 (NV-B DIZC)
RAM State: $00:00 $01:00 $02:00
Timing: Current Emulated Cycle: 5647, Last IRQ Trigger Cycle: 0, Cycles Since Last IRQ: 5647
Emulated Cycles: 5647

815F: 9D 00 C2    STA $C200,X
CPU State: PC:8162 A:EA X:5B Y:00 SP:FD Status:A5 (NV-B DIZC)
RAM State: $00:00 $01:00 $02:00
Timing: Current Emulated Cycle: 5652, Last IRQ Trigger Cycle: 0, Cycles Since Last IRQ: 5652
Emulated Cycles: 5652

8162: E8          INX
CPU State: PC:8163 A:EA X:5C Y:00 SP:FD Status:25 (NV-B DIZC)
RAM State: $00:00 $01:00 $02:00
Timing: Current Emulated Cycle: 5654, Last IRQ Trigger Cycle: 0, Cycles Since Last IRQ: 5654
Emulated Cycles: 5654

8163: D0 F8       BNE $815D
CPU State: PC:815D A:EA X:5C Y:00 SP:FD Status:25 (NV-B DIZC)
RAM State: $00:00 $01:00 $02:00
Timing: Current Emulated Cycle: 5657, Last IRQ Trigger Cycle: 0, Cycles Since Last IRQ: 5657
Emulated Cycles: 5657

815D: A9 EA       LDA #$EA
CPU State: PC:815F A:EA X:5C Y:00 SP:FD Status:A5 (NV-B DIZC)
RAM State: $00:00 $01:00 $02:00
Timing: Current Emulated Cycle: 5659, Last IRQ Trigger Cycle: 0, Cycles Since Last IRQ: 5659
Emulated Cycles: 5659

815F: 9D 00 C2    STA $C200,X
CPU State: PC:8162 A:EA X:5C Y:00 SP:FD Status:A5 (NV-B DIZC)
RAM State: $00:00 $01:00 $02:00
Timing: Current Emulated Cycle: 5664, Last IRQ Trigger Cycle: 0, Cycles Since Last IRQ: 5664
Emulated Cycles: 5664

8162: E8          INX
CPU State: PC:8163 A:EA X:5D Y:00 SP:FD Status:25 (NV-B DIZC)
RAM State: $00:00 $01:00 $02:00
Timing: Current Emulated Cycle: 5666, Last IRQ Trigger Cycle: 0, Cycles Since Last IRQ: 5666
Emulated Cycles: 5666

8163: D0 F8       BNE $815D
CPU State: PC:815D A:EA X:5D Y:00 SP:FD Status:25 (NV-B DIZC)
RAM State: $00:00 $01:00 $02:00
Timing: Current Emulated Cycle: 5669, Last IRQ Trigger Cycle: 0, Cycles Since Last IRQ: 5669
Emulated Cycles: 5669

815D: A9 EA       LDA #$EA
CPU State: PC:815F A:EA X:5D Y:00 SP:FD Status:A5 (NV-B DIZC)
RAM State: $00:00 $01:00 $02:00
Timing: Current Emulated Cycle: 5671, Last IRQ Trigger Cycle: 0, Cycles Since Last IRQ: 5671
Emulated Cycles: 5671

815F: 9D 00 C2    STA $C200,X
CPU State: PC:8162 A:EA X:5D Y:00 SP:FD Status:A5 (NV-B DIZC)
RAM State: $00:00 $01:00 $02:00
Timing: Current Emulated Cycle: 5676, Last IRQ Trigger Cycle: 0, Cycles Since Last IRQ: 5676
Emulated Cycles: 5676

8162: E8          INX
CPU State: PC:8163 A:EA X:5E Y:00 SP:FD Status:25 (NV-B DIZC)
RAM State: $00:00 $01:00 $02:00
Timing: Current Emulated Cycle: 5678, Last IRQ Trigger Cycle: 0, Cycles Since Last IRQ: 5678
Emulated Cycles: 5678

8163: D0 F8       BNE $815D
CPU State: PC:815D A:EA X:5E Y:00 SP:FD Status:25 (NV-B DIZC)
RAM State: $00:00 $01:00 $02:00
Timing: Current Emulated Cycle: 5681, Last IRQ Trigger Cycle: 0, Cycles Since Last IRQ: 5681
Emulated Cycles: 5681

815D: A9 EA       LDA #$EA
CPU State: PC:815F A:EA X:5E Y:00 SP:FD Status:A5 (NV-B DIZC)
RAM State: $00:00 $01:00 $02:00
Timing: Current Emulated Cycle: 5683, Last IRQ Trigger Cycle: 0, Cycles Since Last IRQ: 5683
Emulated Cycles: 5683

815F: 9D 00 C2    STA $C200,X
CPU State: PC:8162 A:EA X:5E Y:00 SP:FD Status:A5 (NV-B DIZC)
RAM State: $00:00 $01:00 $02:00
Timing: Current Emulated Cycle: 5688, Last IRQ Trigger Cycle: 0, Cycles Since Last IRQ: 5688
Emulated Cycles: 5688

8162: E8          INX
CPU State: PC:8163 A:EA X:5F Y:00 SP:FD Status:25 (NV-B DIZC)
RAM State: $00:00 $01:00 $02:00
Timing: Current Emulated Cycle: 5690, Last IRQ Trigger Cycle: 0, Cycles Since Last IRQ: 5690
Emulated Cycles: 5690

8163: D0 F8       BNE $815D
CPU State: PC:815D A:EA X:5F Y:00 SP:FD Status:25 (NV-B DIZC)
RAM State: $00:00 $01:00 $02:00
Timing: Current Emulated Cycle: 5693, Last IRQ Trigger Cycle: 0, Cycles Since Last IRQ: 5693
Emulated Cycles: 5693

815D: A9 EA       LDA #$EA
CPU State: PC:815F A:EA X:5F Y:00 SP:FD Status:A5 (NV-B DIZC)
RAM State: $00:00 $01:00 $02:00
Timing: Current Emulated Cycle: 5695, Last IRQ Trigger Cycle: 0, Cycles Since Last IRQ: 5695
Emulated Cycles: 5695

815F: 9D 00 C2    STA $C200,X
CPU State: PC:8162 A:EA X:5F Y:00 SP:FD Status:A5 (NV-B DIZC)
RAM State: $00:00 $01:00 $02:00
Timing: Current Emulated Cycle: 5700, Last IRQ Trigger Cycle: 0, Cycles Since Last IRQ: 5700
Emulated Cycles: 5700

8162: E8          INX
CPU State: PC:8163 A:EA X:60 Y:00 SP:FD Status:25 (NV-B DIZC)
RAM State: $00:00 $01:00 $02:00
Timing: Current Emulated Cycle: 5702, Last IRQ Trigger Cycle: 0, Cycles Since Last IRQ: 5702
Emulated Cycles: 5702

8163: D0 F8       BNE $815D
CPU State: PC:815D A:EA X:60 Y:00 SP:FD Status:25 (NV-B DIZC)
RAM State: $00:00 $01:00 $02:00
Timing: Current Emulated Cycle: 5705, Last IRQ Trigger Cycle: 0, Cycles Since Last IRQ: 5705
Emulated Cycles: 5705

815D: A9 EA       LDA #$EA
CPU State: PC:815F A:EA X:60 Y:00 SP:FD Status:A5 (NV-B DIZC)
RAM State: $00:00 $01:00 $02:00
Timing: Current Emulated Cycle: 5707, Last IRQ Trigger Cycle: 0, Cycles Since Last IRQ: 5707
Emulated Cycles: 5707

815F: 9D 00 C2    STA $C200,X
CPU State: PC:8162 A:EA X:60 Y:00 SP:FD Status:A5 (NV-B DIZC)
RAM State: $00:00 $01:00 $02:00
Timing: Current Emulated Cycle: 5712, Last IRQ Trigger Cycle: 0, Cycles Since Last IRQ: 5712
Emulated Cycles: 5712

8162: E8          INX
CPU State: PC:8163 A:EA X:61 Y:00 SP:FD Status:25 (NV-B DIZC)
RAM State: $00:00 $01:00 $02:00
Timing: Current Emulated Cycle: 5714, Last IRQ Trigger Cycle: 0, Cycles Since Last IRQ: 5714
Emulated Cycles: 5714

8163: D0 F8       BNE $815D
CPU State: PC:815D A:EA X:61 Y:00 SP:FD Status:25 (NV-B DIZC)
RAM State: $00:00 $01:00 $02:00
Timing: Current Emulated Cycle: 5717, Last IRQ Trigger Cycle: 0, Cycles Since Last IRQ: 5717
Emulated Cycles: 5717

815D: A9 EA       LDA #$EA
CPU State: PC:815F A:EA X:61 Y:00 SP:FD Status:A5 (NV-B DIZC)
RAM State: $00:00 $01:00 $02:00
Timing: Current Emulated Cycle: 5719, Last IRQ Trigger Cycle: 0, Cycles Since Last IRQ: 5719
Emulated Cycles: 5719

815F: 9D 00 C2    STA $C200,X
CPU State: PC:8162 A:EA X:61 Y:00 SP:FD Status:A5 (NV-B DIZC)
RAM State: $00:00 $01:00 $02:00
Timing: Current Emulated Cycle: 5724, Last IRQ Trigger Cycle: 0, Cycles Since Last IRQ: 5724
Emulated Cycles: 5724

8162: E8          INX
CPU State: PC:8163 A:EA X:62 Y:00 SP:FD Status:25 (NV-B DIZC)
RAM State: $00:00 $01:00 $02:00
Timing: Current Emulated Cycle: 5726, Last IRQ Trigger Cycle: 0, Cycles Since Last IRQ: 5726
Emulated Cycles: 5726

8163: D0 F8       BNE $815D
CPU State: PC:815D A:EA X:62 Y:00 SP:FD Status:25 (NV-B DIZC)
RAM State: $00:00 $01:00 $02:00
Timing: Current Emulated Cycle: 5729, Last IRQ Trigger Cycle: 0, Cycles Since Last IRQ: 5729
Emulated Cycles: 5729

815D: A9 EA       LDA #$EA
CPU State: PC:815F A:EA X:62 Y:00 SP:FD Status:A5 (NV-B DIZC)
RAM State: $00:00 $01:00 $02:00
Timing: Current Emulated Cycle: 5731, Last IRQ Trigger Cycle: 0, Cycles Since Last IRQ: 5731
Emulated Cycles: 5731

815F: 9D 00 C2    STA $C200,X
CPU State: PC:8162 A:EA X:62 Y:00 SP:FD Status:A5 (NV-B DIZC)
RAM State: $00:00 $01:00 $02:00
Timing: Current Emulated Cycle: 5736, Last IRQ Trigger Cycle: 0, Cycles Since Last IRQ: 5736
Emulated Cycles: 5736

8162: E8          INX
CPU State: PC:8163 A:EA X:63 Y:00 SP:FD Status:25 (NV-B DIZC)
RAM State: $00:00 $01:00 $02:00
Timing: Current Emulated Cycle: 5738, Last IRQ Trigger Cycle: 0, Cycles Since Last IRQ: 5738
Emulated Cycles: 5738

8163: D0 F8       BNE $815D
CPU State: PC:815D A:EA X:63 Y:00 SP:FD Status:25 (NV-B DIZC)
RAM State: $00:00 $01:00 $02:00
Timing: Current Emulated Cycle: 5741, Last IRQ Trigger Cycle: 0, Cycles Since Last IRQ: 5741
Emulated Cycles: 5741

815D: A9 EA       LDA #$EA
CPU State: PC:815F A:EA X:63 Y:00 SP:FD Status:A5 (NV-B DIZC)
RAM State: $00:00 $01:00 $02:00
Timing: Current Emulated Cycle: 5743, Last IRQ Trigger Cycle: 0, Cycles Since Last IRQ: 5743
Emulated Cycles: 5743

815F: 9D 00 C2    STA $C200,X
CPU State: PC:8162 A:EA X:63 Y:00 SP:FD Status:A5 (NV-B DIZC)
RAM State: $00:00 $01:00 $02:00
Timing: Current Emulated Cycle: 5748, Last IRQ Trigger Cycle: 0, Cycles Since Last IRQ: 5748
Emulated Cycles: 5748

8162: E8          INX
CPU State: PC:8163 A:EA X:64 Y:00 SP:FD Status:25 (NV-B DIZC)
RAM State: $00:00 $01:00 $02:00
Timing: Current Emulated Cycle: 5750, Last IRQ Trigger Cycle: 0, Cycles Since Last IRQ: 5750
Emulated Cycles: 5750

8163: D0 F8       BNE $815D
CPU State: PC:815D A:EA X:64 Y:00 SP:FD Status:25 (NV-B DIZC)
RAM State: $00:00 $01:00 $02:00
Timing: Current Emulated Cycle: 5753, Last IRQ Trigger Cycle: 0, Cycles Since Last IRQ: 5753
Emulated Cycles: 5753

815D: A9 EA       LDA #$EA
CPU State: PC:815F A:EA X:64 Y:00 SP:FD Status:A5 (NV-B DIZC)
RAM State: $00:00 $01:00 $02:00
Timing: Current Emulated Cycle: 5755, Last IRQ Trigger Cycle: 0, Cycles Since Last IRQ: 5755
Emulated Cycles: 5755

815F: 9D 00 C2    STA $C200,X
CPU State: PC:8162 A:EA X:64 Y:00 SP:FD Status:A5 (NV-B DIZC)
RAM State: $00:00 $01:00 $02:00
Timing: Current Emulated Cycle: 5760, Last IRQ Trigger Cycle: 0, Cycles Since Last IRQ: 5760
Emulated Cycles: 5760

8162: E8          INX
CPU State: PC:8163 A:EA X:65 Y:00 SP:FD Status:25 (NV-B DIZC)
RAM State: $00:00 $01:00 $02:00
Timing: Current Emulated Cycle: 5762, Last IRQ Trigger Cycle: 0, Cycles Since Last IRQ: 5762
Emulated Cycles: 5762

8163: D0 F8       BNE $815D
CPU State: PC:815D A:EA X:65 Y:00 SP:FD Status:25 (NV-B DIZC)
RAM State: $00:00 $01:00 $02:00
Timing: Current Emulated Cycle: 5765, Last IRQ Trigger Cycle: 0, Cycles Since Last IRQ: 5765
Emulated Cycles: 5765

815D: A9 EA       LDA #$EA
CPU State: PC:815F A:EA X:65 Y:00 SP:FD Status:A5 (NV-B DIZC)
RAM State: $00:00 $01:00 $02:00
Timing: Current Emulated Cycle: 5767, Last IRQ Trigger Cycle: 0, Cycles Since Last IRQ: 5767
Emulated Cycles: 5767

815F: 9D 00 C2    STA $C200,X
CPU State: PC:8162 A:EA X:65 Y:00 SP:FD Status:A5 (NV-B DIZC)
RAM State: $00:00 $01:00 $02:00
Timing: Current Emulated Cycle: 5772, Last IRQ Trigger Cycle: 0, Cycles Since Last IRQ: 5772
Emulated Cycles: 5772

8162: E8          INX
CPU State: PC:8163 A:EA X:66 Y:00 SP:FD Status:25 (NV-B DIZC)
RAM State: $00:00 $01:00 $02:00
Timing: Current Emulated Cycle: 5774, Last IRQ Trigger Cycle: 0, Cycles Since Last IRQ: 5774
Emulated Cycles: 5774

8163: D0 F8       BNE $815D
CPU State: PC:815D A:EA X:66 Y:00 SP:FD Status:25 (NV-B DIZC)
RAM State: $00:00 $01:00 $02:00
Timing: Current Emulated Cycle: 5777, Last IRQ Trigger Cycle: 0, Cycles Since Last IRQ: 5777
Emulated Cycles: 5777

815D: A9 EA       LDA #$EA
CPU State: PC:815F A:EA X:66 Y:00 SP:FD Status:A5 (NV-B DIZC)
RAM State: $00:00 $01:00 $02:00
Timing: Current Emulated Cycle: 5779, Last IRQ Trigger Cycle: 0, Cycles Since Last IRQ: 5779
Emulated Cycles: 5779

815F: 9D 00 C2    STA $C200,X
CPU State: PC:8162 A:EA X:66 Y:00 SP:FD Status:A5 (NV-B DIZC)
RAM State: $00:00 $01:00 $02:00
Timing: Current Emulated Cycle: 5784, Last IRQ Trigger Cycle: 0, Cycles Since Last IRQ: 5784
Emulated Cycles: 5784

8162: E8          INX
CPU State: PC:8163 A:EA X:67 Y:00 SP:FD Status:25 (NV-B DIZC)
RAM State: $00:00 $01:00 $02:00
Timing: Current Emulated Cycle: 5786, Last IRQ Trigger Cycle: 0, Cycles Since Last IRQ: 5786
Emulated Cycles: 5786

8163: D0 F8       BNE $815D
CPU State: PC:815D A:EA X:67 Y:00 SP:FD Status:25 (NV-B DIZC)
RAM State: $00:00 $01:00 $02:00
Timing: Current Emulated Cycle: 5789, Last IRQ Trigger Cycle: 0, Cycles Since Last IRQ: 5789
Emulated Cycles: 5789

815D: A9 EA       LDA #$EA
CPU State: PC:815F A:EA X:67 Y:00 SP:FD Status:A5 (NV-B DIZC)
RAM State: $00:00 $01:00 $02:00
Timing: Current Emulated Cycle: 5791, Last IRQ Trigger Cycle: 0, Cycles Since Last IRQ: 5791
Emulated Cycles: 5791

815F: 9D 00 C2    STA $C200,X
CPU State: PC:8162 A:EA X:67 Y:00 SP:FD Status:A5 (NV-B DIZC)
RAM State: $00:00 $01:00 $02:00
Timing: Current Emulated Cycle: 5796, Last IRQ Trigger Cycle: 0, Cycles Since Last IRQ: 5796
Emulated Cycles: 5796

8162: E8          INX
CPU State: PC:8163 A:EA X:68 Y:00 SP:FD Status:25 (NV-B DIZC)
RAM State: $00:00 $01:00 $02:00
Timing: Current Emulated Cycle: 5798, Last IRQ Trigger Cycle: 0, Cycles Since Last IRQ: 5798
Emulated Cycles: 5798

8163: D0 F8       BNE $815D
CPU State: PC:815D A:EA X:68 Y:00 SP:FD Status:25 (NV-B DIZC)
RAM State: $00:00 $01:00 $02:00
Timing: Current Emulated Cycle: 5801, Last IRQ Trigger Cycle: 0, Cycles Since Last IRQ: 5801
Emulated Cycles: 5801

815D: A9 EA       LDA #$EA
CPU State: PC:815F A:EA X:68 Y:00 SP:FD Status:A5 (NV-B DIZC)
RAM State: $00:00 $01:00 $02:00
Timing: Current Emulated Cycle: 5803, Last IRQ Trigger Cycle: 0, Cycles Since Last IRQ: 5803
Emulated Cycles: 5803

815F: 9D 00 C2    STA $C200,X
CPU State: PC:8162 A:EA X:68 Y:00 SP:FD Status:A5 (NV-B DIZC)
RAM State: $00:00 $01:00 $02:00
Timing: Current Emulated Cycle: 5808, Last IRQ Trigger Cycle: 0, Cycles Since Last IRQ: 5808
Emulated Cycles: 5808

8162: E8          INX
CPU State: PC:8163 A:EA X:69 Y:00 SP:FD Status:25 (NV-B DIZC)
RAM State: $00:00 $01:00 $02:00
Timing: Current Emulated Cycle: 5810, Last IRQ Trigger Cycle: 0, Cycles Since Last IRQ: 5810
Emulated Cycles: 5810

8163: D0 F8       BNE $815D
CPU State: PC:815D A:EA X:69 Y:00 SP:FD Status:25 (NV-B DIZC)
RAM State: $00:00 $01:00 $02:00
Timing: Current Emulated Cycle: 5813, Last IRQ Trigger Cycle: 0, Cycles Since Last IRQ: 5813
Emulated Cycles: 5813

815D: A9 EA       LDA #$EA
CPU State: PC:815F A:EA X:69 Y:00 SP:FD Status:A5 (NV-B DIZC)
RAM State: $00:00 $01:00 $02:00
Timing: Current Emulated Cycle: 5815, Last IRQ Trigger Cycle: 0, Cycles Since Last IRQ: 5815
Emulated Cycles: 5815

815F: 9D 00 C2    STA $C200,X
CPU State: PC:8162 A:EA X:69 Y:00 SP:FD Status:A5 (NV-B DIZC)
RAM State: $00:00 $01:00 $02:00
Timing: Current Emulated Cycle: 5820, Last IRQ Trigger Cycle: 0, Cycles Since Last IRQ: 5820
Emulated Cycles: 5820

8162: E8          INX
CPU State: PC:8163 A:EA X:6A Y:00 SP:FD Status:25 (NV-B DIZC)
RAM State: $00:00 $01:00 $02:00
Timing: Current Emulated Cycle: 5822, Last IRQ Trigger Cycle: 0, Cycles Since Last IRQ: 5822
Emulated Cycles: 5822

8163: D0 F8       BNE $815D
CPU State: PC:815D A:EA X:6A Y:00 SP:FD Status:25 (NV-B DIZC)
RAM State: $00:00 $01:00 $02:00
Timing: Current Emulated Cycle: 5825, Last IRQ Trigger Cycle: 0, Cycles Since Last IRQ: 5825
Emulated Cycles: 5825

815D: A9 EA       LDA #$EA
CPU State: PC:815F A:EA X:6A Y:00 SP:FD Status:A5 (NV-B DIZC)
RAM State: $00:00 $01:00 $02:00
Timing: Current Emulated Cycle: 5827, Last IRQ Trigger Cycle: 0, Cycles Since Last IRQ: 5827
Emulated Cycles: 5827

815F: 9D 00 C2    STA $C200,X
CPU State: PC:8162 A:EA X:6A Y:00 SP:FD Status:A5 (NV-B DIZC)
RAM State: $00:00 $01:00 $02:00
Timing: Current Emulated Cycle: 5832, Last IRQ Trigger Cycle: 0, Cycles Since Last IRQ: 5832
Emulated Cycles: 5832

8162: E8          INX
CPU State: PC:8163 A:EA X:6B Y:00 SP:FD Status:25 (NV-B DIZC)
RAM State: $00:00 $01:00 $02:00
Timing: Current Emulated Cycle: 5834, Last IRQ Trigger Cycle: 0, Cycles Since Last IRQ: 5834
Emulated Cycles: 5834

8163: D0 F8       BNE $815D
CPU State: PC:815D A:EA X:6B Y:00 SP:FD Status:25 (NV-B DIZC)
RAM State: $00:00 $01:00 $02:00
Timing: Current Emulated Cycle: 5837, Last IRQ Trigger Cycle: 0, Cycles Since Last IRQ: 5837
Emulated Cycles: 5837

815D: A9 EA       LDA #$EA
CPU State: PC:815F A:EA X:6B Y:00 SP:FD Status:A5 (NV-B DIZC)
RAM State: $00:00 $01:00 $02:00
Timing: Current Emulated Cycle: 5839, Last IRQ Trigger Cycle: 0, Cycles Since Last IRQ: 5839
Emulated Cycles: 5839

815F: 9D 00 C2    STA $C200,X
CPU State: PC:8162 A:EA X:6B Y:00 SP:FD Status:A5 (NV-B DIZC)
RAM State: $00:00 $01:00 $02:00
Timing: Current Emulated Cycle: 5844, Last IRQ Trigger Cycle: 0, Cycles Since Last IRQ: 5844
Emulated Cycles: 5844

8162: E8          INX
CPU State: PC:8163 A:EA X:6C Y:00 SP:FD Status:25 (NV-B DIZC)
RAM State: $00:00 $01:00 $02:00
Timing: Current Emulated Cycle: 5846, Last IRQ Trigger Cycle: 0, Cycles Since Last IRQ: 5846
Emulated Cycles: 5846

8163: D0 F8       BNE $815D
CPU State: PC:815D A:EA X:6C Y:00 SP:FD Status:25 (NV-B DIZC)
RAM State: $00:00 $01:00 $02:00
Timing: Current Emulated Cycle: 5849, Last IRQ Trigger Cycle: 0, Cycles Since Last IRQ: 5849
Emulated Cycles: 5849

815D: A9 EA       LDA #$EA
CPU State: PC:815F A:EA X:6C Y:00 SP:FD Status:A5 (NV-B DIZC)
RAM State: $00:00 $01:00 $02:00
Timing: Current Emulated Cycle: 5851, Last IRQ Trigger Cycle: 0, Cycles Since Last IRQ: 5851
Emulated Cycles: 5851

815F: 9D 00 C2    STA $C200,X
CPU State: PC:8162 A:EA X:6C Y:00 SP:FD Status:A5 (NV-B DIZC)
RAM State: $00:00 $01:00 $02:00
Timing: Current Emulated Cycle: 5856, Last IRQ Trigger Cycle: 0, Cycles Since Last IRQ: 5856
Emulated Cycles: 5856

8162: E8          INX
CPU State: PC:8163 A:EA X:6D Y:00 SP:FD Status:25 (NV-B DIZC)
RAM State: $00:00 $01:00 $02:00
Timing: Current Emulated Cycle: 5858, Last IRQ Trigger Cycle: 0, Cycles Since Last IRQ: 5858
Emulated Cycles: 5858

8163: D0 F8       BNE $815D
CPU State: PC:815D A:EA X:6D Y:00 SP:FD Status:25 (NV-B DIZC)
RAM State: $00:00 $01:00 $02:00
Timing: Current Emulated Cycle: 5861, Last IRQ Trigger Cycle: 0, Cycles Since Last IRQ: 5861
Emulated Cycles: 5861

815D: A9 EA       LDA #$EA
CPU State: PC:815F A:EA X:6D Y:00 SP:FD Status:A5 (NV-B DIZC)
RAM State: $00:00 $01:00 $02:00
Timing: Current Emulated Cycle: 5863, Last IRQ Trigger Cycle: 0, Cycles Since Last IRQ: 5863
Emulated Cycles: 5863

815F: 9D 00 C2    STA $C200,X
CPU State: PC:8162 A:EA X:6D Y:00 SP:FD Status:A5 (NV-B DIZC)
RAM State: $00:00 $01:00 $02:00
Timing: Current Emulated Cycle: 5868, Last IRQ Trigger Cycle: 0, Cycles Since Last IRQ: 5868
Emulated Cycles: 5868

8162: E8          INX
CPU State: PC:8163 A:EA X:6E Y:00 SP:FD Status:25 (NV-B DIZC)
RAM State: $00:00 $01:00 $02:00
Timing: Current Emulated Cycle: 5870, Last IRQ Trigger Cycle: 0, Cycles Since Last IRQ: 5870
Emulated Cycles: 5870

8163: D0 F8       BNE $815D
CPU State: PC:815D A:EA X:6E Y:00 SP:FD Status:25 (NV-B DIZC)
RAM State: $00:00 $01:00 $02:00
Timing: Current Emulated Cycle: 5873, Last IRQ Trigger Cycle: 0, Cycles Since Last IRQ: 5873
Emulated Cycles: 5873

815D: A9 EA       LDA #$EA
CPU State: PC:815F A:EA X:6E Y:00 SP:FD Status:A5 (NV-B DIZC)
RAM State: $00:00 $01:00 $02:00
Timing: Current Emulated Cycle: 5875, Last IRQ Trigger Cycle: 0, Cycles Since Last IRQ: 5875
Emulated Cycles: 5875

815F: 9D 00 C2    STA $C200,X
CPU State: PC:8162 A:EA X:6E Y:00 SP:FD Status:A5 (NV-B DIZC)
RAM State: $00:00 $01:00 $02:00
Timing: Current Emulated Cycle: 5880, Last IRQ Trigger Cycle: 0, Cycles Since Last IRQ: 5880
Emulated Cycles: 5880

8162: E8          INX
CPU State: PC:8163 A:EA X:6F Y:00 SP:FD Status:25 (NV-B DIZC)
RAM State: $00:00 $01:00 $02:00
Timing: Current Emulated Cycle: 5882, Last IRQ Trigger Cycle: 0, Cycles Since Last IRQ: 5882
Emulated Cycles: 5882

8163: D0 F8       BNE $815D
CPU State: PC:815D A:EA X:6F Y:00 SP:FD Status:25 (NV-B DIZC)
RAM State: $00:00 $01:00 $02:00
Timing: Current Emulated Cycle: 5885, Last IRQ Trigger Cycle: 0, Cycles Since Last IRQ: 5885
Emulated Cycles: 5885

815D: A9 EA       LDA #$EA
CPU State: PC:815F A:EA X:6F Y:00 SP:FD Status:A5 (NV-B DIZC)
RAM State: $00:00 $01:00 $02:00
Timing: Current Emulated Cycle: 5887, Last IRQ Trigger Cycle: 0, Cycles Since Last IRQ: 5887
Emulated Cycles: 5887

815F: 9D 00 C2    STA $C200,X
CPU State: PC:8162 A:EA X:6F Y:00 SP:FD Status:A5 (NV-B DIZC)
RAM State: $00:00 $01:00 $02:00
Timing: Current Emulated Cycle: 5892, Last IRQ Trigger Cycle: 0, Cycles Since Last IRQ: 5892
Emulated Cycles: 5892

8162: E8          INX
CPU State: PC:8163 A:EA X:70 Y:00 SP:FD Status:25 (NV-B DIZC)
RAM State: $00:00 $01:00 $02:00
Timing: Current Emulated Cycle: 5894, Last IRQ Trigger Cycle: 0, Cycles Since Last IRQ: 5894
Emulated Cycles: 5894

8163: D0 F8       BNE $815D
CPU State: PC:815D A:EA X:70 Y:00 SP:FD Status:25 (NV-B DIZC)
RAM State: $00:00 $01:00 $02:00
Timing: Current Emulated Cycle: 5897, Last IRQ Trigger Cycle: 0, Cycles Since Last IRQ: 5897
Emulated Cycles: 5897

815D: A9 EA       LDA #$EA
CPU State: PC:815F A:EA X:70 Y:00 SP:FD Status:A5 (NV-B DIZC)
RAM State: $00:00 $01:00 $02:00
Timing: Current Emulated Cycle: 5899, Last IRQ Trigger Cycle: 0, Cycles Since Last IRQ: 5899
Emulated Cycles: 5899

815F: 9D 00 C2    STA $C200,X
CPU State: PC:8162 A:EA X:70 Y:00 SP:FD Status:A5 (NV-B DIZC)
RAM State: $00:00 $01:00 $02:00
Timing: Current Emulated Cycle: 5904, Last IRQ Trigger Cycle: 0, Cycles Since Last IRQ: 5904
Emulated Cycles: 5904

8162: E8          INX
CPU State: PC:8163 A:EA X:71 Y:00 SP:FD Status:25 (NV-B DIZC)
RAM State: $00:00 $01:00 $02:00
Timing: Current Emulated Cycle: 5906, Last IRQ Trigger Cycle: 0, Cycles Since Last IRQ: 5906
Emulated Cycles: 5906

8163: D0 F8       BNE $815D
CPU State: PC:815D A:EA X:71 Y:00 SP:FD Status:25 (NV-B DIZC)
RAM State: $00:00 $01:00 $02:00
Timing: Current Emulated Cycle: 5909, Last IRQ Trigger Cycle: 0, Cycles Since Last IRQ: 5909
Emulated Cycles: 5909

815D: A9 EA       LDA #$EA
CPU State: PC:815F A:EA X:71 Y:00 SP:FD Status:A5 (NV-B DIZC)
RAM State: $00:00 $01:00 $02:00
Timing: Current Emulated Cycle: 5911, Last IRQ Trigger Cycle: 0, Cycles Since Last IRQ: 5911
Emulated Cycles: 5911

815F: 9D 00 C2    STA $C200,X
CPU State: PC:8162 A:EA X:71 Y:00 SP:FD Status:A5 (NV-B DIZC)
RAM State: $00:00 $01:00 $02:00
Timing: Current Emulated Cycle: 5916, Last IRQ Trigger Cycle: 0, Cycles Since Last IRQ: 5916
Emulated Cycles: 5916

8162: E8          INX
CPU State: PC:8163 A:EA X:72 Y:00 SP:FD Status:25 (NV-B DIZC)
RAM State: $00:00 $01:00 $02:00
Timing: Current Emulated Cycle: 5918, Last IRQ Trigger Cycle: 0, Cycles Since Last IRQ: 5918
Emulated Cycles: 5918

8163: D0 F8       BNE $815D
CPU State: PC:815D A:EA X:72 Y:00 SP:FD Status:25 (NV-B DIZC)
RAM State: $00:00 $01:00 $02:00
Timing: Current Emulated Cycle: 5921, Last IRQ Trigger Cycle: 0, Cycles Since Last IRQ: 5921
Emulated Cycles: 5921

815D: A9 EA       LDA #$EA
CPU State: PC:815F A:EA X:72 Y:00 SP:FD Status:A5 (NV-B DIZC)
RAM State: $00:00 $01:00 $02:00
Timing: Current Emulated Cycle: 5923, Last IRQ Trigger Cycle: 0, Cycles Since Last IRQ: 5923
Emulated Cycles: 5923

815F: 9D 00 C2    STA $C200,X
CPU State: PC:8162 A:EA X:72 Y:00 SP:FD Status:A5 (NV-B DIZC)
RAM State: $00:00 $01:00 $02:00
Timing: Current Emulated Cycle: 5928, Last IRQ Trigger Cycle: 0, Cycles Since Last IRQ: 5928
Emulated Cycles: 5928

8162: E8          INX
CPU State: PC:8163 A:EA X:73 Y:00 SP:FD Status:25 (NV-B DIZC)
RAM State: $00:00 $01:00 $02:00
Timing: Current Emulated Cycle: 5930, Last IRQ Trigger Cycle: 0, Cycles Since Last IRQ: 5930
Emulated Cycles: 5930

8163: D0 F8       BNE $815D
CPU State: PC:815D A:EA X:73 Y:00 SP:FD Status:25 (NV-B DIZC)
RAM State: $00:00 $01:00 $02:00
Timing: Current Emulated Cycle: 5933, Last IRQ Trigger Cycle: 0, Cycles Since Last IRQ: 5933
Emulated Cycles: 5933

815D: A9 EA       LDA #$EA
CPU State: PC:815F A:EA X:73 Y:00 SP:FD Status:A5 (NV-B DIZC)
RAM State: $00:00 $01:00 $02:00
Timing: Current Emulated Cycle: 5935, Last IRQ Trigger Cycle: 0, Cycles Since Last IRQ: 5935
Emulated Cycles: 5935

815F: 9D 00 C2    STA $C200,X
CPU State: PC:8162 A:EA X:73 Y:00 SP:FD Status:A5 (NV-B DIZC)
RAM State: $00:00 $01:00 $02:00
Timing: Current Emulated Cycle: 5940, Last IRQ Trigger Cycle: 0, Cycles Since Last IRQ: 5940
Emulated Cycles: 5940

8162: E8          INX
CPU State: PC:8163 A:EA X:74 Y:00 SP:FD Status:25 (NV-B DIZC)
RAM State: $00:00 $01:00 $02:00
Timing: Current Emulated Cycle: 5942, Last IRQ Trigger Cycle: 0, Cycles Since Last IRQ: 5942
Emulated Cycles: 5942

8163: D0 F8       BNE $815D
CPU State: PC:815D A:EA X:74 Y:00 SP:FD Status:25 (NV-B DIZC)
RAM State: $00:00 $01:00 $02:00
Timing: Current Emulated Cycle: 5945, Last IRQ Trigger Cycle: 0, Cycles Since Last IRQ: 5945
Emulated Cycles: 5945

815D: A9 EA       LDA #$EA
CPU State: PC:815F A:EA X:74 Y:00 SP:FD Status:A5 (NV-B DIZC)
RAM State: $00:00 $01:00 $02:00
Timing: Current Emulated Cycle: 5947, Last IRQ Trigger Cycle: 0, Cycles Since Last IRQ: 5947
Emulated Cycles: 5947

815F: 9D 00 C2    STA $C200,X
CPU State: PC:8162 A:EA X:74 Y:00 SP:FD Status:A5 (NV-B DIZC)
RAM State: $00:00 $01:00 $02:00
Timing: Current Emulated Cycle: 5952, Last IRQ Trigger Cycle: 0, Cycles Since Last IRQ: 5952
Emulated Cycles: 5952

8162: E8          INX
CPU State: PC:8163 A:EA X:75 Y:00 SP:FD Status:25 (NV-B DIZC)
RAM State: $00:00 $01:00 $02:00
Timing: Current Emulated Cycle: 5954, Last IRQ Trigger Cycle: 0, Cycles Since Last IRQ: 5954
Emulated Cycles: 5954

8163: D0 F8       BNE $815D
CPU State: PC:815D A:EA X:75 Y:00 SP:FD Status:25 (NV-B DIZC)
RAM State: $00:00 $01:00 $02:00
Timing: Current Emulated Cycle: 5957, Last IRQ Trigger Cycle: 0, Cycles Since Last IRQ: 5957
Emulated Cycles: 5957

815D: A9 EA       LDA #$EA
CPU State: PC:815F A:EA X:75 Y:00 SP:FD Status:A5 (NV-B DIZC)
RAM State: $00:00 $01:00 $02:00
Timing: Current Emulated Cycle: 5959, Last IRQ Trigger Cycle: 0, Cycles Since Last IRQ: 5959
Emulated Cycles: 5959

815F: 9D 00 C2    STA $C200,X
CPU State: PC:8162 A:EA X:75 Y:00 SP:FD Status:A5 (NV-B DIZC)
RAM State: $00:00 $01:00 $02:00
Timing: Current Emulated Cycle: 5964, Last IRQ Trigger Cycle: 0, Cycles Since Last IRQ: 5964
Emulated Cycles: 5964

8162: E8          INX
CPU State: PC:8163 A:EA X:76 Y:00 SP:FD Status:25 (NV-B DIZC)
RAM State: $00:00 $01:00 $02:00
Timing: Current Emulated Cycle: 5966, Last IRQ Trigger Cycle: 0, Cycles Since Last IRQ: 5966
Emulated Cycles: 5966

8163: D0 F8       BNE $815D
CPU State: PC:815D A:EA X:76 Y:00 SP:FD Status:25 (NV-B DIZC)
RAM State: $00:00 $01:00 $02:00
Timing: Current Emulated Cycle: 5969, Last IRQ Trigger Cycle: 0, Cycles Since Last IRQ: 5969
Emulated Cycles: 5969

815D: A9 EA       LDA #$EA
CPU State: PC:815F A:EA X:76 Y:00 SP:FD Status:A5 (NV-B DIZC)
RAM State: $00:00 $01:00 $02:00
Timing: Current Emulated Cycle: 5971, Last IRQ Trigger Cycle: 0, Cycles Since Last IRQ: 5971
Emulated Cycles: 5971

815F: 9D 00 C2    STA $C200,X
CPU State: PC:8162 A:EA X:76 Y:00 SP:FD Status:A5 (NV-B DIZC)
RAM State: $00:00 $01:00 $02:00
Timing: Current Emulated Cycle: 5976, Last IRQ Trigger Cycle: 0, Cycles Since Last IRQ: 5976
Emulated Cycles: 5976

8162: E8          INX
CPU State: PC:8163 A:EA X:77 Y:00 SP:FD Status:25 (NV-B DIZC)
RAM State: $00:00 $01:00 $02:00
Timing: Current Emulated Cycle: 5978, Last IRQ Trigger Cycle: 0, Cycles Since Last IRQ: 5978
Emulated Cycles: 5978

8163: D0 F8       BNE $815D
CPU State: PC:815D A:EA X:77 Y:00 SP:FD Status:25 (NV-B DIZC)
RAM State: $00:00 $01:00 $02:00
Timing: Current Emulated Cycle: 5981, Last IRQ Trigger Cycle: 0, Cycles Since Last IRQ: 5981
Emulated Cycles: 5981

815D: A9 EA       LDA #$EA
CPU State: PC:815F A:EA X:77 Y:00 SP:FD Status:A5 (NV-B DIZC)
RAM State: $00:00 $01:00 $02:00
Timing: Current Emulated Cycle: 5983, Last IRQ Trigger Cycle: 0, Cycles Since Last IRQ: 5983
Emulated Cycles: 5983

815F: 9D 00 C2    STA $C200,X
CPU State: PC:8162 A:EA X:77 Y:00 SP:FD Status:A5 (NV-B DIZC)
RAM State: $00:00 $01:00 $02:00
Timing: Current Emulated Cycle: 5988, Last IRQ Trigger Cycle: 0, Cycles Since Last IRQ: 5988
Emulated Cycles: 5988

8162: E8          INX
CPU State: PC:8163 A:EA X:78 Y:00 SP:FD Status:25 (NV-B DIZC)
RAM State: $00:00 $01:00 $02:00
Timing: Current Emulated Cycle: 5990, Last IRQ Trigger Cycle: 0, Cycles Since Last IRQ: 5990
Emulated Cycles: 5990

8163: D0 F8       BNE $815D
CPU State: PC:815D A:EA X:78 Y:00 SP:FD Status:25 (NV-B DIZC)
RAM State: $00:00 $01:00 $02:00
Timing: Current Emulated Cycle: 5993, Last IRQ Trigger Cycle: 0, Cycles Since Last IRQ: 5993
Emulated Cycles: 5993

815D: A9 EA       LDA #$EA
CPU State: PC:815F A:EA X:78 Y:00 SP:FD Status:A5 (NV-B DIZC)
RAM State: $00:00 $01:00 $02:00
Timing: Current Emulated Cycle: 5995, Last IRQ Trigger Cycle: 0, Cycles Since Last IRQ: 5995
Emulated Cycles: 5995

815F: 9D 00 C2    STA $C200,X
CPU State: PC:8162 A:EA X:78 Y:00 SP:FD Status:A5 (NV-B DIZC)
RAM State: $00:00 $01:00 $02:00
Timing: Current Emulated Cycle: 6000, Last IRQ Trigger Cycle: 0, Cycles Since Last IRQ: 6000
Emulated Cycles: 6000

8162: E8          INX
CPU State: PC:8163 A:EA X:79 Y:00 SP:FD Status:25 (NV-B DIZC)
RAM State: $00:00 $01:00 $02:00
Timing: Current Emulated Cycle: 6002, Last IRQ Trigger Cycle: 0, Cycles Since Last IRQ: 6002
Emulated Cycles: 6002

8163: D0 F8       BNE $815D
CPU State: PC:815D A:EA X:79 Y:00 SP:FD Status:25 (NV-B DIZC)
RAM State: $00:00 $01:00 $02:00
Timing: Current Emulated Cycle: 6005, Last IRQ Trigger Cycle: 0, Cycles Since Last IRQ: 6005
Emulated Cycles: 6005

815D: A9 EA       LDA #$EA
CPU State: PC:815F A:EA X:79 Y:00 SP:FD Status:A5 (NV-B DIZC)
RAM State: $00:00 $01:00 $02:00
Timing: Current Emulated Cycle: 6007, Last IRQ Trigger Cycle: 0, Cycles Since Last IRQ: 6007
Emulated Cycles: 6007

815F: 9D 00 C2    STA $C200,X
CPU State: PC:8162 A:EA X:79 Y:00 SP:FD Status:A5 (NV-B DIZC)
RAM State: $00:00 $01:00 $02:00
Timing: Current Emulated Cycle: 6012, Last IRQ Trigger Cycle: 0, Cycles Since Last IRQ: 6012
Emulated Cycles: 6012

8162: E8          INX
CPU State: PC:8163 A:EA X:7A Y:00 SP:FD Status:25 (NV-B DIZC)
RAM State: $00:00 $01:00 $02:00
Timing: Current Emulated Cycle: 6014, Last IRQ Trigger Cycle: 0, Cycles Since Last IRQ: 6014
Emulated Cycles: 6014

8163: D0 F8       BNE $815D
CPU State: PC:815D A:EA X:7A Y:00 SP:FD Status:25 (NV-B DIZC)
RAM State: $00:00 $01:00 $02:00
Timing: Current Emulated Cycle: 6017, Last IRQ Trigger Cycle: 0, Cycles Since Last IRQ: 6017
Emulated Cycles: 6017

815D: A9 EA       LDA #$EA
CPU State: PC:815F A:EA X:7A Y:00 SP:FD Status:A5 (NV-B DIZC)
RAM State: $00:00 $01:00 $02:00
Timing: Current Emulated Cycle: 6019, Last IRQ Trigger Cycle: 0, Cycles Since Last IRQ: 6019
Emulated Cycles: 6019

815F: 9D 00 C2    STA $C200,X
CPU State: PC:8162 A:EA X:7A Y:00 SP:FD Status:A5 (NV-B DIZC)
RAM State: $00:00 $01:00 $02:00
Timing: Current Emulated Cycle: 6024, Last IRQ Trigger Cycle: 0, Cycles Since Last IRQ: 6024
Emulated Cycles: 6024

8162: E8          INX
CPU State: PC:8163 A:EA X:7B Y:00 SP:FD Status:25 (NV-B DIZC)
RAM State: $00:00 $01:00 $02:00
Timing: Current Emulated Cycle: 6026, Last IRQ Trigger Cycle: 0, Cycles Since Last IRQ: 6026
Emulated Cycles: 6026

8163: D0 F8       BNE $815D
CPU State: PC:815D A:EA X:7B Y:00 SP:FD Status:25 (NV-B DIZC)
RAM State: $00:00 $01:00 $02:00
Timing: Current Emulated Cycle: 6029, Last IRQ Trigger Cycle: 0, Cycles Since Last IRQ: 6029
Emulated Cycles: 6029

815D: A9 EA       LDA #$EA
CPU State: PC:815F A:EA X:7B Y:00 SP:FD Status:A5 (NV-B DIZC)
RAM State: $00:00 $01:00 $02:00
Timing: Current Emulated Cycle: 6031, Last IRQ Trigger Cycle: 0, Cycles Since Last IRQ: 6031
Emulated Cycles: 6031

815F: 9D 00 C2    STA $C200,X
CPU State: PC:8162 A:EA X:7B Y:00 SP:FD Status:A5 (NV-B DIZC)
RAM State: $00:00 $01:00 $02:00
Timing: Current Emulated Cycle: 6036, Last IRQ Trigger Cycle: 0, Cycles Since Last IRQ: 6036
Emulated Cycles: 6036

8162: E8          INX
CPU State: PC:8163 A:EA X:7C Y:00 SP:FD Status:25 (NV-B DIZC)
RAM State: $00:00 $01:00 $02:00
Timing: Current Emulated Cycle: 6038, Last IRQ Trigger Cycle: 0, Cycles Since Last IRQ: 6038
Emulated Cycles: 6038

8163: D0 F8       BNE $815D
CPU State: PC:815D A:EA X:7C Y:00 SP:FD Status:25 (NV-B DIZC)
RAM State: $00:00 $01:00 $02:00
Timing: Current Emulated Cycle: 6041, Last IRQ Trigger Cycle: 0, Cycles Since Last IRQ: 6041
Emulated Cycles: 6041

815D: A9 EA       LDA #$EA
CPU State: PC:815F A:EA X:7C Y:00 SP:FD Status:A5 (NV-B DIZC)
RAM State: $00:00 $01:00 $02:00
Timing: Current Emulated Cycle: 6043, Last IRQ Trigger Cycle: 0, Cycles Since Last IRQ: 6043
Emulated Cycles: 6043

815F: 9D 00 C2    STA $C200,X
CPU State: PC:8162 A:EA X:7C Y:00 SP:FD Status:A5 (NV-B DIZC)
RAM State: $00:00 $01:00 $02:00
Timing: Current Emulated Cycle: 6048, Last IRQ Trigger Cycle: 0, Cycles Since Last IRQ: 6048
Emulated Cycles: 6048

8162: E8          INX
CPU State: PC:8163 A:EA X:7D Y:00 SP:FD Status:25 (NV-B DIZC)
RAM State: $00:00 $01:00 $02:00
Timing: Current Emulated Cycle: 6050, Last IRQ Trigger Cycle: 0, Cycles Since Last IRQ: 6050
Emulated Cycles: 6050

8163: D0 F8       BNE $815D
CPU State: PC:815D A:EA X:7D Y:00 SP:FD Status:25 (NV-B DIZC)
RAM State: $00:00 $01:00 $02:00
Timing: Current Emulated Cycle: 6053, Last IRQ Trigger Cycle: 0, Cycles Since Last IRQ: 6053
Emulated Cycles: 6053

815D: A9 EA       LDA #$EA
CPU State: PC:815F A:EA X:7D Y:00 SP:FD Status:A5 (NV-B DIZC)
RAM State: $00:00 $01:00 $02:00
Timing: Current Emulated Cycle: 6055, Last IRQ Trigger Cycle: 0, Cycles Since Last IRQ: 6055
Emulated Cycles: 6055

815F: 9D 00 C2    STA $C200,X
CPU State: PC:8162 A:EA X:7D Y:00 SP:FD Status:A5 (NV-B DIZC)
RAM State: $00:00 $01:00 $02:00
Timing: Current Emulated Cycle: 6060, Last IRQ Trigger Cycle: 0, Cycles Since Last IRQ: 6060
Emulated Cycles: 6060

8162: E8          INX
CPU State: PC:8163 A:EA X:7E Y:00 SP:FD Status:25 (NV-B DIZC)
RAM State: $00:00 $01:00 $02:00
Timing: Current Emulated Cycle: 6062, Last IRQ Trigger Cycle: 0, Cycles Since Last IRQ: 6062
Emulated Cycles: 6062

8163: D0 F8       BNE $815D
CPU State: PC:815D A:EA X:7E Y:00 SP:FD Status:25 (NV-B DIZC)
RAM State: $00:00 $01:00 $02:00
Timing: Current Emulated Cycle: 6065, Last IRQ Trigger Cycle: 0, Cycles Since Last IRQ: 6065
Emulated Cycles: 6065

815D: A9 EA       LDA #$EA
CPU State: PC:815F A:EA X:7E Y:00 SP:FD Status:A5 (NV-B DIZC)
RAM State: $00:00 $01:00 $02:00
Timing: Current Emulated Cycle: 6067, Last IRQ Trigger Cycle: 0, Cycles Since Last IRQ: 6067
Emulated Cycles: 6067

815F: 9D 00 C2    STA $C200,X
CPU State: PC:8162 A:EA X:7E Y:00 SP:FD Status:A5 (NV-B DIZC)
RAM State: $00:00 $01:00 $02:00
Timing: Current Emulated Cycle: 6072, Last IRQ Trigger Cycle: 0, Cycles Since Last IRQ: 6072
Emulated Cycles: 6072

8162: E8          INX
CPU State: PC:8163 A:EA X:7F Y:00 SP:FD Status:25 (NV-B DIZC)
RAM State: $00:00 $01:00 $02:00
Timing: Current Emulated Cycle: 6074, Last IRQ Trigger Cycle: 0, Cycles Since Last IRQ: 6074
Emulated Cycles: 6074

8163: D0 F8       BNE $815D
CPU State: PC:815D A:EA X:7F Y:00 SP:FD Status:25 (NV-B DIZC)
RAM State: $00:00 $01:00 $02:00
Timing: Current Emulated Cycle: 6077, Last IRQ Trigger Cycle: 0, Cycles Since Last IRQ: 6077
Emulated Cycles: 6077

815D: A9 EA       LDA #$EA
CPU State: PC:815F A:EA X:7F Y:00 SP:FD Status:A5 (NV-B DIZC)
RAM State: $00:00 $01:00 $02:00
Timing: Current Emulated Cycle: 6079, Last IRQ Trigger Cycle: 0, Cycles Since Last IRQ: 6079
Emulated Cycles: 6079

815F: 9D 00 C2    STA $C200,X
CPU State: PC:8162 A:EA X:7F Y:00 SP:FD Status:A5 (NV-B DIZC)
RAM State: $00:00 $01:00 $02:00
Timing: Current Emulated Cycle: 6084, Last IRQ Trigger Cycle: 0, Cycles Since Last IRQ: 6084
Emulated Cycles: 6084

8162: E8          INX
CPU State: PC:8163 A:EA X:80 Y:00 SP:FD Status:A5 (NV-B DIZC)
RAM State: $00:00 $01:00 $02:00
Timing: Current Emulated Cycle: 6086, Last IRQ Trigger Cycle: 0, Cycles Since Last IRQ: 6086
Emulated Cycles: 6086

8163: D0 F8       BNE $815D
CPU State: PC:815D A:EA X:80 Y:00 SP:FD Status:A5 (NV-B DIZC)
RAM State: $00:00 $01:00 $02:00
Timing: Current Emulated Cycle: 6089, Last IRQ Trigger Cycle: 0, Cycles Since Last IRQ: 6089
Emulated Cycles: 6089

815D: A9 EA       LDA #$EA
CPU State: PC:815F A:EA X:80 Y:00 SP:FD Status:A5 (NV-B DIZC)
RAM State: $00:00 $01:00 $02:00
Timing: Current Emulated Cycle: 6091, Last IRQ Trigger Cycle: 0, Cycles Since Last IRQ: 6091
Emulated Cycles: 6091

815F: 9D 00 C2    STA $C200,X
CPU State: PC:8162 A:EA X:80 Y:00 SP:FD Status:A5 (NV-B DIZC)
RAM State: $00:00 $01:00 $02:00
Timing: Current Emulated Cycle: 6096, Last IRQ Trigger Cycle: 0, Cycles Since Last IRQ: 6096
Emulated Cycles: 6096

8162: E8          INX
CPU State: PC:8163 A:EA X:81 Y:00 SP:FD Status:A5 (NV-B DIZC)
RAM State: $00:00 $01:00 $02:00
Timing: Current Emulated Cycle: 6098, Last IRQ Trigger Cycle: 0, Cycles Since Last IRQ: 6098
Emulated Cycles: 6098

8163: D0 F8       BNE $815D
CPU State: PC:815D A:EA X:81 Y:00 SP:FD Status:A5 (NV-B DIZC)
RAM State: $00:00 $01:00 $02:00
Timing: Current Emulated Cycle: 6101, Last IRQ Trigger Cycle: 0, Cycles Since Last IRQ: 6101
Emulated Cycles: 6101

815D: A9 EA       LDA #$EA
CPU State: PC:815F A:EA X:81 Y:00 SP:FD Status:A5 (NV-B DIZC)
RAM State: $00:00 $01:00 $02:00
Timing: Current Emulated Cycle: 6103, Last IRQ Trigger Cycle: 0, Cycles Since Last IRQ: 6103
Emulated Cycles: 6103

815F: 9D 00 C2    STA $C200,X
CPU State: PC:8162 A:EA X:81 Y:00 SP:FD Status:A5 (NV-B DIZC)
RAM State: $00:00 $01:00 $02:00
Timing: Current Emulated Cycle: 6108, Last IRQ Trigger Cycle: 0, Cycles Since Last IRQ: 6108
Emulated Cycles: 6108

8162: E8          INX
CPU State: PC:8163 A:EA X:82 Y:00 SP:FD Status:A5 (NV-B DIZC)
RAM State: $00:00 $01:00 $02:00
Timing: Current Emulated Cycle: 6110, Last IRQ Trigger Cycle: 0, Cycles Since Last IRQ: 6110
Emulated Cycles: 6110

8163: D0 F8       BNE $815D
CPU State: PC:815D A:EA X:82 Y:00 SP:FD Status:A5 (NV-B DIZC)
RAM State: $00:00 $01:00 $02:00
Timing: Current Emulated Cycle: 6113, Last IRQ Trigger Cycle: 0, Cycles Since Last IRQ: 6113
Emulated Cycles: 6113

815D: A9 EA       LDA #$EA
CPU State: PC:815F A:EA X:82 Y:00 SP:FD Status:A5 (NV-B DIZC)
RAM State: $00:00 $01:00 $02:00
Timing: Current Emulated Cycle: 6115, Last IRQ Trigger Cycle: 0, Cycles Since Last IRQ: 6115
Emulated Cycles: 6115

815F: 9D 00 C2    STA $C200,X
CPU State: PC:8162 A:EA X:82 Y:00 SP:FD Status:A5 (NV-B DIZC)
RAM State: $00:00 $01:00 $02:00
Timing: Current Emulated Cycle: 6120, Last IRQ Trigger Cycle: 0, Cycles Since Last IRQ: 6120
Emulated Cycles: 6120

8162: E8          INX
CPU State: PC:8163 A:EA X:83 Y:00 SP:FD Status:A5 (NV-B DIZC)
RAM State: $00:00 $01:00 $02:00
Timing: Current Emulated Cycle: 6122, Last IRQ Trigger Cycle: 0, Cycles Since Last IRQ: 6122
Emulated Cycles: 6122

8163: D0 F8       BNE $815D
CPU State: PC:815D A:EA X:83 Y:00 SP:FD Status:A5 (NV-B DIZC)
RAM State: $00:00 $01:00 $02:00
Timing: Current Emulated Cycle: 6125, Last IRQ Trigger Cycle: 0, Cycles Since Last IRQ: 6125
Emulated Cycles: 6125

815D: A9 EA       LDA #$EA
CPU State: PC:815F A:EA X:83 Y:00 SP:FD Status:A5 (NV-B DIZC)
RAM State: $00:00 $01:00 $02:00
Timing: Current Emulated Cycle: 6127, Last IRQ Trigger Cycle: 0, Cycles Since Last IRQ: 6127
Emulated Cycles: 6127

815F: 9D 00 C2    STA $C200,X
CPU State: PC:8162 A:EA X:83 Y:00 SP:FD Status:A5 (NV-B DIZC)
RAM State: $00:00 $01:00 $02:00
Timing: Current Emulated Cycle: 6132, Last IRQ Trigger Cycle: 0, Cycles Since Last IRQ: 6132
Emulated Cycles: 6132

8162: E8          INX
CPU State: PC:8163 A:EA X:84 Y:00 SP:FD Status:A5 (NV-B DIZC)
RAM State: $00:00 $01:00 $02:00
Timing: Current Emulated Cycle: 6134, Last IRQ Trigger Cycle: 0, Cycles Since Last IRQ: 6134
Emulated Cycles: 6134

8163: D0 F8       BNE $815D
CPU State: PC:815D A:EA X:84 Y:00 SP:FD Status:A5 (NV-B DIZC)
RAM State: $00:00 $01:00 $02:00
Timing: Current Emulated Cycle: 6137, Last IRQ Trigger Cycle: 0, Cycles Since Last IRQ: 6137
Emulated Cycles: 6137

815D: A9 EA       LDA #$EA
CPU State: PC:815F A:EA X:84 Y:00 SP:FD Status:A5 (NV-B DIZC)
RAM State: $00:00 $01:00 $02:00
Timing: Current Emulated Cycle: 6139, Last IRQ Trigger Cycle: 0, Cycles Since Last IRQ: 6139
Emulated Cycles: 6139

815F: 9D 00 C2    STA $C200,X
CPU State: PC:8162 A:EA X:84 Y:00 SP:FD Status:A5 (NV-B DIZC)
RAM State: $00:00 $01:00 $02:00
Timing: Current Emulated Cycle: 6144, Last IRQ Trigger Cycle: 0, Cycles Since Last IRQ: 6144
Emulated Cycles: 6144

8162: E8          INX
CPU State: PC:8163 A:EA X:85 Y:00 SP:FD Status:A5 (NV-B DIZC)
RAM State: $00:00 $01:00 $02:00
Timing: Current Emulated Cycle: 6146, Last IRQ Trigger Cycle: 0, Cycles Since Last IRQ: 6146
Emulated Cycles: 6146

8163: D0 F8       BNE $815D
CPU State: PC:815D A:EA X:85 Y:00 SP:FD Status:A5 (NV-B DIZC)
RAM State: $00:00 $01:00 $02:00
Timing: Current Emulated Cycle: 6149, Last IRQ Trigger Cycle: 0, Cycles Since Last IRQ: 6149
Emulated Cycles: 6149

815D: A9 EA       LDA #$EA
CPU State: PC:815F A:EA X:85 Y:00 SP:FD Status:A5 (NV-B DIZC)
RAM State: $00:00 $01:00 $02:00
Timing: Current Emulated Cycle: 6151, Last IRQ Trigger Cycle: 0, Cycles Since Last IRQ: 6151
Emulated Cycles: 6151

815F: 9D 00 C2    STA $C200,X
CPU State: PC:8162 A:EA X:85 Y:00 SP:FD Status:A5 (NV-B DIZC)
RAM State: $00:00 $01:00 $02:00
Timing: Current Emulated Cycle: 6156, Last IRQ Trigger Cycle: 0, Cycles Since Last IRQ: 6156
Emulated Cycles: 6156

8162: E8          INX
CPU State: PC:8163 A:EA X:86 Y:00 SP:FD Status:A5 (NV-B DIZC)
RAM State: $00:00 $01:00 $02:00
Timing: Current Emulated Cycle: 6158, Last IRQ Trigger Cycle: 0, Cycles Since Last IRQ: 6158
Emulated Cycles: 6158

8163: D0 F8       BNE $815D
CPU State: PC:815D A:EA X:86 Y:00 SP:FD Status:A5 (NV-B DIZC)
RAM State: $00:00 $01:00 $02:00
Timing: Current Emulated Cycle: 6161, Last IRQ Trigger Cycle: 0, Cycles Since Last IRQ: 6161
Emulated Cycles: 6161

815D: A9 EA       LDA #$EA
CPU State: PC:815F A:EA X:86 Y:00 SP:FD Status:A5 (NV-B DIZC)
RAM State: $00:00 $01:00 $02:00
Timing: Current Emulated Cycle: 6163, Last IRQ Trigger Cycle: 0, Cycles Since Last IRQ: 6163
Emulated Cycles: 6163

815F: 9D 00 C2    STA $C200,X
CPU State: PC:8162 A:EA X:86 Y:00 SP:FD Status:A5 (NV-B DIZC)
RAM State: $00:00 $01:00 $02:00
Timing: Current Emulated Cycle: 6168, Last IRQ Trigger Cycle: 0, Cycles Since Last IRQ: 6168
Emulated Cycles: 6168

8162: E8          INX
CPU State: PC:8163 A:EA X:87 Y:00 SP:FD Status:A5 (NV-B DIZC)
RAM State: $00:00 $01:00 $02:00
Timing: Current Emulated Cycle: 6170, Last IRQ Trigger Cycle: 0, Cycles Since Last IRQ: 6170
Emulated Cycles: 6170

8163: D0 F8       BNE $815D
CPU State: PC:815D A:EA X:87 Y:00 SP:FD Status:A5 (NV-B DIZC)
RAM State: $00:00 $01:00 $02:00
Timing: Current Emulated Cycle: 6173, Last IRQ Trigger Cycle: 0, Cycles Since Last IRQ: 6173
Emulated Cycles: 6173

815D: A9 EA       LDA #$EA
CPU State: PC:815F A:EA X:87 Y:00 SP:FD Status:A5 (NV-B DIZC)
RAM State: $00:00 $01:00 $02:00
Timing: Current Emulated Cycle: 6175, Last IRQ Trigger Cycle: 0, Cycles Since Last IRQ: 6175
Emulated Cycles: 6175

815F: 9D 00 C2    STA $C200,X
CPU State: PC:8162 A:EA X:87 Y:00 SP:FD Status:A5 (NV-B DIZC)
RAM State: $00:00 $01:00 $02:00
Timing: Current Emulated Cycle: 6180, Last IRQ Trigger Cycle: 0, Cycles Since Last IRQ: 6180
Emulated Cycles: 6180

8162: E8          INX
CPU State: PC:8163 A:EA X:88 Y:00 SP:FD Status:A5 (NV-B DIZC)
RAM State: $00:00 $01:00 $02:00
Timing: Current Emulated Cycle: 6182, Last IRQ Trigger Cycle: 0, Cycles Since Last IRQ: 6182
Emulated Cycles: 6182

8163: D0 F8       BNE $815D
CPU State: PC:815D A:EA X:88 Y:00 SP:FD Status:A5 (NV-B DIZC)
RAM State: $00:00 $01:00 $02:00
Timing: Current Emulated Cycle: 6185, Last IRQ Trigger Cycle: 0, Cycles Since Last IRQ: 6185
Emulated Cycles: 6185

815D: A9 EA       LDA #$EA
CPU State: PC:815F A:EA X:88 Y:00 SP:FD Status:A5 (NV-B DIZC)
RAM State: $00:00 $01:00 $02:00
Timing: Current Emulated Cycle: 6187, Last IRQ Trigger Cycle: 0, Cycles Since Last IRQ: 6187
Emulated Cycles: 6187

815F: 9D 00 C2    STA $C200,X
CPU State: PC:8162 A:EA X:88 Y:00 SP:FD Status:A5 (NV-B DIZC)
RAM State: $00:00 $01:00 $02:00
Timing: Current Emulated Cycle: 6192, Last IRQ Trigger Cycle: 0, Cycles Since Last IRQ: 6192
Emulated Cycles: 6192

8162: E8          INX
CPU State: PC:8163 A:EA X:89 Y:00 SP:FD Status:A5 (NV-B DIZC)
RAM State: $00:00 $01:00 $02:00
Timing: Current Emulated Cycle: 6194, Last IRQ Trigger Cycle: 0, Cycles Since Last IRQ: 6194
Emulated Cycles: 6194

8163: D0 F8       BNE $815D
CPU State: PC:815D A:EA X:89 Y:00 SP:FD Status:A5 (NV-B DIZC)
RAM State: $00:00 $01:00 $02:00
Timing: Current Emulated Cycle: 6197, Last IRQ Trigger Cycle: 0, Cycles Since Last IRQ: 6197
Emulated Cycles: 6197

815D: A9 EA       LDA #$EA
CPU State: PC:815F A:EA X:89 Y:00 SP:FD Status:A5 (NV-B DIZC)
RAM State: $00:00 $01:00 $02:00
Timing: Current Emulated Cycle: 6199, Last IRQ Trigger Cycle: 0, Cycles Since Last IRQ: 6199
Emulated Cycles: 6199

815F: 9D 00 C2    STA $C200,X
CPU State: PC:8162 A:EA X:89 Y:00 SP:FD Status:A5 (NV-B DIZC)
RAM State: $00:00 $01:00 $02:00
Timing: Current Emulated Cycle: 6204, Last IRQ Trigger Cycle: 0, Cycles Since Last IRQ: 6204
Emulated Cycles: 6204

8162: E8          INX
CPU State: PC:8163 A:EA X:8A Y:00 SP:FD Status:A5 (NV-B DIZC)
RAM State: $00:00 $01:00 $02:00
Timing: Current Emulated Cycle: 6206, Last IRQ Trigger Cycle: 0, Cycles Since Last IRQ: 6206
Emulated Cycles: 6206

8163: D0 F8       BNE $815D
CPU State: PC:815D A:EA X:8A Y:00 SP:FD Status:A5 (NV-B DIZC)
RAM State: $00:00 $01:00 $02:00
Timing: Current Emulated Cycle: 6209, Last IRQ Trigger Cycle: 0, Cycles Since Last IRQ: 6209
Emulated Cycles: 6209

815D: A9 EA       LDA #$EA
CPU State: PC:815F A:EA X:8A Y:00 SP:FD Status:A5 (NV-B DIZC)
RAM State: $00:00 $01:00 $02:00
Timing: Current Emulated Cycle: 6211, Last IRQ Trigger Cycle: 0, Cycles Since Last IRQ: 6211
Emulated Cycles: 6211

815F: 9D 00 C2    STA $C200,X
CPU State: PC:8162 A:EA X:8A Y:00 SP:FD Status:A5 (NV-B DIZC)
RAM State: $00:00 $01:00 $02:00
Timing: Current Emulated Cycle: 6216, Last IRQ Trigger Cycle: 0, Cycles Since Last IRQ: 6216
Emulated Cycles: 6216

8162: E8          INX
CPU State: PC:8163 A:EA X:8B Y:00 SP:FD Status:A5 (NV-B DIZC)
RAM State: $00:00 $01:00 $02:00
Timing: Current Emulated Cycle: 6218, Last IRQ Trigger Cycle: 0, Cycles Since Last IRQ: 6218
Emulated Cycles: 6218

8163: D0 F8       BNE $815D
CPU State: PC:815D A:EA X:8B Y:00 SP:FD Status:A5 (NV-B DIZC)
RAM State: $00:00 $01:00 $02:00
Timing: Current Emulated Cycle: 6221, Last IRQ Trigger Cycle: 0, Cycles Since Last IRQ: 6221
Emulated Cycles: 6221

815D: A9 EA       LDA #$EA
CPU State: PC:815F A:EA X:8B Y:00 SP:FD Status:A5 (NV-B DIZC)
RAM State: $00:00 $01:00 $02:00
Timing: Current Emulated Cycle: 6223, Last IRQ Trigger Cycle: 0, Cycles Since Last IRQ: 6223
Emulated Cycles: 6223

815F: 9D 00 C2    STA $C200,X
CPU State: PC:8162 A:EA X:8B Y:00 SP:FD Status:A5 (NV-B DIZC)
RAM State: $00:00 $01:00 $02:00
Timing: Current Emulated Cycle: 6228, Last IRQ Trigger Cycle: 0, Cycles Since Last IRQ: 6228
Emulated Cycles: 6228

8162: E8          INX
CPU State: PC:8163 A:EA X:8C Y:00 SP:FD Status:A5 (NV-B DIZC)
RAM State: $00:00 $01:00 $02:00
Timing: Current Emulated Cycle: 6230, Last IRQ Trigger Cycle: 0, Cycles Since Last IRQ: 6230
Emulated Cycles: 6230

8163: D0 F8       BNE $815D
CPU State: PC:815D A:EA X:8C Y:00 SP:FD Status:A5 (NV-B DIZC)
RAM State: $00:00 $01:00 $02:00
Timing: Current Emulated Cycle: 6233, Last IRQ Trigger Cycle: 0, Cycles Since Last IRQ: 6233
Emulated Cycles: 6233

815D: A9 EA       LDA #$EA
CPU State: PC:815F A:EA X:8C Y:00 SP:FD Status:A5 (NV-B DIZC)
RAM State: $00:00 $01:00 $02:00
Timing: Current Emulated Cycle: 6235, Last IRQ Trigger Cycle: 0, Cycles Since Last IRQ: 6235
Emulated Cycles: 6235

815F: 9D 00 C2    STA $C200,X
CPU State: PC:8162 A:EA X:8C Y:00 SP:FD Status:A5 (NV-B DIZC)
RAM State: $00:00 $01:00 $02:00
Timing: Current Emulated Cycle: 6240, Last IRQ Trigger Cycle: 0, Cycles Since Last IRQ: 6240
Emulated Cycles: 6240

8162: E8          INX
CPU State: PC:8163 A:EA X:8D Y:00 SP:FD Status:A5 (NV-B DIZC)
RAM State: $00:00 $01:00 $02:00
Timing: Current Emulated Cycle: 6242, Last IRQ Trigger Cycle: 0, Cycles Since Last IRQ: 6242
Emulated Cycles: 6242

8163: D0 F8       BNE $815D
CPU State: PC:815D A:EA X:8D Y:00 SP:FD Status:A5 (NV-B DIZC)
RAM State: $00:00 $01:00 $02:00
Timing: Current Emulated Cycle: 6245, Last IRQ Trigger Cycle: 0, Cycles Since Last IRQ: 6245
Emulated Cycles: 6245

815D: A9 EA       LDA #$EA
CPU State: PC:815F A:EA X:8D Y:00 SP:FD Status:A5 (NV-B DIZC)
RAM State: $00:00 $01:00 $02:00
Timing: Current Emulated Cycle: 6247, Last IRQ Trigger Cycle: 0, Cycles Since Last IRQ: 6247
Emulated Cycles: 6247

815F: 9D 00 C2    STA $C200,X
CPU State: PC:8162 A:EA X:8D Y:00 SP:FD Status:A5 (NV-B DIZC)
RAM State: $00:00 $01:00 $02:00
Timing: Current Emulated Cycle: 6252, Last IRQ Trigger Cycle: 0, Cycles Since Last IRQ: 6252
Emulated Cycles: 6252

8162: E8          INX
CPU State: PC:8163 A:EA X:8E Y:00 SP:FD Status:A5 (NV-B DIZC)
RAM State: $00:00 $01:00 $02:00
Timing: Current Emulated Cycle: 6254, Last IRQ Trigger Cycle: 0, Cycles Since Last IRQ: 6254
Emulated Cycles: 6254

8163: D0 F8       BNE $815D
CPU State: PC:815D A:EA X:8E Y:00 SP:FD Status:A5 (NV-B DIZC)
RAM State: $00:00 $01:00 $02:00
Timing: Current Emulated Cycle: 6257, Last IRQ Trigger Cycle: 0, Cycles Since Last IRQ: 6257
Emulated Cycles: 6257

815D: A9 EA       LDA #$EA
CPU State: PC:815F A:EA X:8E Y:00 SP:FD Status:A5 (NV-B DIZC)
RAM State: $00:00 $01:00 $02:00
Timing: Current Emulated Cycle: 6259, Last IRQ Trigger Cycle: 0, Cycles Since Last IRQ: 6259
Emulated Cycles: 6259

815F: 9D 00 C2    STA $C200,X
CPU State: PC:8162 A:EA X:8E Y:00 SP:FD Status:A5 (NV-B DIZC)
RAM State: $00:00 $01:00 $02:00
Timing: Current Emulated Cycle: 6264, Last IRQ Trigger Cycle: 0, Cycles Since Last IRQ: 6264
Emulated Cycles: 6264

8162: E8          INX
CPU State: PC:8163 A:EA X:8F Y:00 SP:FD Status:A5 (NV-B DIZC)
RAM State: $00:00 $01:00 $02:00
Timing: Current Emulated Cycle: 6266, Last IRQ Trigger Cycle: 0, Cycles Since Last IRQ: 6266
Emulated Cycles: 6266

8163: D0 F8       BNE $815D
CPU State: PC:815D A:EA X:8F Y:00 SP:FD Status:A5 (NV-B DIZC)
RAM State: $00:00 $01:00 $02:00
Timing: Current Emulated Cycle: 6269, Last IRQ Trigger Cycle: 0, Cycles Since Last IRQ: 6269
Emulated Cycles: 6269

815D: A9 EA       LDA #$EA
CPU State: PC:815F A:EA X:8F Y:00 SP:FD Status:A5 (NV-B DIZC)
RAM State: $00:00 $01:00 $02:00
Timing: Current Emulated Cycle: 6271, Last IRQ Trigger Cycle: 0, Cycles Since Last IRQ: 6271
Emulated Cycles: 6271

815F: 9D 00 C2    STA $C200,X
CPU State: PC:8162 A:EA X:8F Y:00 SP:FD Status:A5 (NV-B DIZC)
RAM State: $00:00 $01:00 $02:00
Timing: Current Emulated Cycle: 6276, Last IRQ Trigger Cycle: 0, Cycles Since Last IRQ: 6276
Emulated Cycles: 6276

8162: E8          INX
CPU State: PC:8163 A:EA X:90 Y:00 SP:FD Status:A5 (NV-B DIZC)
RAM State: $00:00 $01:00 $02:00
Timing: Current Emulated Cycle: 6278, Last IRQ Trigger Cycle: 0, Cycles Since Last IRQ: 6278
Emulated Cycles: 6278

8163: D0 F8       BNE $815D
CPU State: PC:815D A:EA X:90 Y:00 SP:FD Status:A5 (NV-B DIZC)
RAM State: $00:00 $01:00 $02:00
Timing: Current Emulated Cycle: 6281, Last IRQ Trigger Cycle: 0, Cycles Since Last IRQ: 6281
Emulated Cycles: 6281

815D: A9 EA       LDA #$EA
CPU State: PC:815F A:EA X:90 Y:00 SP:FD Status:A5 (NV-B DIZC)
RAM State: $00:00 $01:00 $02:00
Timing: Current Emulated Cycle: 6283, Last IRQ Trigger Cycle: 0, Cycles Since Last IRQ: 6283
Emulated Cycles: 6283

815F: 9D 00 C2    STA $C200,X
CPU State: PC:8162 A:EA X:90 Y:00 SP:FD Status:A5 (NV-B DIZC)
RAM State: $00:00 $01:00 $02:00
Timing: Current Emulated Cycle: 6288, Last IRQ Trigger Cycle: 0, Cycles Since Last IRQ: 6288
Emulated Cycles: 6288

8162: E8          INX
CPU State: PC:8163 A:EA X:91 Y:00 SP:FD Status:A5 (NV-B DIZC)
RAM State: $00:00 $01:00 $02:00
Timing: Current Emulated Cycle: 6290, Last IRQ Trigger Cycle: 0, Cycles Since Last IRQ: 6290
Emulated Cycles: 6290

8163: D0 F8       BNE $815D
CPU State: PC:815D A:EA X:91 Y:00 SP:FD Status:A5 (NV-B DIZC)
RAM State: $00:00 $01:00 $02:00
Timing: Current Emulated Cycle: 6293, Last IRQ Trigger Cycle: 0, Cycles Since Last IRQ: 6293
Emulated Cycles: 6293

815D: A9 EA       LDA #$EA
CPU State: PC:815F A:EA X:91 Y:00 SP:FD Status:A5 (NV-B DIZC)
RAM State: $00:00 $01:00 $02:00
Timing: Current Emulated Cycle: 6295, Last IRQ Trigger Cycle: 0, Cycles Since Last IRQ: 6295
Emulated Cycles: 6295

815F: 9D 00 C2    STA $C200,X
CPU State: PC:8162 A:EA X:91 Y:00 SP:FD Status:A5 (NV-B DIZC)
RAM State: $00:00 $01:00 $02:00
Timing: Current Emulated Cycle: 6300, Last IRQ Trigger Cycle: 0, Cycles Since Last IRQ: 6300
Emulated Cycles: 6300

8162: E8          INX
CPU State: PC:8163 A:EA X:92 Y:00 SP:FD Status:A5 (NV-B DIZC)
RAM State: $00:00 $01:00 $02:00
Timing: Current Emulated Cycle: 6302, Last IRQ Trigger Cycle: 0, Cycles Since Last IRQ: 6302
Emulated Cycles: 6302

8163: D0 F8       BNE $815D
CPU State: PC:815D A:EA X:92 Y:00 SP:FD Status:A5 (NV-B DIZC)
RAM State: $00:00 $01:00 $02:00
Timing: Current Emulated Cycle: 6305, Last IRQ Trigger Cycle: 0, Cycles Since Last IRQ: 6305
Emulated Cycles: 6305

815D: A9 EA       LDA #$EA
CPU State: PC:815F A:EA X:92 Y:00 SP:FD Status:A5 (NV-B DIZC)
RAM State: $00:00 $01:00 $02:00
Timing: Current Emulated Cycle: 6307, Last IRQ Trigger Cycle: 0, Cycles Since Last IRQ: 6307
Emulated Cycles: 6307

815F: 9D 00 C2    STA $C200,X
CPU State: PC:8162 A:EA X:92 Y:00 SP:FD Status:A5 (NV-B DIZC)
RAM State: $00:00 $01:00 $02:00
Timing: Current Emulated Cycle: 6312, Last IRQ Trigger Cycle: 0, Cycles Since Last IRQ: 6312
Emulated Cycles: 6312

8162: E8          INX
CPU State: PC:8163 A:EA X:93 Y:00 SP:FD Status:A5 (NV-B DIZC)
RAM State: $00:00 $01:00 $02:00
Timing: Current Emulated Cycle: 6314, Last IRQ Trigger Cycle: 0, Cycles Since Last IRQ: 6314
Emulated Cycles: 6314

8163: D0 F8       BNE $815D
CPU State: PC:815D A:EA X:93 Y:00 SP:FD Status:A5 (NV-B DIZC)
RAM State: $00:00 $01:00 $02:00
Timing: Current Emulated Cycle: 6317, Last IRQ Trigger Cycle: 0, Cycles Since Last IRQ: 6317
Emulated Cycles: 6317

815D: A9 EA       LDA #$EA
CPU State: PC:815F A:EA X:93 Y:00 SP:FD Status:A5 (NV-B DIZC)
RAM State: $00:00 $01:00 $02:00
Timing: Current Emulated Cycle: 6319, Last IRQ Trigger Cycle: 0, Cycles Since Last IRQ: 6319
Emulated Cycles: 6319

815F: 9D 00 C2    STA $C200,X
CPU State: PC:8162 A:EA X:93 Y:00 SP:FD Status:A5 (NV-B DIZC)
RAM State: $00:00 $01:00 $02:00
Timing: Current Emulated Cycle: 6324, Last IRQ Trigger Cycle: 0, Cycles Since Last IRQ: 6324
Emulated Cycles: 6324

8162: E8          INX
CPU State: PC:8163 A:EA X:94 Y:00 SP:FD Status:A5 (NV-B DIZC)
RAM State: $00:00 $01:00 $02:00
Timing: Current Emulated Cycle: 6326, Last IRQ Trigger Cycle: 0, Cycles Since Last IRQ: 6326
Emulated Cycles: 6326

8163: D0 F8       BNE $815D
CPU State: PC:815D A:EA X:94 Y:00 SP:FD Status:A5 (NV-B DIZC)
RAM State: $00:00 $01:00 $02:00
Timing: Current Emulated Cycle: 6329, Last IRQ Trigger Cycle: 0, Cycles Since Last IRQ: 6329
Emulated Cycles: 6329

815D: A9 EA       LDA #$EA
CPU State: PC:815F A:EA X:94 Y:00 SP:FD Status:A5 (NV-B DIZC)
RAM State: $00:00 $01:00 $02:00
Timing: Current Emulated Cycle: 6331, Last IRQ Trigger Cycle: 0, Cycles Since Last IRQ: 6331
Emulated Cycles: 6331

815F: 9D 00 C2    STA $C200,X
CPU State: PC:8162 A:EA X:94 Y:00 SP:FD Status:A5 (NV-B DIZC)
RAM State: $00:00 $01:00 $02:00
Timing: Current Emulated Cycle: 6336, Last IRQ Trigger Cycle: 0, Cycles Since Last IRQ: 6336
Emulated Cycles: 6336

8162: E8          INX
CPU State: PC:8163 A:EA X:95 Y:00 SP:FD Status:A5 (NV-B DIZC)
RAM State: $00:00 $01:00 $02:00
Timing: Current Emulated Cycle: 6338, Last IRQ Trigger Cycle: 0, Cycles Since Last IRQ: 6338
Emulated Cycles: 6338

8163: D0 F8       BNE $815D
CPU State: PC:815D A:EA X:95 Y:00 SP:FD Status:A5 (NV-B DIZC)
RAM State: $00:00 $01:00 $02:00
Timing: Current Emulated Cycle: 6341, Last IRQ Trigger Cycle: 0, Cycles Since Last IRQ: 6341
Emulated Cycles: 6341

815D: A9 EA       LDA #$EA
CPU State: PC:815F A:EA X:95 Y:00 SP:FD Status:A5 (NV-B DIZC)
RAM State: $00:00 $01:00 $02:00
Timing: Current Emulated Cycle: 6343, Last IRQ Trigger Cycle: 0, Cycles Since Last IRQ: 6343
Emulated Cycles: 6343

815F: 9D 00 C2    STA $C200,X
CPU State: PC:8162 A:EA X:95 Y:00 SP:FD Status:A5 (NV-B DIZC)
RAM State: $00:00 $01:00 $02:00
Timing: Current Emulated Cycle: 6348, Last IRQ Trigger Cycle: 0, Cycles Since Last IRQ: 6348
Emulated Cycles: 6348

8162: E8          INX
CPU State: PC:8163 A:EA X:96 Y:00 SP:FD Status:A5 (NV-B DIZC)
RAM State: $00:00 $01:00 $02:00
Timing: Current Emulated Cycle: 6350, Last IRQ Trigger Cycle: 0, Cycles Since Last IRQ: 6350
Emulated Cycles: 6350

8163: D0 F8       BNE $815D
CPU State: PC:815D A:EA X:96 Y:00 SP:FD Status:A5 (NV-B DIZC)
RAM State: $00:00 $01:00 $02:00
Timing: Current Emulated Cycle: 6353, Last IRQ Trigger Cycle: 0, Cycles Since Last IRQ: 6353
Emulated Cycles: 6353

815D: A9 EA       LDA #$EA
CPU State: PC:815F A:EA X:96 Y:00 SP:FD Status:A5 (NV-B DIZC)
RAM State: $00:00 $01:00 $02:00
Timing: Current Emulated Cycle: 6355, Last IRQ Trigger Cycle: 0, Cycles Since Last IRQ: 6355
Emulated Cycles: 6355

815F: 9D 00 C2    STA $C200,X
CPU State: PC:8162 A:EA X:96 Y:00 SP:FD Status:A5 (NV-B DIZC)
RAM State: $00:00 $01:00 $02:00
Timing: Current Emulated Cycle: 6360, Last IRQ Trigger Cycle: 0, Cycles Since Last IRQ: 6360
Emulated Cycles: 6360

8162: E8          INX
CPU State: PC:8163 A:EA X:97 Y:00 SP:FD Status:A5 (NV-B DIZC)
RAM State: $00:00 $01:00 $02:00
Timing: Current Emulated Cycle: 6362, Last IRQ Trigger Cycle: 0, Cycles Since Last IRQ: 6362
Emulated Cycles: 6362

8163: D0 F8       BNE $815D
CPU State: PC:815D A:EA X:97 Y:00 SP:FD Status:A5 (NV-B DIZC)
RAM State: $00:00 $01:00 $02:00
Timing: Current Emulated Cycle: 6365, Last IRQ Trigger Cycle: 0, Cycles Since Last IRQ: 6365
Emulated Cycles: 6365

815D: A9 EA       LDA #$EA
CPU State: PC:815F A:EA X:97 Y:00 SP:FD Status:A5 (NV-B DIZC)
RAM State: $00:00 $01:00 $02:00
Timing: Current Emulated Cycle: 6367, Last IRQ Trigger Cycle: 0, Cycles Since Last IRQ: 6367
Emulated Cycles: 6367

815F: 9D 00 C2    STA $C200,X
CPU State: PC:8162 A:EA X:97 Y:00 SP:FD Status:A5 (NV-B DIZC)
RAM State: $00:00 $01:00 $02:00
Timing: Current Emulated Cycle: 6372, Last IRQ Trigger Cycle: 0, Cycles Since Last IRQ: 6372
Emulated Cycles: 6372

8162: E8          INX
CPU State: PC:8163 A:EA X:98 Y:00 SP:FD Status:A5 (NV-B DIZC)
RAM State: $00:00 $01:00 $02:00
Timing: Current Emulated Cycle: 6374, Last IRQ Trigger Cycle: 0, Cycles Since Last IRQ: 6374
Emulated Cycles: 6374

8163: D0 F8       BNE $815D
CPU State: PC:815D A:EA X:98 Y:00 SP:FD Status:A5 (NV-B DIZC)
RAM State: $00:00 $01:00 $02:00
Timing: Current Emulated Cycle: 6377, Last IRQ Trigger Cycle: 0, Cycles Since Last IRQ: 6377
Emulated Cycles: 6377

815D: A9 EA       LDA #$EA
CPU State: PC:815F A:EA X:98 Y:00 SP:FD Status:A5 (NV-B DIZC)
RAM State: $00:00 $01:00 $02:00
Timing: Current Emulated Cycle: 6379, Last IRQ Trigger Cycle: 0, Cycles Since Last IRQ: 6379
Emulated Cycles: 6379

815F: 9D 00 C2    STA $C200,X
CPU State: PC:8162 A:EA X:98 Y:00 SP:FD Status:A5 (NV-B DIZC)
RAM State: $00:00 $01:00 $02:00
Timing: Current Emulated Cycle: 6384, Last IRQ Trigger Cycle: 0, Cycles Since Last IRQ: 6384
Emulated Cycles: 6384

8162: E8          INX
CPU State: PC:8163 A:EA X:99 Y:00 SP:FD Status:A5 (NV-B DIZC)
RAM State: $00:00 $01:00 $02:00
Timing: Current Emulated Cycle: 6386, Last IRQ Trigger Cycle: 0, Cycles Since Last IRQ: 6386
Emulated Cycles: 6386

8163: D0 F8       BNE $815D
CPU State: PC:815D A:EA X:99 Y:00 SP:FD Status:A5 (NV-B DIZC)
RAM State: $00:00 $01:00 $02:00
Timing: Current Emulated Cycle: 6389, Last IRQ Trigger Cycle: 0, Cycles Since Last IRQ: 6389
Emulated Cycles: 6389

815D: A9 EA       LDA #$EA
CPU State: PC:815F A:EA X:99 Y:00 SP:FD Status:A5 (NV-B DIZC)
RAM State: $00:00 $01:00 $02:00
Timing: Current Emulated Cycle: 6391, Last IRQ Trigger Cycle: 0, Cycles Since Last IRQ: 6391
Emulated Cycles: 6391

815F: 9D 00 C2    STA $C200,X
CPU State: PC:8162 A:EA X:99 Y:00 SP:FD Status:A5 (NV-B DIZC)
RAM State: $00:00 $01:00 $02:00
Timing: Current Emulated Cycle: 6396, Last IRQ Trigger Cycle: 0, Cycles Since Last IRQ: 6396
Emulated Cycles: 6396

8162: E8          INX
CPU State: PC:8163 A:EA X:9A Y:00 SP:FD Status:A5 (NV-B DIZC)
RAM State: $00:00 $01:00 $02:00
Timing: Current Emulated Cycle: 6398, Last IRQ Trigger Cycle: 0, Cycles Since Last IRQ: 6398
Emulated Cycles: 6398

8163: D0 F8       BNE $815D
CPU State: PC:815D A:EA X:9A Y:00 SP:FD Status:A5 (NV-B DIZC)
RAM State: $00:00 $01:00 $02:00
Timing: Current Emulated Cycle: 6401, Last IRQ Trigger Cycle: 0, Cycles Since Last IRQ: 6401
Emulated Cycles: 6401

815D: A9 EA       LDA #$EA
CPU State: PC:815F A:EA X:9A Y:00 SP:FD Status:A5 (NV-B DIZC)
RAM State: $00:00 $01:00 $02:00
Timing: Current Emulated Cycle: 6403, Last IRQ Trigger Cycle: 0, Cycles Since Last IRQ: 6403
Emulated Cycles: 6403

815F: 9D 00 C2    STA $C200,X
CPU State: PC:8162 A:EA X:9A Y:00 SP:FD Status:A5 (NV-B DIZC)
RAM State: $00:00 $01:00 $02:00
Timing: Current Emulated Cycle: 6408, Last IRQ Trigger Cycle: 0, Cycles Since Last IRQ: 6408
Emulated Cycles: 6408

8162: E8          INX
CPU State: PC:8163 A:EA X:9B Y:00 SP:FD Status:A5 (NV-B DIZC)
RAM State: $00:00 $01:00 $02:00
Timing: Current Emulated Cycle: 6410, Last IRQ Trigger Cycle: 0, Cycles Since Last IRQ: 6410
Emulated Cycles: 6410

8163: D0 F8       BNE $815D
CPU State: PC:815D A:EA X:9B Y:00 SP:FD Status:A5 (NV-B DIZC)
RAM State: $00:00 $01:00 $02:00
Timing: Current Emulated Cycle: 6413, Last IRQ Trigger Cycle: 0, Cycles Since Last IRQ: 6413
Emulated Cycles: 6413

815D: A9 EA       LDA #$EA
CPU State: PC:815F A:EA X:9B Y:00 SP:FD Status:A5 (NV-B DIZC)
RAM State: $00:00 $01:00 $02:00
Timing: Current Emulated Cycle: 6415, Last IRQ Trigger Cycle: 0, Cycles Since Last IRQ: 6415
Emulated Cycles: 6415

815F: 9D 00 C2    STA $C200,X
CPU State: PC:8162 A:EA X:9B Y:00 SP:FD Status:A5 (NV-B DIZC)
RAM State: $00:00 $01:00 $02:00
Timing: Current Emulated Cycle: 6420, Last IRQ Trigger Cycle: 0, Cycles Since Last IRQ: 6420
Emulated Cycles: 6420

8162: E8          INX
CPU State: PC:8163 A:EA X:9C Y:00 SP:FD Status:A5 (NV-B DIZC)
RAM State: $00:00 $01:00 $02:00
Timing: Current Emulated Cycle: 6422, Last IRQ Trigger Cycle: 0, Cycles Since Last IRQ: 6422
Emulated Cycles: 6422

8163: D0 F8       BNE $815D
CPU State: PC:815D A:EA X:9C Y:00 SP:FD Status:A5 (NV-B DIZC)
RAM State: $00:00 $01:00 $02:00
Timing: Current Emulated Cycle: 6425, Last IRQ Trigger Cycle: 0, Cycles Since Last IRQ: 6425
Emulated Cycles: 6425

815D: A9 EA       LDA #$EA
CPU State: PC:815F A:EA X:9C Y:00 SP:FD Status:A5 (NV-B DIZC)
RAM State: $00:00 $01:00 $02:00
Timing: Current Emulated Cycle: 6427, Last IRQ Trigger Cycle: 0, Cycles Since Last IRQ: 6427
Emulated Cycles: 6427

815F: 9D 00 C2    STA $C200,X
CPU State: PC:8162 A:EA X:9C Y:00 SP:FD Status:A5 (NV-B DIZC)
RAM State: $00:00 $01:00 $02:00
Timing: Current Emulated Cycle: 6432, Last IRQ Trigger Cycle: 0, Cycles Since Last IRQ: 6432
Emulated Cycles: 6432

8162: E8          INX
CPU State: PC:8163 A:EA X:9D Y:00 SP:FD Status:A5 (NV-B DIZC)
RAM State: $00:00 $01:00 $02:00
Timing: Current Emulated Cycle: 6434, Last IRQ Trigger Cycle: 0, Cycles Since Last IRQ: 6434
Emulated Cycles: 6434

8163: D0 F8       BNE $815D
CPU State: PC:815D A:EA X:9D Y:00 SP:FD Status:A5 (NV-B DIZC)
RAM State: $00:00 $01:00 $02:00
Timing: Current Emulated Cycle: 6437, Last IRQ Trigger Cycle: 0, Cycles Since Last IRQ: 6437
Emulated Cycles: 6437

815D: A9 EA       LDA #$EA
CPU State: PC:815F A:EA X:9D Y:00 SP:FD Status:A5 (NV-B DIZC)
RAM State: $00:00 $01:00 $02:00
Timing: Current Emulated Cycle: 6439, Last IRQ Trigger Cycle: 0, Cycles Since Last IRQ: 6439
Emulated Cycles: 6439

815F: 9D 00 C2    STA $C200,X
CPU State: PC:8162 A:EA X:9D Y:00 SP:FD Status:A5 (NV-B DIZC)
RAM State: $00:00 $01:00 $02:00
Timing: Current Emulated Cycle: 6444, Last IRQ Trigger Cycle: 0, Cycles Since Last IRQ: 6444
Emulated Cycles: 6444

8162: E8          INX
CPU State: PC:8163 A:EA X:9E Y:00 SP:FD Status:A5 (NV-B DIZC)
RAM State: $00:00 $01:00 $02:00
Timing: Current Emulated Cycle: 6446, Last IRQ Trigger Cycle: 0, Cycles Since Last IRQ: 6446
Emulated Cycles: 6446

8163: D0 F8       BNE $815D
CPU State: PC:815D A:EA X:9E Y:00 SP:FD Status:A5 (NV-B DIZC)
RAM State: $00:00 $01:00 $02:00
Timing: Current Emulated Cycle: 6449, Last IRQ Trigger Cycle: 0, Cycles Since Last IRQ: 6449
Emulated Cycles: 6449

815D: A9 EA       LDA #$EA
CPU State: PC:815F A:EA X:9E Y:00 SP:FD Status:A5 (NV-B DIZC)
RAM State: $00:00 $01:00 $02:00
Timing: Current Emulated Cycle: 6451, Last IRQ Trigger Cycle: 0, Cycles Since Last IRQ: 6451
Emulated Cycles: 6451

815F: 9D 00 C2    STA $C200,X
CPU State: PC:8162 A:EA X:9E Y:00 SP:FD Status:A5 (NV-B DIZC)
RAM State: $00:00 $01:00 $02:00
Timing: Current Emulated Cycle: 6456, Last IRQ Trigger Cycle: 0, Cycles Since Last IRQ: 6456
Emulated Cycles: 6456

8162: E8          INX
CPU State: PC:8163 A:EA X:9F Y:00 SP:FD Status:A5 (NV-B DIZC)
RAM State: $00:00 $01:00 $02:00
Timing: Current Emulated Cycle: 6458, Last IRQ Trigger Cycle: 0, Cycles Since Last IRQ: 6458
Emulated Cycles: 6458

8163: D0 F8       BNE $815D
CPU State: PC:815D A:EA X:9F Y:00 SP:FD Status:A5 (NV-B DIZC)
RAM State: $00:00 $01:00 $02:00
Timing: Current Emulated Cycle: 6461, Last IRQ Trigger Cycle: 0, Cycles Since Last IRQ: 6461
Emulated Cycles: 6461

815D: A9 EA       LDA #$EA
CPU State: PC:815F A:EA X:9F Y:00 SP:FD Status:A5 (NV-B DIZC)
RAM State: $00:00 $01:00 $02:00
Timing: Current Emulated Cycle: 6463, Last IRQ Trigger Cycle: 0, Cycles Since Last IRQ: 6463
Emulated Cycles: 6463

815F: 9D 00 C2    STA $C200,X
CPU State: PC:8162 A:EA X:9F Y:00 SP:FD Status:A5 (NV-B DIZC)
RAM State: $00:00 $01:00 $02:00
Timing: Current Emulated Cycle: 6468, Last IRQ Trigger Cycle: 0, Cycles Since Last IRQ: 6468
Emulated Cycles: 6468

8162: E8          INX
CPU State: PC:8163 A:EA X:A0 Y:00 SP:FD Status:A5 (NV-B DIZC)
RAM State: $00:00 $01:00 $02:00
Timing: Current Emulated Cycle: 6470, Last IRQ Trigger Cycle: 0, Cycles Since Last IRQ: 6470
Emulated Cycles: 6470

8163: D0 F8       BNE $815D
CPU State: PC:815D A:EA X:A0 Y:00 SP:FD Status:A5 (NV-B DIZC)
RAM State: $00:00 $01:00 $02:00
Timing: Current Emulated Cycle: 6473, Last IRQ Trigger Cycle: 0, Cycles Since Last IRQ: 6473
Emulated Cycles: 6473

815D: A9 EA       LDA #$EA
CPU State: PC:815F A:EA X:A0 Y:00 SP:FD Status:A5 (NV-B DIZC)
RAM State: $00:00 $01:00 $02:00
Timing: Current Emulated Cycle: 6475, Last IRQ Trigger Cycle: 0, Cycles Since Last IRQ: 6475
Emulated Cycles: 6475

815F: 9D 00 C2    STA $C200,X
CPU State: PC:8162 A:EA X:A0 Y:00 SP:FD Status:A5 (NV-B DIZC)
RAM State: $00:00 $01:00 $02:00
Timing: Current Emulated Cycle: 6480, Last IRQ Trigger Cycle: 0, Cycles Since Last IRQ: 6480
Emulated Cycles: 6480

8162: E8          INX
CPU State: PC:8163 A:EA X:A1 Y:00 SP:FD Status:A5 (NV-B DIZC)
RAM State: $00:00 $01:00 $02:00
Timing: Current Emulated Cycle: 6482, Last IRQ Trigger Cycle: 0, Cycles Since Last IRQ: 6482
Emulated Cycles: 6482

8163: D0 F8       BNE $815D
CPU State: PC:815D A:EA X:A1 Y:00 SP:FD Status:A5 (NV-B DIZC)
RAM State: $00:00 $01:00 $02:00
Timing: Current Emulated Cycle: 6485, Last IRQ Trigger Cycle: 0, Cycles Since Last IRQ: 6485
Emulated Cycles: 6485

815D: A9 EA       LDA #$EA
CPU State: PC:815F A:EA X:A1 Y:00 SP:FD Status:A5 (NV-B DIZC)
RAM State: $00:00 $01:00 $02:00
Timing: Current Emulated Cycle: 6487, Last IRQ Trigger Cycle: 0, Cycles Since Last IRQ: 6487
Emulated Cycles: 6487

815F: 9D 00 C2    STA $C200,X
CPU State: PC:8162 A:EA X:A1 Y:00 SP:FD Status:A5 (NV-B DIZC)
RAM State: $00:00 $01:00 $02:00
Timing: Current Emulated Cycle: 6492, Last IRQ Trigger Cycle: 0, Cycles Since Last IRQ: 6492
Emulated Cycles: 6492

8162: E8          INX
CPU State: PC:8163 A:EA X:A2 Y:00 SP:FD Status:A5 (NV-B DIZC)
RAM State: $00:00 $01:00 $02:00
Timing: Current Emulated Cycle: 6494, Last IRQ Trigger Cycle: 0, Cycles Since Last IRQ: 6494
Emulated Cycles: 6494

8163: D0 F8       BNE $815D
CPU State: PC:815D A:EA X:A2 Y:00 SP:FD Status:A5 (NV-B DIZC)
RAM State: $00:00 $01:00 $02:00
Timing: Current Emulated Cycle: 6497, Last IRQ Trigger Cycle: 0, Cycles Since Last IRQ: 6497
Emulated Cycles: 6497

815D: A9 EA       LDA #$EA
CPU State: PC:815F A:EA X:A2 Y:00 SP:FD Status:A5 (NV-B DIZC)
RAM State: $00:00 $01:00 $02:00
Timing: Current Emulated Cycle: 6499, Last IRQ Trigger Cycle: 0, Cycles Since Last IRQ: 6499
Emulated Cycles: 6499

815F: 9D 00 C2    STA $C200,X
CPU State: PC:8162 A:EA X:A2 Y:00 SP:FD Status:A5 (NV-B DIZC)
RAM State: $00:00 $01:00 $02:00
Timing: Current Emulated Cycle: 6504, Last IRQ Trigger Cycle: 0, Cycles Since Last IRQ: 6504
Emulated Cycles: 6504

8162: E8          INX
CPU State: PC:8163 A:EA X:A3 Y:00 SP:FD Status:A5 (NV-B DIZC)
RAM State: $00:00 $01:00 $02:00
Timing: Current Emulated Cycle: 6506, Last IRQ Trigger Cycle: 0, Cycles Since Last IRQ: 6506
Emulated Cycles: 6506

8163: D0 F8       BNE $815D
CPU State: PC:815D A:EA X:A3 Y:00 SP:FD Status:A5 (NV-B DIZC)
RAM State: $00:00 $01:00 $02:00
Timing: Current Emulated Cycle: 6509, Last IRQ Trigger Cycle: 0, Cycles Since Last IRQ: 6509
Emulated Cycles: 6509

815D: A9 EA       LDA #$EA
CPU State: PC:815F A:EA X:A3 Y:00 SP:FD Status:A5 (NV-B DIZC)
RAM State: $00:00 $01:00 $02:00
Timing: Current Emulated Cycle: 6511, Last IRQ Trigger Cycle: 0, Cycles Since Last IRQ: 6511
Emulated Cycles: 6511

815F: 9D 00 C2    STA $C200,X
CPU State: PC:8162 A:EA X:A3 Y:00 SP:FD Status:A5 (NV-B DIZC)
RAM State: $00:00 $01:00 $02:00
Timing: Current Emulated Cycle: 6516, Last IRQ Trigger Cycle: 0, Cycles Since Last IRQ: 6516
Emulated Cycles: 6516

8162: E8          INX
CPU State: PC:8163 A:EA X:A4 Y:00 SP:FD Status:A5 (NV-B DIZC)
RAM State: $00:00 $01:00 $02:00
Timing: Current Emulated Cycle: 6518, Last IRQ Trigger Cycle: 0, Cycles Since Last IRQ: 6518
Emulated Cycles: 6518

8163: D0 F8       BNE $815D
CPU State: PC:815D A:EA X:A4 Y:00 SP:FD Status:A5 (NV-B DIZC)
RAM State: $00:00 $01:00 $02:00
Timing: Current Emulated Cycle: 6521, Last IRQ Trigger Cycle: 0, Cycles Since Last IRQ: 6521
Emulated Cycles: 6521

815D: A9 EA       LDA #$EA
CPU State: PC:815F A:EA X:A4 Y:00 SP:FD Status:A5 (NV-B DIZC)
RAM State: $00:00 $01:00 $02:00
Timing: Current Emulated Cycle: 6523, Last IRQ Trigger Cycle: 0, Cycles Since Last IRQ: 6523
Emulated Cycles: 6523

815F: 9D 00 C2    STA $C200,X
CPU State: PC:8162 A:EA X:A4 Y:00 SP:FD Status:A5 (NV-B DIZC)
RAM State: $00:00 $01:00 $02:00
Timing: Current Emulated Cycle: 6528, Last IRQ Trigger Cycle: 0, Cycles Since Last IRQ: 6528
Emulated Cycles: 6528

8162: E8          INX
CPU State: PC:8163 A:EA X:A5 Y:00 SP:FD Status:A5 (NV-B DIZC)
RAM State: $00:00 $01:00 $02:00
Timing: Current Emulated Cycle: 6530, Last IRQ Trigger Cycle: 0, Cycles Since Last IRQ: 6530
Emulated Cycles: 6530

8163: D0 F8       BNE $815D
CPU State: PC:815D A:EA X:A5 Y:00 SP:FD Status:A5 (NV-B DIZC)
RAM State: $00:00 $01:00 $02:00
Timing: Current Emulated Cycle: 6533, Last IRQ Trigger Cycle: 0, Cycles Since Last IRQ: 6533
Emulated Cycles: 6533

815D: A9 EA       LDA #$EA
CPU State: PC:815F A:EA X:A5 Y:00 SP:FD Status:A5 (NV-B DIZC)
RAM State: $00:00 $01:00 $02:00
Timing: Current Emulated Cycle: 6535, Last IRQ Trigger Cycle: 0, Cycles Since Last IRQ: 6535
Emulated Cycles: 6535

815F: 9D 00 C2    STA $C200,X
CPU State: PC:8162 A:EA X:A5 Y:00 SP:FD Status:A5 (NV-B DIZC)
RAM State: $00:00 $01:00 $02:00
Timing: Current Emulated Cycle: 6540, Last IRQ Trigger Cycle: 0, Cycles Since Last IRQ: 6540
Emulated Cycles: 6540

8162: E8          INX
CPU State: PC:8163 A:EA X:A6 Y:00 SP:FD Status:A5 (NV-B DIZC)
RAM State: $00:00 $01:00 $02:00
Timing: Current Emulated Cycle: 6542, Last IRQ Trigger Cycle: 0, Cycles Since Last IRQ: 6542
Emulated Cycles: 6542

8163: D0 F8       BNE $815D
CPU State: PC:815D A:EA X:A6 Y:00 SP:FD Status:A5 (NV-B DIZC)
RAM State: $00:00 $01:00 $02:00
Timing: Current Emulated Cycle: 6545, Last IRQ Trigger Cycle: 0, Cycles Since Last IRQ: 6545
Emulated Cycles: 6545

815D: A9 EA       LDA #$EA
CPU State: PC:815F A:EA X:A6 Y:00 SP:FD Status:A5 (NV-B DIZC)
RAM State: $00:00 $01:00 $02:00
Timing: Current Emulated Cycle: 6547, Last IRQ Trigger Cycle: 0, Cycles Since Last IRQ: 6547
Emulated Cycles: 6547

815F: 9D 00 C2    STA $C200,X
CPU State: PC:8162 A:EA X:A6 Y:00 SP:FD Status:A5 (NV-B DIZC)
RAM State: $00:00 $01:00 $02:00
Timing: Current Emulated Cycle: 6552, Last IRQ Trigger Cycle: 0, Cycles Since Last IRQ: 6552
Emulated Cycles: 6552

8162: E8          INX
CPU State: PC:8163 A:EA X:A7 Y:00 SP:FD Status:A5 (NV-B DIZC)
RAM State: $00:00 $01:00 $02:00
Timing: Current Emulated Cycle: 6554, Last IRQ Trigger Cycle: 0, Cycles Since Last IRQ: 6554
Emulated Cycles: 6554

8163: D0 F8       BNE $815D
CPU State: PC:815D A:EA X:A7 Y:00 SP:FD Status:A5 (NV-B DIZC)
RAM State: $00:00 $01:00 $02:00
Timing: Current Emulated Cycle: 6557, Last IRQ Trigger Cycle: 0, Cycles Since Last IRQ: 6557
Emulated Cycles: 6557

815D: A9 EA       LDA #$EA
CPU State: PC:815F A:EA X:A7 Y:00 SP:FD Status:A5 (NV-B DIZC)
RAM State: $00:00 $01:00 $02:00
Timing: Current Emulated Cycle: 6559, Last IRQ Trigger Cycle: 0, Cycles Since Last IRQ: 6559
Emulated Cycles: 6559

815F: 9D 00 C2    STA $C200,X
CPU State: PC:8162 A:EA X:A7 Y:00 SP:FD Status:A5 (NV-B DIZC)
RAM State: $00:00 $01:00 $02:00
Timing: Current Emulated Cycle: 6564, Last IRQ Trigger Cycle: 0, Cycles Since Last IRQ: 6564
Emulated Cycles: 6564

8162: E8          INX
CPU State: PC:8163 A:EA X:A8 Y:00 SP:FD Status:A5 (NV-B DIZC)
RAM State: $00:00 $01:00 $02:00
Timing: Current Emulated Cycle: 6566, Last IRQ Trigger Cycle: 0, Cycles Since Last IRQ: 6566
Emulated Cycles: 6566

8163: D0 F8       BNE $815D
CPU State: PC:815D A:EA X:A8 Y:00 SP:FD Status:A5 (NV-B DIZC)
RAM State: $00:00 $01:00 $02:00
Timing: Current Emulated Cycle: 6569, Last IRQ Trigger Cycle: 0, Cycles Since Last IRQ: 6569
Emulated Cycles: 6569

815D: A9 EA       LDA #$EA
CPU State: PC:815F A:EA X:A8 Y:00 SP:FD Status:A5 (NV-B DIZC)
RAM State: $00:00 $01:00 $02:00
Timing: Current Emulated Cycle: 6571, Last IRQ Trigger Cycle: 0, Cycles Since Last IRQ: 6571
Emulated Cycles: 6571

815F: 9D 00 C2    STA $C200,X
CPU State: PC:8162 A:EA X:A8 Y:00 SP:FD Status:A5 (NV-B DIZC)
RAM State: $00:00 $01:00 $02:00
Timing: Current Emulated Cycle: 6576, Last IRQ Trigger Cycle: 0, Cycles Since Last IRQ: 6576
Emulated Cycles: 6576

8162: E8          INX
CPU State: PC:8163 A:EA X:A9 Y:00 SP:FD Status:A5 (NV-B DIZC)
RAM State: $00:00 $01:00 $02:00
Timing: Current Emulated Cycle: 6578, Last IRQ Trigger Cycle: 0, Cycles Since Last IRQ: 6578
Emulated Cycles: 6578

8163: D0 F8       BNE $815D
CPU State: PC:815D A:EA X:A9 Y:00 SP:FD Status:A5 (NV-B DIZC)
RAM State: $00:00 $01:00 $02:00
Timing: Current Emulated Cycle: 6581, Last IRQ Trigger Cycle: 0, Cycles Since Last IRQ: 6581
Emulated Cycles: 6581

815D: A9 EA       LDA #$EA
CPU State: PC:815F A:EA X:A9 Y:00 SP:FD Status:A5 (NV-B DIZC)
RAM State: $00:00 $01:00 $02:00
Timing: Current Emulated Cycle: 6583, Last IRQ Trigger Cycle: 0, Cycles Since Last IRQ: 6583
Emulated Cycles: 6583

815F: 9D 00 C2    STA $C200,X
CPU State: PC:8162 A:EA X:A9 Y:00 SP:FD Status:A5 (NV-B DIZC)
RAM State: $00:00 $01:00 $02:00
Timing: Current Emulated Cycle: 6588, Last IRQ Trigger Cycle: 0, Cycles Since Last IRQ: 6588
Emulated Cycles: 6588

8162: E8          INX
CPU State: PC:8163 A:EA X:AA Y:00 SP:FD Status:A5 (NV-B DIZC)
RAM State: $00:00 $01:00 $02:00
Timing: Current Emulated Cycle: 6590, Last IRQ Trigger Cycle: 0, Cycles Since Last IRQ: 6590
Emulated Cycles: 6590

8163: D0 F8       BNE $815D
CPU State: PC:815D A:EA X:AA Y:00 SP:FD Status:A5 (NV-B DIZC)
RAM State: $00:00 $01:00 $02:00
Timing: Current Emulated Cycle: 6593, Last IRQ Trigger Cycle: 0, Cycles Since Last IRQ: 6593
Emulated Cycles: 6593

815D: A9 EA       LDA #$EA
CPU State: PC:815F A:EA X:AA Y:00 SP:FD Status:A5 (NV-B DIZC)
RAM State: $00:00 $01:00 $02:00
Timing: Current Emulated Cycle: 6595, Last IRQ Trigger Cycle: 0, Cycles Since Last IRQ: 6595
Emulated Cycles: 6595

815F: 9D 00 C2    STA $C200,X
CPU State: PC:8162 A:EA X:AA Y:00 SP:FD Status:A5 (NV-B DIZC)
RAM State: $00:00 $01:00 $02:00
Timing: Current Emulated Cycle: 6600, Last IRQ Trigger Cycle: 0, Cycles Since Last IRQ: 6600
Emulated Cycles: 6600

8162: E8          INX
CPU State: PC:8163 A:EA X:AB Y:00 SP:FD Status:A5 (NV-B DIZC)
RAM State: $00:00 $01:00 $02:00
Timing: Current Emulated Cycle: 6602, Last IRQ Trigger Cycle: 0, Cycles Since Last IRQ: 6602
Emulated Cycles: 6602

8163: D0 F8       BNE $815D
CPU State: PC:815D A:EA X:AB Y:00 SP:FD Status:A5 (NV-B DIZC)
RAM State: $00:00 $01:00 $02:00
Timing: Current Emulated Cycle: 6605, Last IRQ Trigger Cycle: 0, Cycles Since Last IRQ: 6605
Emulated Cycles: 6605

815D: A9 EA       LDA #$EA
CPU State: PC:815F A:EA X:AB Y:00 SP:FD Status:A5 (NV-B DIZC)
RAM State: $00:00 $01:00 $02:00
Timing: Current Emulated Cycle: 6607, Last IRQ Trigger Cycle: 0, Cycles Since Last IRQ: 6607
Emulated Cycles: 6607

815F: 9D 00 C2    STA $C200,X
CPU State: PC:8162 A:EA X:AB Y:00 SP:FD Status:A5 (NV-B DIZC)
RAM State: $00:00 $01:00 $02:00
Timing: Current Emulated Cycle: 6612, Last IRQ Trigger Cycle: 0, Cycles Since Last IRQ: 6612
Emulated Cycles: 6612

8162: E8          INX
CPU State: PC:8163 A:EA X:AC Y:00 SP:FD Status:A5 (NV-B DIZC)
RAM State: $00:00 $01:00 $02:00
Timing: Current Emulated Cycle: 6614, Last IRQ Trigger Cycle: 0, Cycles Since Last IRQ: 6614
Emulated Cycles: 6614

8163: D0 F8       BNE $815D
CPU State: PC:815D A:EA X:AC Y:00 SP:FD Status:A5 (NV-B DIZC)
RAM State: $00:00 $01:00 $02:00
Timing: Current Emulated Cycle: 6617, Last IRQ Trigger Cycle: 0, Cycles Since Last IRQ: 6617
Emulated Cycles: 6617

815D: A9 EA       LDA #$EA
CPU State: PC:815F A:EA X:AC Y:00 SP:FD Status:A5 (NV-B DIZC)
RAM State: $00:00 $01:00 $02:00
Timing: Current Emulated Cycle: 6619, Last IRQ Trigger Cycle: 0, Cycles Since Last IRQ: 6619
Emulated Cycles: 6619

815F: 9D 00 C2    STA $C200,X
CPU State: PC:8162 A:EA X:AC Y:00 SP:FD Status:A5 (NV-B DIZC)
RAM State: $00:00 $01:00 $02:00
Timing: Current Emulated Cycle: 6624, Last IRQ Trigger Cycle: 0, Cycles Since Last IRQ: 6624
Emulated Cycles: 6624

8162: E8          INX
CPU State: PC:8163 A:EA X:AD Y:00 SP:FD Status:A5 (NV-B DIZC)
RAM State: $00:00 $01:00 $02:00
Timing: Current Emulated Cycle: 6626, Last IRQ Trigger Cycle: 0, Cycles Since Last IRQ: 6626
Emulated Cycles: 6626

8163: D0 F8       BNE $815D
CPU State: PC:815D A:EA X:AD Y:00 SP:FD Status:A5 (NV-B DIZC)
RAM State: $00:00 $01:00 $02:00
Timing: Current Emulated Cycle: 6629, Last IRQ Trigger Cycle: 0, Cycles Since Last IRQ: 6629
Emulated Cycles: 6629

815D: A9 EA       LDA #$EA
CPU State: PC:815F A:EA X:AD Y:00 SP:FD Status:A5 (NV-B DIZC)
RAM State: $00:00 $01:00 $02:00
Timing: Current Emulated Cycle: 6631, Last IRQ Trigger Cycle: 0, Cycles Since Last IRQ: 6631
Emulated Cycles: 6631

815F: 9D 00 C2    STA $C200,X
CPU State: PC:8162 A:EA X:AD Y:00 SP:FD Status:A5 (NV-B DIZC)
RAM State: $00:00 $01:00 $02:00
Timing: Current Emulated Cycle: 6636, Last IRQ Trigger Cycle: 0, Cycles Since Last IRQ: 6636
Emulated Cycles: 6636

8162: E8          INX
CPU State: PC:8163 A:EA X:AE Y:00 SP:FD Status:A5 (NV-B DIZC)
RAM State: $00:00 $01:00 $02:00
Timing: Current Emulated Cycle: 6638, Last IRQ Trigger Cycle: 0, Cycles Since Last IRQ: 6638
Emulated Cycles: 6638

8163: D0 F8       BNE $815D
CPU State: PC:815D A:EA X:AE Y:00 SP:FD Status:A5 (NV-B DIZC)
RAM State: $00:00 $01:00 $02:00
Timing: Current Emulated Cycle: 6641, Last IRQ Trigger Cycle: 0, Cycles Since Last IRQ: 6641
Emulated Cycles: 6641

815D: A9 EA       LDA #$EA
CPU State: PC:815F A:EA X:AE Y:00 SP:FD Status:A5 (NV-B DIZC)
RAM State: $00:00 $01:00 $02:00
Timing: Current Emulated Cycle: 6643, Last IRQ Trigger Cycle: 0, Cycles Since Last IRQ: 6643
Emulated Cycles: 6643

815F: 9D 00 C2    STA $C200,X
CPU State: PC:8162 A:EA X:AE Y:00 SP:FD Status:A5 (NV-B DIZC)
RAM State: $00:00 $01:00 $02:00
Timing: Current Emulated Cycle: 6648, Last IRQ Trigger Cycle: 0, Cycles Since Last IRQ: 6648
Emulated Cycles: 6648

8162: E8          INX
CPU State: PC:8163 A:EA X:AF Y:00 SP:FD Status:A5 (NV-B DIZC)
RAM State: $00:00 $01:00 $02:00
Timing: Current Emulated Cycle: 6650, Last IRQ Trigger Cycle: 0, Cycles Since Last IRQ: 6650
Emulated Cycles: 6650

8163: D0 F8       BNE $815D
CPU State: PC:815D A:EA X:AF Y:00 SP:FD Status:A5 (NV-B DIZC)
RAM State: $00:00 $01:00 $02:00
Timing: Current Emulated Cycle: 6653, Last IRQ Trigger Cycle: 0, Cycles Since Last IRQ: 6653
Emulated Cycles: 6653

815D: A9 EA       LDA #$EA
CPU State: PC:815F A:EA X:AF Y:00 SP:FD Status:A5 (NV-B DIZC)
RAM State: $00:00 $01:00 $02:00
Timing: Current Emulated Cycle: 6655, Last IRQ Trigger Cycle: 0, Cycles Since Last IRQ: 6655
Emulated Cycles: 6655

815F: 9D 00 C2    STA $C200,X
CPU State: PC:8162 A:EA X:AF Y:00 SP:FD Status:A5 (NV-B DIZC)
RAM State: $00:00 $01:00 $02:00
Timing: Current Emulated Cycle: 6660, Last IRQ Trigger Cycle: 0, Cycles Since Last IRQ: 6660
Emulated Cycles: 6660

8162: E8          INX
CPU State: PC:8163 A:EA X:B0 Y:00 SP:FD Status:A5 (NV-B DIZC)
RAM State: $00:00 $01:00 $02:00
Timing: Current Emulated Cycle: 6662, Last IRQ Trigger Cycle: 0, Cycles Since Last IRQ: 6662
Emulated Cycles: 6662

8163: D0 F8       BNE $815D
CPU State: PC:815D A:EA X:B0 Y:00 SP:FD Status:A5 (NV-B DIZC)
RAM State: $00:00 $01:00 $02:00
Timing: Current Emulated Cycle: 6665, Last IRQ Trigger Cycle: 0, Cycles Since Last IRQ: 6665
Emulated Cycles: 6665

815D: A9 EA       LDA #$EA
CPU State: PC:815F A:EA X:B0 Y:00 SP:FD Status:A5 (NV-B DIZC)
RAM State: $00:00 $01:00 $02:00
Timing: Current Emulated Cycle: 6667, Last IRQ Trigger Cycle: 0, Cycles Since Last IRQ: 6667
Emulated Cycles: 6667

815F: 9D 00 C2    STA $C200,X
CPU State: PC:8162 A:EA X:B0 Y:00 SP:FD Status:A5 (NV-B DIZC)
RAM State: $00:00 $01:00 $02:00
Timing: Current Emulated Cycle: 6672, Last IRQ Trigger Cycle: 0, Cycles Since Last IRQ: 6672
Emulated Cycles: 6672

8162: E8          INX
CPU State: PC:8163 A:EA X:B1 Y:00 SP:FD Status:A5 (NV-B DIZC)
RAM State: $00:00 $01:00 $02:00
Timing: Current Emulated Cycle: 6674, Last IRQ Trigger Cycle: 0, Cycles Since Last IRQ: 6674
Emulated Cycles: 6674

8163: D0 F8       BNE $815D
CPU State: PC:815D A:EA X:B1 Y:00 SP:FD Status:A5 (NV-B DIZC)
RAM State: $00:00 $01:00 $02:00
Timing: Current Emulated Cycle: 6677, Last IRQ Trigger Cycle: 0, Cycles Since Last IRQ: 6677
Emulated Cycles: 6677

815D: A9 EA       LDA #$EA
CPU State: PC:815F A:EA X:B1 Y:00 SP:FD Status:A5 (NV-B DIZC)
RAM State: $00:00 $01:00 $02:00
Timing: Current Emulated Cycle: 6679, Last IRQ Trigger Cycle: 0, Cycles Since Last IRQ: 6679
Emulated Cycles: 6679

815F: 9D 00 C2    STA $C200,X
CPU State: PC:8162 A:EA X:B1 Y:00 SP:FD Status:A5 (NV-B DIZC)
RAM State: $00:00 $01:00 $02:00
Timing: Current Emulated Cycle: 6684, Last IRQ Trigger Cycle: 0, Cycles Since Last IRQ: 6684
Emulated Cycles: 6684

8162: E8          INX
CPU State: PC:8163 A:EA X:B2 Y:00 SP:FD Status:A5 (NV-B DIZC)
RAM State: $00:00 $01:00 $02:00
Timing: Current Emulated Cycle: 6686, Last IRQ Trigger Cycle: 0, Cycles Since Last IRQ: 6686
Emulated Cycles: 6686

8163: D0 F8       BNE $815D
CPU State: PC:815D A:EA X:B2 Y:00 SP:FD Status:A5 (NV-B DIZC)
RAM State: $00:00 $01:00 $02:00
Timing: Current Emulated Cycle: 6689, Last IRQ Trigger Cycle: 0, Cycles Since Last IRQ: 6689
Emulated Cycles: 6689

815D: A9 EA       LDA #$EA
CPU State: PC:815F A:EA X:B2 Y:00 SP:FD Status:A5 (NV-B DIZC)
RAM State: $00:00 $01:00 $02:00
Timing: Current Emulated Cycle: 6691, Last IRQ Trigger Cycle: 0, Cycles Since Last IRQ: 6691
Emulated Cycles: 6691

815F: 9D 00 C2    STA $C200,X
CPU State: PC:8162 A:EA X:B2 Y:00 SP:FD Status:A5 (NV-B DIZC)
RAM State: $00:00 $01:00 $02:00
Timing: Current Emulated Cycle: 6696, Last IRQ Trigger Cycle: 0, Cycles Since Last IRQ: 6696
Emulated Cycles: 6696

8162: E8          INX
CPU State: PC:8163 A:EA X:B3 Y:00 SP:FD Status:A5 (NV-B DIZC)
RAM State: $00:00 $01:00 $02:00
Timing: Current Emulated Cycle: 6698, Last IRQ Trigger Cycle: 0, Cycles Since Last IRQ: 6698
Emulated Cycles: 6698

8163: D0 F8       BNE $815D
CPU State: PC:815D A:EA X:B3 Y:00 SP:FD Status:A5 (NV-B DIZC)
RAM State: $00:00 $01:00 $02:00
Timing: Current Emulated Cycle: 6701, Last IRQ Trigger Cycle: 0, Cycles Since Last IRQ: 6701
Emulated Cycles: 6701

815D: A9 EA       LDA #$EA
CPU State: PC:815F A:EA X:B3 Y:00 SP:FD Status:A5 (NV-B DIZC)
RAM State: $00:00 $01:00 $02:00
Timing: Current Emulated Cycle: 6703, Last IRQ Trigger Cycle: 0, Cycles Since Last IRQ: 6703
Emulated Cycles: 6703

815F: 9D 00 C2    STA $C200,X
CPU State: PC:8162 A:EA X:B3 Y:00 SP:FD Status:A5 (NV-B DIZC)
RAM State: $00:00 $01:00 $02:00
Timing: Current Emulated Cycle: 6708, Last IRQ Trigger Cycle: 0, Cycles Since Last IRQ: 6708
Emulated Cycles: 6708

8162: E8          INX
CPU State: PC:8163 A:EA X:B4 Y:00 SP:FD Status:A5 (NV-B DIZC)
RAM State: $00:00 $01:00 $02:00
Timing: Current Emulated Cycle: 6710, Last IRQ Trigger Cycle: 0, Cycles Since Last IRQ: 6710
Emulated Cycles: 6710

8163: D0 F8       BNE $815D
CPU State: PC:815D A:EA X:B4 Y:00 SP:FD Status:A5 (NV-B DIZC)
RAM State: $00:00 $01:00 $02:00
Timing: Current Emulated Cycle: 6713, Last IRQ Trigger Cycle: 0, Cycles Since Last IRQ: 6713
Emulated Cycles: 6713

815D: A9 EA       LDA #$EA
CPU State: PC:815F A:EA X:B4 Y:00 SP:FD Status:A5 (NV-B DIZC)
RAM State: $00:00 $01:00 $02:00
Timing: Current Emulated Cycle: 6715, Last IRQ Trigger Cycle: 0, Cycles Since Last IRQ: 6715
Emulated Cycles: 6715

815F: 9D 00 C2    STA $C200,X
CPU State: PC:8162 A:EA X:B4 Y:00 SP:FD Status:A5 (NV-B DIZC)
RAM State: $00:00 $01:00 $02:00
Timing: Current Emulated Cycle: 6720, Last IRQ Trigger Cycle: 0, Cycles Since Last IRQ: 6720
Emulated Cycles: 6720

8162: E8          INX
CPU State: PC:8163 A:EA X:B5 Y:00 SP:FD Status:A5 (NV-B DIZC)
RAM State: $00:00 $01:00 $02:00
Timing: Current Emulated Cycle: 6722, Last IRQ Trigger Cycle: 0, Cycles Since Last IRQ: 6722
Emulated Cycles: 6722

8163: D0 F8       BNE $815D
CPU State: PC:815D A:EA X:B5 Y:00 SP:FD Status:A5 (NV-B DIZC)
RAM State: $00:00 $01:00 $02:00
Timing: Current Emulated Cycle: 6725, Last IRQ Trigger Cycle: 0, Cycles Since Last IRQ: 6725
Emulated Cycles: 6725

815D: A9 EA       LDA #$EA
CPU State: PC:815F A:EA X:B5 Y:00 SP:FD Status:A5 (NV-B DIZC)
RAM State: $00:00 $01:00 $02:00
Timing: Current Emulated Cycle: 6727, Last IRQ Trigger Cycle: 0, Cycles Since Last IRQ: 6727
Emulated Cycles: 6727

815F: 9D 00 C2    STA $C200,X
CPU State: PC:8162 A:EA X:B5 Y:00 SP:FD Status:A5 (NV-B DIZC)
RAM State: $00:00 $01:00 $02:00
Timing: Current Emulated Cycle: 6732, Last IRQ Trigger Cycle: 0, Cycles Since Last IRQ: 6732
Emulated Cycles: 6732

8162: E8          INX
CPU State: PC:8163 A:EA X:B6 Y:00 SP:FD Status:A5 (NV-B DIZC)
RAM State: $00:00 $01:00 $02:00
Timing: Current Emulated Cycle: 6734, Last IRQ Trigger Cycle: 0, Cycles Since Last IRQ: 6734
Emulated Cycles: 6734

8163: D0 F8       BNE $815D
CPU State: PC:815D A:EA X:B6 Y:00 SP:FD Status:A5 (NV-B DIZC)
RAM State: $00:00 $01:00 $02:00
Timing: Current Emulated Cycle: 6737, Last IRQ Trigger Cycle: 0, Cycles Since Last IRQ: 6737
Emulated Cycles: 6737

815D: A9 EA       LDA #$EA
CPU State: PC:815F A:EA X:B6 Y:00 SP:FD Status:A5 (NV-B DIZC)
RAM State: $00:00 $01:00 $02:00
Timing: Current Emulated Cycle: 6739, Last IRQ Trigger Cycle: 0, Cycles Since Last IRQ: 6739
Emulated Cycles: 6739

815F: 9D 00 C2    STA $C200,X
CPU State: PC:8162 A:EA X:B6 Y:00 SP:FD Status:A5 (NV-B DIZC)
RAM State: $00:00 $01:00 $02:00
Timing: Current Emulated Cycle: 6744, Last IRQ Trigger Cycle: 0, Cycles Since Last IRQ: 6744
Emulated Cycles: 6744

8162: E8          INX
CPU State: PC:8163 A:EA X:B7 Y:00 SP:FD Status:A5 (NV-B DIZC)
RAM State: $00:00 $01:00 $02:00
Timing: Current Emulated Cycle: 6746, Last IRQ Trigger Cycle: 0, Cycles Since Last IRQ: 6746
Emulated Cycles: 6746

8163: D0 F8       BNE $815D
CPU State: PC:815D A:EA X:B7 Y:00 SP:FD Status:A5 (NV-B DIZC)
RAM State: $00:00 $01:00 $02:00
Timing: Current Emulated Cycle: 6749, Last IRQ Trigger Cycle: 0, Cycles Since Last IRQ: 6749
Emulated Cycles: 6749

815D: A9 EA       LDA #$EA
CPU State: PC:815F A:EA X:B7 Y:00 SP:FD Status:A5 (NV-B DIZC)
RAM State: $00:00 $01:00 $02:00
Timing: Current Emulated Cycle: 6751, Last IRQ Trigger Cycle: 0, Cycles Since Last IRQ: 6751
Emulated Cycles: 6751

815F: 9D 00 C2    STA $C200,X
CPU State: PC:8162 A:EA X:B7 Y:00 SP:FD Status:A5 (NV-B DIZC)
RAM State: $00:00 $01:00 $02:00
Timing: Current Emulated Cycle: 6756, Last IRQ Trigger Cycle: 0, Cycles Since Last IRQ: 6756
Emulated Cycles: 6756

8162: E8          INX
CPU State: PC:8163 A:EA X:B8 Y:00 SP:FD Status:A5 (NV-B DIZC)
RAM State: $00:00 $01:00 $02:00
Timing: Current Emulated Cycle: 6758, Last IRQ Trigger Cycle: 0, Cycles Since Last IRQ: 6758
Emulated Cycles: 6758

8163: D0 F8       BNE $815D
CPU State: PC:815D A:EA X:B8 Y:00 SP:FD Status:A5 (NV-B DIZC)
RAM State: $00:00 $01:00 $02:00
Timing: Current Emulated Cycle: 6761, Last IRQ Trigger Cycle: 0, Cycles Since Last IRQ: 6761
Emulated Cycles: 6761

815D: A9 EA       LDA #$EA
CPU State: PC:815F A:EA X:B8 Y:00 SP:FD Status:A5 (NV-B DIZC)
RAM State: $00:00 $01:00 $02:00
Timing: Current Emulated Cycle: 6763, Last IRQ Trigger Cycle: 0, Cycles Since Last IRQ: 6763
Emulated Cycles: 6763

815F: 9D 00 C2    STA $C200,X
CPU State: PC:8162 A:EA X:B8 Y:00 SP:FD Status:A5 (NV-B DIZC)
RAM State: $00:00 $01:00 $02:00
Timing: Current Emulated Cycle: 6768, Last IRQ Trigger Cycle: 0, Cycles Since Last IRQ: 6768
Emulated Cycles: 6768

8162: E8          INX
CPU State: PC:8163 A:EA X:B9 Y:00 SP:FD Status:A5 (NV-B DIZC)
RAM State: $00:00 $01:00 $02:00
Timing: Current Emulated Cycle: 6770, Last IRQ Trigger Cycle: 0, Cycles Since Last IRQ: 6770
Emulated Cycles: 6770

8163: D0 F8       BNE $815D
CPU State: PC:815D A:EA X:B9 Y:00 SP:FD Status:A5 (NV-B DIZC)
RAM State: $00:00 $01:00 $02:00
Timing: Current Emulated Cycle: 6773, Last IRQ Trigger Cycle: 0, Cycles Since Last IRQ: 6773
Emulated Cycles: 6773

815D: A9 EA       LDA #$EA
CPU State: PC:815F A:EA X:B9 Y:00 SP:FD Status:A5 (NV-B DIZC)
RAM State: $00:00 $01:00 $02:00
Timing: Current Emulated Cycle: 6775, Last IRQ Trigger Cycle: 0, Cycles Since Last IRQ: 6775
Emulated Cycles: 6775

815F: 9D 00 C2    STA $C200,X
CPU State: PC:8162 A:EA X:B9 Y:00 SP:FD Status:A5 (NV-B DIZC)
RAM State: $00:00 $01:00 $02:00
Timing: Current Emulated Cycle: 6780, Last IRQ Trigger Cycle: 0, Cycles Since Last IRQ: 6780
Emulated Cycles: 6780

8162: E8          INX
CPU State: PC:8163 A:EA X:BA Y:00 SP:FD Status:A5 (NV-B DIZC)
RAM State: $00:00 $01:00 $02:00
Timing: Current Emulated Cycle: 6782, Last IRQ Trigger Cycle: 0, Cycles Since Last IRQ: 6782
Emulated Cycles: 6782

8163: D0 F8       BNE $815D
CPU State: PC:815D A:EA X:BA Y:00 SP:FD Status:A5 (NV-B DIZC)
RAM State: $00:00 $01:00 $02:00
Timing: Current Emulated Cycle: 6785, Last IRQ Trigger Cycle: 0, Cycles Since Last IRQ: 6785
Emulated Cycles: 6785

815D: A9 EA       LDA #$EA
CPU State: PC:815F A:EA X:BA Y:00 SP:FD Status:A5 (NV-B DIZC)
RAM State: $00:00 $01:00 $02:00
Timing: Current Emulated Cycle: 6787, Last IRQ Trigger Cycle: 0, Cycles Since Last IRQ: 6787
Emulated Cycles: 6787

815F: 9D 00 C2    STA $C200,X
CPU State: PC:8162 A:EA X:BA Y:00 SP:FD Status:A5 (NV-B DIZC)
RAM State: $00:00 $01:00 $02:00
Timing: Current Emulated Cycle: 6792, Last IRQ Trigger Cycle: 0, Cycles Since Last IRQ: 6792
Emulated Cycles: 6792

8162: E8          INX
CPU State: PC:8163 A:EA X:BB Y:00 SP:FD Status:A5 (NV-B DIZC)
RAM State: $00:00 $01:00 $02:00
Timing: Current Emulated Cycle: 6794, Last IRQ Trigger Cycle: 0, Cycles Since Last IRQ: 6794
Emulated Cycles: 6794

8163: D0 F8       BNE $815D
CPU State: PC:815D A:EA X:BB Y:00 SP:FD Status:A5 (NV-B DIZC)
RAM State: $00:00 $01:00 $02:00
Timing: Current Emulated Cycle: 6797, Last IRQ Trigger Cycle: 0, Cycles Since Last IRQ: 6797
Emulated Cycles: 6797

815D: A9 EA       LDA #$EA
CPU State: PC:815F A:EA X:BB Y:00 SP:FD Status:A5 (NV-B DIZC)
RAM State: $00:00 $01:00 $02:00
Timing: Current Emulated Cycle: 6799, Last IRQ Trigger Cycle: 0, Cycles Since Last IRQ: 6799
Emulated Cycles: 6799

815F: 9D 00 C2    STA $C200,X
CPU State: PC:8162 A:EA X:BB Y:00 SP:FD Status:A5 (NV-B DIZC)
RAM State: $00:00 $01:00 $02:00
Timing: Current Emulated Cycle: 6804, Last IRQ Trigger Cycle: 0, Cycles Since Last IRQ: 6804
Emulated Cycles: 6804

8162: E8          INX
CPU State: PC:8163 A:EA X:BC Y:00 SP:FD Status:A5 (NV-B DIZC)
RAM State: $00:00 $01:00 $02:00
Timing: Current Emulated Cycle: 6806, Last IRQ Trigger Cycle: 0, Cycles Since Last IRQ: 6806
Emulated Cycles: 6806

8163: D0 F8       BNE $815D
CPU State: PC:815D A:EA X:BC Y:00 SP:FD Status:A5 (NV-B DIZC)
RAM State: $00:00 $01:00 $02:00
Timing: Current Emulated Cycle: 6809, Last IRQ Trigger Cycle: 0, Cycles Since Last IRQ: 6809
Emulated Cycles: 6809

815D: A9 EA       LDA #$EA
CPU State: PC:815F A:EA X:BC Y:00 SP:FD Status:A5 (NV-B DIZC)
RAM State: $00:00 $01:00 $02:00
Timing: Current Emulated Cycle: 6811, Last IRQ Trigger Cycle: 0, Cycles Since Last IRQ: 6811
Emulated Cycles: 6811

815F: 9D 00 C2    STA $C200,X
CPU State: PC:8162 A:EA X:BC Y:00 SP:FD Status:A5 (NV-B DIZC)
RAM State: $00:00 $01:00 $02:00
Timing: Current Emulated Cycle: 6816, Last IRQ Trigger Cycle: 0, Cycles Since Last IRQ: 6816
Emulated Cycles: 6816

8162: E8          INX
CPU State: PC:8163 A:EA X:BD Y:00 SP:FD Status:A5 (NV-B DIZC)
RAM State: $00:00 $01:00 $02:00
Timing: Current Emulated Cycle: 6818, Last IRQ Trigger Cycle: 0, Cycles Since Last IRQ: 6818
Emulated Cycles: 6818

8163: D0 F8       BNE $815D
CPU State: PC:815D A:EA X:BD Y:00 SP:FD Status:A5 (NV-B DIZC)
RAM State: $00:00 $01:00 $02:00
Timing: Current Emulated Cycle: 6821, Last IRQ Trigger Cycle: 0, Cycles Since Last IRQ: 6821
Emulated Cycles: 6821

815D: A9 EA       LDA #$EA
CPU State: PC:815F A:EA X:BD Y:00 SP:FD Status:A5 (NV-B DIZC)
RAM State: $00:00 $01:00 $02:00
Timing: Current Emulated Cycle: 6823, Last IRQ Trigger Cycle: 0, Cycles Since Last IRQ: 6823
Emulated Cycles: 6823

815F: 9D 00 C2    STA $C200,X
CPU State: PC:8162 A:EA X:BD Y:00 SP:FD Status:A5 (NV-B DIZC)
RAM State: $00:00 $01:00 $02:00
Timing: Current Emulated Cycle: 6828, Last IRQ Trigger Cycle: 0, Cycles Since Last IRQ: 6828
Emulated Cycles: 6828

8162: E8          INX
CPU State: PC:8163 A:EA X:BE Y:00 SP:FD Status:A5 (NV-B DIZC)
RAM State: $00:00 $01:00 $02:00
Timing: Current Emulated Cycle: 6830, Last IRQ Trigger Cycle: 0, Cycles Since Last IRQ: 6830
Emulated Cycles: 6830

8163: D0 F8       BNE $815D
CPU State: PC:815D A:EA X:BE Y:00 SP:FD Status:A5 (NV-B DIZC)
RAM State: $00:00 $01:00 $02:00
Timing: Current Emulated Cycle: 6833, Last IRQ Trigger Cycle: 0, Cycles Since Last IRQ: 6833
Emulated Cycles: 6833

815D: A9 EA       LDA #$EA
CPU State: PC:815F A:EA X:BE Y:00 SP:FD Status:A5 (NV-B DIZC)
RAM State: $00:00 $01:00 $02:00
Timing: Current Emulated Cycle: 6835, Last IRQ Trigger Cycle: 0, Cycles Since Last IRQ: 6835
Emulated Cycles: 6835

815F: 9D 00 C2    STA $C200,X
CPU State: PC:8162 A:EA X:BE Y:00 SP:FD Status:A5 (NV-B DIZC)
RAM State: $00:00 $01:00 $02:00
Timing: Current Emulated Cycle: 6840, Last IRQ Trigger Cycle: 0, Cycles Since Last IRQ: 6840
Emulated Cycles: 6840

8162: E8          INX
CPU State: PC:8163 A:EA X:BF Y:00 SP:FD Status:A5 (NV-B DIZC)
RAM State: $00:00 $01:00 $02:00
Timing: Current Emulated Cycle: 6842, Last IRQ Trigger Cycle: 0, Cycles Since Last IRQ: 6842
Emulated Cycles: 6842

8163: D0 F8       BNE $815D
CPU State: PC:815D A:EA X:BF Y:00 SP:FD Status:A5 (NV-B DIZC)
RAM State: $00:00 $01:00 $02:00
Timing: Current Emulated Cycle: 6845, Last IRQ Trigger Cycle: 0, Cycles Since Last IRQ: 6845
Emulated Cycles: 6845

815D: A9 EA       LDA #$EA
CPU State: PC:815F A:EA X:BF Y:00 SP:FD Status:A5 (NV-B DIZC)
RAM State: $00:00 $01:00 $02:00
Timing: Current Emulated Cycle: 6847, Last IRQ Trigger Cycle: 0, Cycles Since Last IRQ: 6847
Emulated Cycles: 6847

815F: 9D 00 C2    STA $C200,X
CPU State: PC:8162 A:EA X:BF Y:00 SP:FD Status:A5 (NV-B DIZC)
RAM State: $00:00 $01:00 $02:00
Timing: Current Emulated Cycle: 6852, Last IRQ Trigger Cycle: 0, Cycles Since Last IRQ: 6852
Emulated Cycles: 6852

8162: E8          INX
CPU State: PC:8163 A:EA X:C0 Y:00 SP:FD Status:A5 (NV-B DIZC)
RAM State: $00:00 $01:00 $02:00
Timing: Current Emulated Cycle: 6854, Last IRQ Trigger Cycle: 0, Cycles Since Last IRQ: 6854
Emulated Cycles: 6854

8163: D0 F8       BNE $815D
CPU State: PC:815D A:EA X:C0 Y:00 SP:FD Status:A5 (NV-B DIZC)
RAM State: $00:00 $01:00 $02:00
Timing: Current Emulated Cycle: 6857, Last IRQ Trigger Cycle: 0, Cycles Since Last IRQ: 6857
Emulated Cycles: 6857

815D: A9 EA       LDA #$EA
CPU State: PC:815F A:EA X:C0 Y:00 SP:FD Status:A5 (NV-B DIZC)
RAM State: $00:00 $01:00 $02:00
Timing: Current Emulated Cycle: 6859, Last IRQ Trigger Cycle: 0, Cycles Since Last IRQ: 6859
Emulated Cycles: 6859

815F: 9D 00 C2    STA $C200,X
CPU State: PC:8162 A:EA X:C0 Y:00 SP:FD Status:A5 (NV-B DIZC)
RAM State: $00:00 $01:00 $02:00
Timing: Current Emulated Cycle: 6864, Last IRQ Trigger Cycle: 0, Cycles Since Last IRQ: 6864
Emulated Cycles: 6864

8162: E8          INX
CPU State: PC:8163 A:EA X:C1 Y:00 SP:FD Status:A5 (NV-B DIZC)
RAM State: $00:00 $01:00 $02:00
Timing: Current Emulated Cycle: 6866, Last IRQ Trigger Cycle: 0, Cycles Since Last IRQ: 6866
Emulated Cycles: 6866

8163: D0 F8       BNE $815D
CPU State: PC:815D A:EA X:C1 Y:00 SP:FD Status:A5 (NV-B DIZC)
RAM State: $00:00 $01:00 $02:00
Timing: Current Emulated Cycle: 6869, Last IRQ Trigger Cycle: 0, Cycles Since Last IRQ: 6869
Emulated Cycles: 6869

815D: A9 EA       LDA #$EA
CPU State: PC:815F A:EA X:C1 Y:00 SP:FD Status:A5 (NV-B DIZC)
RAM State: $00:00 $01:00 $02:00
Timing: Current Emulated Cycle: 6871, Last IRQ Trigger Cycle: 0, Cycles Since Last IRQ: 6871
Emulated Cycles: 6871

815F: 9D 00 C2    STA $C200,X
CPU State: PC:8162 A:EA X:C1 Y:00 SP:FD Status:A5 (NV-B DIZC)
RAM State: $00:00 $01:00 $02:00
Timing: Current Emulated Cycle: 6876, Last IRQ Trigger Cycle: 0, Cycles Since Last IRQ: 6876
Emulated Cycles: 6876

8162: E8          INX
CPU State: PC:8163 A:EA X:C2 Y:00 SP:FD Status:A5 (NV-B DIZC)
RAM State: $00:00 $01:00 $02:00
Timing: Current Emulated Cycle: 6878, Last IRQ Trigger Cycle: 0, Cycles Since Last IRQ: 6878
Emulated Cycles: 6878

8163: D0 F8       BNE $815D
CPU State: PC:815D A:EA X:C2 Y:00 SP:FD Status:A5 (NV-B DIZC)
RAM State: $00:00 $01:00 $02:00
Timing: Current Emulated Cycle: 6881, Last IRQ Trigger Cycle: 0, Cycles Since Last IRQ: 6881
Emulated Cycles: 6881

815D: A9 EA       LDA #$EA
CPU State: PC:815F A:EA X:C2 Y:00 SP:FD Status:A5 (NV-B DIZC)
RAM State: $00:00 $01:00 $02:00
Timing: Current Emulated Cycle: 6883, Last IRQ Trigger Cycle: 0, Cycles Since Last IRQ: 6883
Emulated Cycles: 6883

815F: 9D 00 C2    STA $C200,X
CPU State: PC:8162 A:EA X:C2 Y:00 SP:FD Status:A5 (NV-B DIZC)
RAM State: $00:00 $01:00 $02:00
Timing: Current Emulated Cycle: 6888, Last IRQ Trigger Cycle: 0, Cycles Since Last IRQ: 6888
Emulated Cycles: 6888

8162: E8          INX
CPU State: PC:8163 A:EA X:C3 Y:00 SP:FD Status:A5 (NV-B DIZC)
RAM State: $00:00 $01:00 $02:00
Timing: Current Emulated Cycle: 6890, Last IRQ Trigger Cycle: 0, Cycles Since Last IRQ: 6890
Emulated Cycles: 6890

8163: D0 F8       BNE $815D
CPU State: PC:815D A:EA X:C3 Y:00 SP:FD Status:A5 (NV-B DIZC)
RAM State: $00:00 $01:00 $02:00
Timing: Current Emulated Cycle: 6893, Last IRQ Trigger Cycle: 0, Cycles Since Last IRQ: 6893
Emulated Cycles: 6893

815D: A9 EA       LDA #$EA
CPU State: PC:815F A:EA X:C3 Y:00 SP:FD Status:A5 (NV-B DIZC)
RAM State: $00:00 $01:00 $02:00
Timing: Current Emulated Cycle: 6895, Last IRQ Trigger Cycle: 0, Cycles Since Last IRQ: 6895
Emulated Cycles: 6895

815F: 9D 00 C2    STA $C200,X
CPU State: PC:8162 A:EA X:C3 Y:00 SP:FD Status:A5 (NV-B DIZC)
RAM State: $00:00 $01:00 $02:00
Timing: Current Emulated Cycle: 6900, Last IRQ Trigger Cycle: 0, Cycles Since Last IRQ: 6900
Emulated Cycles: 6900

8162: E8          INX
CPU State: PC:8163 A:EA X:C4 Y:00 SP:FD Status:A5 (NV-B DIZC)
RAM State: $00:00 $01:00 $02:00
Timing: Current Emulated Cycle: 6902, Last IRQ Trigger Cycle: 0, Cycles Since Last IRQ: 6902
Emulated Cycles: 6902

8163: D0 F8       BNE $815D
CPU State: PC:815D A:EA X:C4 Y:00 SP:FD Status:A5 (NV-B DIZC)
RAM State: $00:00 $01:00 $02:00
Timing: Current Emulated Cycle: 6905, Last IRQ Trigger Cycle: 0, Cycles Since Last IRQ: 6905
Emulated Cycles: 6905

815D: A9 EA       LDA #$EA
CPU State: PC:815F A:EA X:C4 Y:00 SP:FD Status:A5 (NV-B DIZC)
RAM State: $00:00 $01:00 $02:00
Timing: Current Emulated Cycle: 6907, Last IRQ Trigger Cycle: 0, Cycles Since Last IRQ: 6907
Emulated Cycles: 6907

815F: 9D 00 C2    STA $C200,X
CPU State: PC:8162 A:EA X:C4 Y:00 SP:FD Status:A5 (NV-B DIZC)
RAM State: $00:00 $01:00 $02:00
Timing: Current Emulated Cycle: 6912, Last IRQ Trigger Cycle: 0, Cycles Since Last IRQ: 6912
Emulated Cycles: 6912

8162: E8          INX
CPU State: PC:8163 A:EA X:C5 Y:00 SP:FD Status:A5 (NV-B DIZC)
RAM State: $00:00 $01:00 $02:00
Timing: Current Emulated Cycle: 6914, Last IRQ Trigger Cycle: 0, Cycles Since Last IRQ: 6914
Emulated Cycles: 6914

8163: D0 F8       BNE $815D
CPU State: PC:815D A:EA X:C5 Y:00 SP:FD Status:A5 (NV-B DIZC)
RAM State: $00:00 $01:00 $02:00
Timing: Current Emulated Cycle: 6917, Last IRQ Trigger Cycle: 0, Cycles Since Last IRQ: 6917
Emulated Cycles: 6917

815D: A9 EA       LDA #$EA
CPU State: PC:815F A:EA X:C5 Y:00 SP:FD Status:A5 (NV-B DIZC)
RAM State: $00:00 $01:00 $02:00
Timing: Current Emulated Cycle: 6919, Last IRQ Trigger Cycle: 0, Cycles Since Last IRQ: 6919
Emulated Cycles: 6919

815F: 9D 00 C2    STA $C200,X
CPU State: PC:8162 A:EA X:C5 Y:00 SP:FD Status:A5 (NV-B DIZC)
RAM State: $00:00 $01:00 $02:00
Timing: Current Emulated Cycle: 6924, Last IRQ Trigger Cycle: 0, Cycles Since Last IRQ: 6924
Emulated Cycles: 6924

8162: E8          INX
CPU State: PC:8163 A:EA X:C6 Y:00 SP:FD Status:A5 (NV-B DIZC)
RAM State: $00:00 $01:00 $02:00
Timing: Current Emulated Cycle: 6926, Last IRQ Trigger Cycle: 0, Cycles Since Last IRQ: 6926
Emulated Cycles: 6926

8163: D0 F8       BNE $815D
CPU State: PC:815D A:EA X:C6 Y:00 SP:FD Status:A5 (NV-B DIZC)
RAM State: $00:00 $01:00 $02:00
Timing: Current Emulated Cycle: 6929, Last IRQ Trigger Cycle: 0, Cycles Since Last IRQ: 6929
Emulated Cycles: 6929

815D: A9 EA       LDA #$EA
CPU State: PC:815F A:EA X:C6 Y:00 SP:FD Status:A5 (NV-B DIZC)
RAM State: $00:00 $01:00 $02:00
Timing: Current Emulated Cycle: 6931, Last IRQ Trigger Cycle: 0, Cycles Since Last IRQ: 6931
Emulated Cycles: 6931

815F: 9D 00 C2    STA $C200,X
CPU State: PC:8162 A:EA X:C6 Y:00 SP:FD Status:A5 (NV-B DIZC)
RAM State: $00:00 $01:00 $02:00
Timing: Current Emulated Cycle: 6936, Last IRQ Trigger Cycle: 0, Cycles Since Last IRQ: 6936
Emulated Cycles: 6936

8162: E8          INX
CPU State: PC:8163 A:EA X:C7 Y:00 SP:FD Status:A5 (NV-B DIZC)
RAM State: $00:00 $01:00 $02:00
Timing: Current Emulated Cycle: 6938, Last IRQ Trigger Cycle: 0, Cycles Since Last IRQ: 6938
Emulated Cycles: 6938

8163: D0 F8       BNE $815D
CPU State: PC:815D A:EA X:C7 Y:00 SP:FD Status:A5 (NV-B DIZC)
RAM State: $00:00 $01:00 $02:00
Timing: Current Emulated Cycle: 6941, Last IRQ Trigger Cycle: 0, Cycles Since Last IRQ: 6941
Emulated Cycles: 6941

815D: A9 EA       LDA #$EA
CPU State: PC:815F A:EA X:C7 Y:00 SP:FD Status:A5 (NV-B DIZC)
RAM State: $00:00 $01:00 $02:00
Timing: Current Emulated Cycle: 6943, Last IRQ Trigger Cycle: 0, Cycles Since Last IRQ: 6943
Emulated Cycles: 6943

815F: 9D 00 C2    STA $C200,X
CPU State: PC:8162 A:EA X:C7 Y:00 SP:FD Status:A5 (NV-B DIZC)
RAM State: $00:00 $01:00 $02:00
Timing: Current Emulated Cycle: 6948, Last IRQ Trigger Cycle: 0, Cycles Since Last IRQ: 6948
Emulated Cycles: 6948

8162: E8          INX
CPU State: PC:8163 A:EA X:C8 Y:00 SP:FD Status:A5 (NV-B DIZC)
RAM State: $00:00 $01:00 $02:00
Timing: Current Emulated Cycle: 6950, Last IRQ Trigger Cycle: 0, Cycles Since Last IRQ: 6950
Emulated Cycles: 6950

8163: D0 F8       BNE $815D
CPU State: PC:815D A:EA X:C8 Y:00 SP:FD Status:A5 (NV-B DIZC)
RAM State: $00:00 $01:00 $02:00
Timing: Current Emulated Cycle: 6953, Last IRQ Trigger Cycle: 0, Cycles Since Last IRQ: 6953
Emulated Cycles: 6953

815D: A9 EA       LDA #$EA
CPU State: PC:815F A:EA X:C8 Y:00 SP:FD Status:A5 (NV-B DIZC)
RAM State: $00:00 $01:00 $02:00
Timing: Current Emulated Cycle: 6955, Last IRQ Trigger Cycle: 0, Cycles Since Last IRQ: 6955
Emulated Cycles: 6955

815F: 9D 00 C2    STA $C200,X
CPU State: PC:8162 A:EA X:C8 Y:00 SP:FD Status:A5 (NV-B DIZC)
RAM State: $00:00 $01:00 $02:00
Timing: Current Emulated Cycle: 6960, Last IRQ Trigger Cycle: 0, Cycles Since Last IRQ: 6960
Emulated Cycles: 6960

8162: E8          INX
CPU State: PC:8163 A:EA X:C9 Y:00 SP:FD Status:A5 (NV-B DIZC)
RAM State: $00:00 $01:00 $02:00
Timing: Current Emulated Cycle: 6962, Last IRQ Trigger Cycle: 0, Cycles Since Last IRQ: 6962
Emulated Cycles: 6962

8163: D0 F8       BNE $815D
CPU State: PC:815D A:EA X:C9 Y:00 SP:FD Status:A5 (NV-B DIZC)
RAM State: $00:00 $01:00 $02:00
Timing: Current Emulated Cycle: 6965, Last IRQ Trigger Cycle: 0, Cycles Since Last IRQ: 6965
Emulated Cycles: 6965

815D: A9 EA       LDA #$EA
CPU State: PC:815F A:EA X:C9 Y:00 SP:FD Status:A5 (NV-B DIZC)
RAM State: $00:00 $01:00 $02:00
Timing: Current Emulated Cycle: 6967, Last IRQ Trigger Cycle: 0, Cycles Since Last IRQ: 6967
Emulated Cycles: 6967

815F: 9D 00 C2    STA $C200,X
CPU State: PC:8162 A:EA X:C9 Y:00 SP:FD Status:A5 (NV-B DIZC)
RAM State: $00:00 $01:00 $02:00
Timing: Current Emulated Cycle: 6972, Last IRQ Trigger Cycle: 0, Cycles Since Last IRQ: 6972
Emulated Cycles: 6972

8162: E8          INX
CPU State: PC:8163 A:EA X:CA Y:00 SP:FD Status:A5 (NV-B DIZC)
RAM State: $00:00 $01:00 $02:00
Timing: Current Emulated Cycle: 6974, Last IRQ Trigger Cycle: 0, Cycles Since Last IRQ: 6974
Emulated Cycles: 6974

8163: D0 F8       BNE $815D
CPU State: PC:815D A:EA X:CA Y:00 SP:FD Status:A5 (NV-B DIZC)
RAM State: $00:00 $01:00 $02:00
Timing: Current Emulated Cycle: 6977, Last IRQ Trigger Cycle: 0, Cycles Since Last IRQ: 6977
Emulated Cycles: 6977

815D: A9 EA       LDA #$EA
CPU State: PC:815F A:EA X:CA Y:00 SP:FD Status:A5 (NV-B DIZC)
RAM State: $00:00 $01:00 $02:00
Timing: Current Emulated Cycle: 6979, Last IRQ Trigger Cycle: 0, Cycles Since Last IRQ: 6979
Emulated Cycles: 6979

815F: 9D 00 C2    STA $C200,X
CPU State: PC:8162 A:EA X:CA Y:00 SP:FD Status:A5 (NV-B DIZC)
RAM State: $00:00 $01:00 $02:00
Timing: Current Emulated Cycle: 6984, Last IRQ Trigger Cycle: 0, Cycles Since Last IRQ: 6984
Emulated Cycles: 6984

8162: E8          INX
CPU State: PC:8163 A:EA X:CB Y:00 SP:FD Status:A5 (NV-B DIZC)
RAM State: $00:00 $01:00 $02:00
Timing: Current Emulated Cycle: 6986, Last IRQ Trigger Cycle: 0, Cycles Since Last IRQ: 6986
Emulated Cycles: 6986

8163: D0 F8       BNE $815D
CPU State: PC:815D A:EA X:CB Y:00 SP:FD Status:A5 (NV-B DIZC)
RAM State: $00:00 $01:00 $02:00
Timing: Current Emulated Cycle: 6989, Last IRQ Trigger Cycle: 0, Cycles Since Last IRQ: 6989
Emulated Cycles: 6989

815D: A9 EA       LDA #$EA
CPU State: PC:815F A:EA X:CB Y:00 SP:FD Status:A5 (NV-B DIZC)
RAM State: $00:00 $01:00 $02:00
Timing: Current Emulated Cycle: 6991, Last IRQ Trigger Cycle: 0, Cycles Since Last IRQ: 6991
Emulated Cycles: 6991

815F: 9D 00 C2    STA $C200,X
CPU State: PC:8162 A:EA X:CB Y:00 SP:FD Status:A5 (NV-B DIZC)
RAM State: $00:00 $01:00 $02:00
Timing: Current Emulated Cycle: 6996, Last IRQ Trigger Cycle: 0, Cycles Since Last IRQ: 6996
Emulated Cycles: 6996

8162: E8          INX
CPU State: PC:8163 A:EA X:CC Y:00 SP:FD Status:A5 (NV-B DIZC)
RAM State: $00:00 $01:00 $02:00
Timing: Current Emulated Cycle: 6998, Last IRQ Trigger Cycle: 0, Cycles Since Last IRQ: 6998
Emulated Cycles: 6998

8163: D0 F8       BNE $815D
CPU State: PC:815D A:EA X:CC Y:00 SP:FD Status:A5 (NV-B DIZC)
RAM State: $00:00 $01:00 $02:00
Timing: Current Emulated Cycle: 7001, Last IRQ Trigger Cycle: 0, Cycles Since Last IRQ: 7001
Emulated Cycles: 7001

815D: A9 EA       LDA #$EA
CPU State: PC:815F A:EA X:CC Y:00 SP:FD Status:A5 (NV-B DIZC)
RAM State: $00:00 $01:00 $02:00
Timing: Current Emulated Cycle: 7003, Last IRQ Trigger Cycle: 0, Cycles Since Last IRQ: 7003
Emulated Cycles: 7003

815F: 9D 00 C2    STA $C200,X
CPU State: PC:8162 A:EA X:CC Y:00 SP:FD Status:A5 (NV-B DIZC)
RAM State: $00:00 $01:00 $02:00
Timing: Current Emulated Cycle: 7008, Last IRQ Trigger Cycle: 0, Cycles Since Last IRQ: 7008
Emulated Cycles: 7008

8162: E8          INX
CPU State: PC:8163 A:EA X:CD Y:00 SP:FD Status:A5 (NV-B DIZC)
RAM State: $00:00 $01:00 $02:00
Timing: Current Emulated Cycle: 7010, Last IRQ Trigger Cycle: 0, Cycles Since Last IRQ: 7010
Emulated Cycles: 7010

8163: D0 F8       BNE $815D
CPU State: PC:815D A:EA X:CD Y:00 SP:FD Status:A5 (NV-B DIZC)
RAM State: $00:00 $01:00 $02:00
Timing: Current Emulated Cycle: 7013, Last IRQ Trigger Cycle: 0, Cycles Since Last IRQ: 7013
Emulated Cycles: 7013

815D: A9 EA       LDA #$EA
CPU State: PC:815F A:EA X:CD Y:00 SP:FD Status:A5 (NV-B DIZC)
RAM State: $00:00 $01:00 $02:00
Timing: Current Emulated Cycle: 7015, Last IRQ Trigger Cycle: 0, Cycles Since Last IRQ: 7015
Emulated Cycles: 7015

815F: 9D 00 C2    STA $C200,X
CPU State: PC:8162 A:EA X:CD Y:00 SP:FD Status:A5 (NV-B DIZC)
RAM State: $00:00 $01:00 $02:00
Timing: Current Emulated Cycle: 7020, Last IRQ Trigger Cycle: 0, Cycles Since Last IRQ: 7020
Emulated Cycles: 7020

8162: E8          INX
CPU State: PC:8163 A:EA X:CE Y:00 SP:FD Status:A5 (NV-B DIZC)
RAM State: $00:00 $01:00 $02:00
Timing: Current Emulated Cycle: 7022, Last IRQ Trigger Cycle: 0, Cycles Since Last IRQ: 7022
Emulated Cycles: 7022

8163: D0 F8       BNE $815D
CPU State: PC:815D A:EA X:CE Y:00 SP:FD Status:A5 (NV-B DIZC)
RAM State: $00:00 $01:00 $02:00
Timing: Current Emulated Cycle: 7025, Last IRQ Trigger Cycle: 0, Cycles Since Last IRQ: 7025
Emulated Cycles: 7025

815D: A9 EA       LDA #$EA
CPU State: PC:815F A:EA X:CE Y:00 SP:FD Status:A5 (NV-B DIZC)
RAM State: $00:00 $01:00 $02:00
Timing: Current Emulated Cycle: 7027, Last IRQ Trigger Cycle: 0, Cycles Since Last IRQ: 7027
Emulated Cycles: 7027

815F: 9D 00 C2    STA $C200,X
CPU State: PC:8162 A:EA X:CE Y:00 SP:FD Status:A5 (NV-B DIZC)
RAM State: $00:00 $01:00 $02:00
Timing: Current Emulated Cycle: 7032, Last IRQ Trigger Cycle: 0, Cycles Since Last IRQ: 7032
Emulated Cycles: 7032

8162: E8          INX
CPU State: PC:8163 A:EA X:CF Y:00 SP:FD Status:A5 (NV-B DIZC)
RAM State: $00:00 $01:00 $02:00
Timing: Current Emulated Cycle: 7034, Last IRQ Trigger Cycle: 0, Cycles Since Last IRQ: 7034
Emulated Cycles: 7034

8163: D0 F8       BNE $815D
CPU State: PC:815D A:EA X:CF Y:00 SP:FD Status:A5 (NV-B DIZC)
RAM State: $00:00 $01:00 $02:00
Timing: Current Emulated Cycle: 7037, Last IRQ Trigger Cycle: 0, Cycles Since Last IRQ: 7037
Emulated Cycles: 7037

815D: A9 EA       LDA #$EA
CPU State: PC:815F A:EA X:CF Y:00 SP:FD Status:A5 (NV-B DIZC)
RAM State: $00:00 $01:00 $02:00
Timing: Current Emulated Cycle: 7039, Last IRQ Trigger Cycle: 0, Cycles Since Last IRQ: 7039
Emulated Cycles: 7039

815F: 9D 00 C2    STA $C200,X
CPU State: PC:8162 A:EA X:CF Y:00 SP:FD Status:A5 (NV-B DIZC)
RAM State: $00:00 $01:00 $02:00
Timing: Current Emulated Cycle: 7044, Last IRQ Trigger Cycle: 0, Cycles Since Last IRQ: 7044
Emulated Cycles: 7044

8162: E8          INX
CPU State: PC:8163 A:EA X:D0 Y:00 SP:FD Status:A5 (NV-B DIZC)
RAM State: $00:00 $01:00 $02:00
Timing: Current Emulated Cycle: 7046, Last IRQ Trigger Cycle: 0, Cycles Since Last IRQ: 7046
Emulated Cycles: 7046

8163: D0 F8       BNE $815D
CPU State: PC:815D A:EA X:D0 Y:00 SP:FD Status:A5 (NV-B DIZC)
RAM State: $00:00 $01:00 $02:00
Timing: Current Emulated Cycle: 7049, Last IRQ Trigger Cycle: 0, Cycles Since Last IRQ: 7049
Emulated Cycles: 7049

815D: A9 EA       LDA #$EA
CPU State: PC:815F A:EA X:D0 Y:00 SP:FD Status:A5 (NV-B DIZC)
RAM State: $00:00 $01:00 $02:00
Timing: Current Emulated Cycle: 7051, Last IRQ Trigger Cycle: 0, Cycles Since Last IRQ: 7051
Emulated Cycles: 7051

815F: 9D 00 C2    STA $C200,X
CPU State: PC:8162 A:EA X:D0 Y:00 SP:FD Status:A5 (NV-B DIZC)
RAM State: $00:00 $01:00 $02:00
Timing: Current Emulated Cycle: 7056, Last IRQ Trigger Cycle: 0, Cycles Since Last IRQ: 7056
Emulated Cycles: 7056

8162: E8          INX
CPU State: PC:8163 A:EA X:D1 Y:00 SP:FD Status:A5 (NV-B DIZC)
RAM State: $00:00 $01:00 $02:00
Timing: Current Emulated Cycle: 7058, Last IRQ Trigger Cycle: 0, Cycles Since Last IRQ: 7058
Emulated Cycles: 7058

8163: D0 F8       BNE $815D
CPU State: PC:815D A:EA X:D1 Y:00 SP:FD Status:A5 (NV-B DIZC)
RAM State: $00:00 $01:00 $02:00
Timing: Current Emulated Cycle: 7061, Last IRQ Trigger Cycle: 0, Cycles Since Last IRQ: 7061
Emulated Cycles: 7061

815D: A9 EA       LDA #$EA
CPU State: PC:815F A:EA X:D1 Y:00 SP:FD Status:A5 (NV-B DIZC)
RAM State: $00:00 $01:00 $02:00
Timing: Current Emulated Cycle: 7063, Last IRQ Trigger Cycle: 0, Cycles Since Last IRQ: 7063
Emulated Cycles: 7063

815F: 9D 00 C2    STA $C200,X
CPU State: PC:8162 A:EA X:D1 Y:00 SP:FD Status:A5 (NV-B DIZC)
RAM State: $00:00 $01:00 $02:00
Timing: Current Emulated Cycle: 7068, Last IRQ Trigger Cycle: 0, Cycles Since Last IRQ: 7068
Emulated Cycles: 7068

8162: E8          INX
CPU State: PC:8163 A:EA X:D2 Y:00 SP:FD Status:A5 (NV-B DIZC)
RAM State: $00:00 $01:00 $02:00
Timing: Current Emulated Cycle: 7070, Last IRQ Trigger Cycle: 0, Cycles Since Last IRQ: 7070
Emulated Cycles: 7070

8163: D0 F8       BNE $815D
CPU State: PC:815D A:EA X:D2 Y:00 SP:FD Status:A5 (NV-B DIZC)
RAM State: $00:00 $01:00 $02:00
Timing: Current Emulated Cycle: 7073, Last IRQ Trigger Cycle: 0, Cycles Since Last IRQ: 7073
Emulated Cycles: 7073

815D: A9 EA       LDA #$EA
CPU State: PC:815F A:EA X:D2 Y:00 SP:FD Status:A5 (NV-B DIZC)
RAM State: $00:00 $01:00 $02:00
Timing: Current Emulated Cycle: 7075, Last IRQ Trigger Cycle: 0, Cycles Since Last IRQ: 7075
Emulated Cycles: 7075

815F: 9D 00 C2    STA $C200,X
CPU State: PC:8162 A:EA X:D2 Y:00 SP:FD Status:A5 (NV-B DIZC)
RAM State: $00:00 $01:00 $02:00
Timing: Current Emulated Cycle: 7080, Last IRQ Trigger Cycle: 0, Cycles Since Last IRQ: 7080
Emulated Cycles: 7080

8162: E8          INX
CPU State: PC:8163 A:EA X:D3 Y:00 SP:FD Status:A5 (NV-B DIZC)
RAM State: $00:00 $01:00 $02:00
Timing: Current Emulated Cycle: 7082, Last IRQ Trigger Cycle: 0, Cycles Since Last IRQ: 7082
Emulated Cycles: 7082

8163: D0 F8       BNE $815D
CPU State: PC:815D A:EA X:D3 Y:00 SP:FD Status:A5 (NV-B DIZC)
RAM State: $00:00 $01:00 $02:00
Timing: Current Emulated Cycle: 7085, Last IRQ Trigger Cycle: 0, Cycles Since Last IRQ: 7085
Emulated Cycles: 7085

815D: A9 EA       LDA #$EA
CPU State: PC:815F A:EA X:D3 Y:00 SP:FD Status:A5 (NV-B DIZC)
RAM State: $00:00 $01:00 $02:00
Timing: Current Emulated Cycle: 7087, Last IRQ Trigger Cycle: 0, Cycles Since Last IRQ: 7087
Emulated Cycles: 7087

815F: 9D 00 C2    STA $C200,X
CPU State: PC:8162 A:EA X:D3 Y:00 SP:FD Status:A5 (NV-B DIZC)
RAM State: $00:00 $01:00 $02:00
Timing: Current Emulated Cycle: 7092, Last IRQ Trigger Cycle: 0, Cycles Since Last IRQ: 7092
Emulated Cycles: 7092

8162: E8          INX
CPU State: PC:8163 A:EA X:D4 Y:00 SP:FD Status:A5 (NV-B DIZC)
RAM State: $00:00 $01:00 $02:00
Timing: Current Emulated Cycle: 7094, Last IRQ Trigger Cycle: 0, Cycles Since Last IRQ: 7094
Emulated Cycles: 7094

8163: D0 F8       BNE $815D
CPU State: PC:815D A:EA X:D4 Y:00 SP:FD Status:A5 (NV-B DIZC)
RAM State: $00:00 $01:00 $02:00
Timing: Current Emulated Cycle: 7097, Last IRQ Trigger Cycle: 0, Cycles Since Last IRQ: 7097
Emulated Cycles: 7097

815D: A9 EA       LDA #$EA
CPU State: PC:815F A:EA X:D4 Y:00 SP:FD Status:A5 (NV-B DIZC)
RAM State: $00:00 $01:00 $02:00
Timing: Current Emulated Cycle: 7099, Last IRQ Trigger Cycle: 0, Cycles Since Last IRQ: 7099
Emulated Cycles: 7099

815F: 9D 00 C2    STA $C200,X
CPU State: PC:8162 A:EA X:D4 Y:00 SP:FD Status:A5 (NV-B DIZC)
RAM State: $00:00 $01:00 $02:00
Timing: Current Emulated Cycle: 7104, Last IRQ Trigger Cycle: 0, Cycles Since Last IRQ: 7104
Emulated Cycles: 7104

8162: E8          INX
CPU State: PC:8163 A:EA X:D5 Y:00 SP:FD Status:A5 (NV-B DIZC)
RAM State: $00:00 $01:00 $02:00
Timing: Current Emulated Cycle: 7106, Last IRQ Trigger Cycle: 0, Cycles Since Last IRQ: 7106
Emulated Cycles: 7106

8163: D0 F8       BNE $815D
CPU State: PC:815D A:EA X:D5 Y:00 SP:FD Status:A5 (NV-B DIZC)
RAM State: $00:00 $01:00 $02:00
Timing: Current Emulated Cycle: 7109, Last IRQ Trigger Cycle: 0, Cycles Since Last IRQ: 7109
Emulated Cycles: 7109

815D: A9 EA       LDA #$EA
CPU State: PC:815F A:EA X:D5 Y:00 SP:FD Status:A5 (NV-B DIZC)
RAM State: $00:00 $01:00 $02:00
Timing: Current Emulated Cycle: 7111, Last IRQ Trigger Cycle: 0, Cycles Since Last IRQ: 7111
Emulated Cycles: 7111

815F: 9D 00 C2    STA $C200,X
CPU State: PC:8162 A:EA X:D5 Y:00 SP:FD Status:A5 (NV-B DIZC)
RAM State: $00:00 $01:00 $02:00
Timing: Current Emulated Cycle: 7116, Last IRQ Trigger Cycle: 0, Cycles Since Last IRQ: 7116
Emulated Cy